Archive member included to satisfy reference by file (symbol)

/usr/local/gnat-arm/arm-eabi/lib/gnat/ravenscar-full-stm32f429disco/adalib/libgnat.a(a-except.o)
                              /home/aquox/Scrivania/Arm/edf-ravenscar-arm/build/s-soflin.o (ada__exceptions__exception_occurrenceIP)
/usr/local/gnat-arm/arm-eabi/lib/gnat/ravenscar-full-stm32f429disco/adalib/libgnat.a(a-tags.o)
                              /home/aquox/Scrivania/Arm/edf-ravenscar-arm/build/s-bbtiev.o (ada__tags__check_tsd)
/usr/local/gnat-arm/arm-eabi/lib/gnat/ravenscar-full-stm32f429disco/adalib/libgnat.a(adaint-xi.o)
                              /usr/local/gnat-arm/arm-eabi/lib/gnat/ravenscar-full-stm32f429disco/adalib/libgnat.a(a-except.o) (__gnat_get_executable_load_address)
/usr/local/gnat-arm/arm-eabi/lib/gnat/ravenscar-full-stm32f429disco/adalib/libgnat.a(g-debuti.o)
                              /home/aquox/Scrivania/Arm/edf-ravenscar-arm/build/a-elchha.o (gnat__debug_utilities__image_c)
/usr/local/gnat-arm/arm-eabi/lib/gnat/ravenscar-full-stm32f429disco/adalib/libgnat.a(handler.o)
                              /home/aquox/Scrivania/Arm/edf-ravenscar-arm/build/s-bbcppr.o (__vectors)
/usr/local/gnat-arm/arm-eabi/lib/gnat/ravenscar-full-stm32f429disco/adalib/libgnat.a(raise-gcc.o)
                              /home/aquox/Scrivania/Arm/edf-ravenscar-arm/build/a-elchha.o (__gnat_personality_v0)
/usr/local/gnat-arm/arm-eabi/lib/gnat/ravenscar-full-stm32f429disco/adalib/libgnat.a(s-bcpcst.o)
                              /home/aquox/Scrivania/Arm/edf-ravenscar-arm/build/s-bbcppr.o (system__bb__cpu_primitives__context_switch_trigger__initialize_context_switch)
/usr/local/gnat-arm/arm-eabi/lib/gnat/ravenscar-full-stm32f429disco/adalib/libgnat.a(s-excdeb.o)
                              /usr/local/gnat-arm/arm-eabi/lib/gnat/ravenscar-full-stm32f429disco/adalib/libgnat.a(a-except.o) (__gnat_debug_raise_exception)
/usr/local/gnat-arm/arm-eabi/lib/gnat/ravenscar-full-stm32f429disco/adalib/libgnat.a(s-except.o)
                              /usr/local/gnat-arm/arm-eabi/lib/gnat/ravenscar-full-stm32f429disco/adalib/libgnat.a(a-except.o) (system__exceptions__foreign_exception)
/usr/local/gnat-arm/arm-eabi/lib/gnat/ravenscar-full-stm32f429disco/adalib/libgnat.a(s-excmac.o)
                              /usr/local/gnat-arm/arm-eabi/lib/gnat/ravenscar-full-stm32f429disco/adalib/libgnat.a(a-except.o) (system__exceptions__machine__new_occurrence)
/usr/local/gnat-arm/arm-eabi/lib/gnat/ravenscar-full-stm32f429disco/adalib/libgnat.a(s-exctab.o)
                              /usr/local/gnat-arm/arm-eabi/lib/gnat/ravenscar-full-stm32f429disco/adalib/libgnat.a(a-except.o) (system__exception_table__internal_exception)
/usr/local/gnat-arm/arm-eabi/lib/gnat/ravenscar-full-stm32f429disco/adalib/libgnat.a(s-imgint.o)
                              /home/aquox/Scrivania/Arm/edf-ravenscar-arm/build/s-bbthqu.o (system__img_int__image_integer)
/usr/local/gnat-arm/arm-eabi/lib/gnat/ravenscar-full-stm32f429disco/adalib/libgnat.a(s-init.o)
                              b__unit01.o (__gnat_finalize)
/usr/local/gnat-arm/arm-eabi/lib/gnat/ravenscar-full-stm32f429disco/adalib/libgnat.a(s-io.o)
                              /home/aquox/Scrivania/Arm/edf-ravenscar-arm/build/a-elchha.o (system__io__new_line)
/usr/local/gnat-arm/arm-eabi/lib/gnat/ravenscar-full-stm32f429disco/adalib/libgnat.a(s-macres.o)
                              /usr/local/gnat-arm/arm-eabi/lib/gnat/ravenscar-full-stm32f429disco/adalib/libgnat.a(raise-gcc.o) (abort)
/usr/local/gnat-arm/arm-eabi/lib/gnat/ravenscar-full-stm32f429disco/adalib/libgnat.a(s-memory.o)
                              /usr/local/gnat-arm/arm-eabi/lib/gnat/ravenscar-full-stm32f429disco/adalib/libgnat.a(a-except.o) (__gnat_malloc)
/usr/local/gnat-arm/arm-eabi/lib/gnat/ravenscar-full-stm32f429disco/adalib/libgnat.a(s-musplo.o)
                              /home/aquox/Scrivania/Arm/edf-ravenscar-arm/build/s-mufalo.o (system__multiprocessors__spin_locks__spin_lockIP)
/usr/local/gnat-arm/arm-eabi/lib/gnat/ravenscar-full-stm32f429disco/adalib/libgnat.a(s-parame.o)
                              /home/aquox/Scrivania/Arm/edf-ravenscar-arm/build/s-taskin.o (system__parameters__adjust_storage_size)
/usr/local/gnat-arm/arm-eabi/lib/gnat/ravenscar-full-stm32f429disco/adalib/libgnat.a(s-secsta.o)
                              b__unit01.o (system__secondary_stack__ss_stackIP)
/usr/local/gnat-arm/arm-eabi/lib/gnat/ravenscar-full-stm32f429disco/adalib/libgnat.a(s-stalib.o)
                              b__unit01.o (system__standard_library__adafinal)
/usr/local/gnat-arm/arm-eabi/lib/gnat/ravenscar-full-stm32f429disco/adalib/libgnat.a(s-textio.o)
                              /usr/local/gnat-arm/arm-eabi/lib/gnat/ravenscar-full-stm32f429disco/adalib/libgnat.a(s-io.o) (system__text_io__initialize)
/usr/local/gnat-arm/arm-eabi/lib/gnat/ravenscar-full-stm32f429disco/adalib/libgnat.a(s-traceb.o)
                              /usr/local/gnat-arm/arm-eabi/lib/gnat/ravenscar-full-stm32f429disco/adalib/libgnat.a(a-except.o) (system__traceback__call_chain)
/usr/local/gnat-arm/arm-eabi/lib/gnat/ravenscar-full-stm32f429disco/adalib/libgnat.a(s-traent.o)
                              /usr/local/gnat-arm/arm-eabi/lib/gnat/ravenscar-full-stm32f429disco/adalib/libgnat.a(a-except.o) (system__traceback_entries__pc_for)
/usr/local/gnat-arm/arm-eabi/lib/gnat/ravenscar-full-stm32f429disco/adalib/libgnat.a(s-valuns.o)
                              /usr/local/gnat-arm/arm-eabi/lib/gnat/ravenscar-full-stm32f429disco/adalib/libgnat.a(a-tags.o) (system__val_uns__value_unsigned)
/usr/local/gnat-arm/arm-eabi/lib/gnat/ravenscar-full-stm32f429disco/adalib/libgnat.a(s-valuti.o)
                              /usr/local/gnat-arm/arm-eabi/lib/gnat/ravenscar-full-stm32f429disco/adalib/libgnat.a(s-valuns.o) (system__val_util__bad_value)
/usr/local/gnat-arm/arm-eabi/lib/gnat/ravenscar-full-stm32f429disco/adalib/libgnat.a(s-wchcon.o)
                              /usr/local/gnat-arm/arm-eabi/lib/gnat/ravenscar-full-stm32f429disco/adalib/libgnat.a(a-except.o) (system__wch_con__get_wc_encoding_method)
/usr/local/gnat-arm/arm-eabi/lib/gnat/ravenscar-full-stm32f429disco/adalib/libgnat.a(s-wchstw.o)
                              /usr/local/gnat-arm/arm-eabi/lib/gnat/ravenscar-full-stm32f429disco/adalib/libgnat.a(a-except.o) (system__wch_stw__string_to_wide_string)
/usr/local/gnat-arm/arm-eabi/lib/gnat/ravenscar-full-stm32f429disco/adalib/libgnat.a(start-rom.o)
                              (_start_rom)
/usr/local/gnat-arm/arm-eabi/lib/gnat/ravenscar-full-stm32f429disco/adalib/libgnat.a(breakpoint_handler-cortexm.o)
                              /usr/local/gnat-arm/arm-eabi/lib/gnat/ravenscar-full-stm32f429disco/adalib/libgnat.a(handler.o) (__gnat_bkpt_trap)
/usr/local/gnat-arm/arm-eabi/lib/gnat/ravenscar-full-stm32f429disco/adalib/libgnat.a(s-casuti.o)
                              /usr/local/gnat-arm/arm-eabi/lib/gnat/ravenscar-full-stm32f429disco/adalib/libgnat.a(s-valuti.o) (system__case_util__to_upper)
/usr/local/gnat-arm/arm-eabi/lib/gnat/ravenscar-full-stm32f429disco/adalib/libgnat.a(s-semiho.o)
                              /usr/local/gnat-arm/arm-eabi/lib/gnat/ravenscar-full-stm32f429disco/adalib/libgnat.a(s-textio.o) (system__semihosting__put)
/usr/local/gnat-arm/arm-eabi/lib/gnat/ravenscar-full-stm32f429disco/adalib/libgnat.a(s-wchjis.o)
                              /usr/local/gnat-arm/arm-eabi/lib/gnat/ravenscar-full-stm32f429disco/adalib/libgnat.a(s-wchstw.o) (system__wch_jis__euc_to_jis)
/usr/local/gnat-arm/arm-eabi/lib/gnat/ravenscar-full-stm32f429disco/adalib/libgnat.a(setup_pll.o)
                              /usr/local/gnat-arm/arm-eabi/lib/gnat/ravenscar-full-stm32f429disco/adalib/libgnat.a(start-rom.o) (_ada_setup_pll)
/usr/local/gnat-arm/arm-eabi/lib/gnat/ravenscar-full-stm32f429disco/adalib/libgnat.a(start-common.o)
                              /usr/local/gnat-arm/arm-eabi/lib/gnat/ravenscar-full-stm32f429disco/adalib/libgnat.a(start-rom.o) (_stm32_start_common)
/usr/local/gnat-arm/arm-eabi/lib/gnat/ravenscar-full-stm32f429disco/adalib/libgnat.a(s-bbmcpa.o)
                              /usr/local/gnat-arm/arm-eabi/lib/gnat/ravenscar-full-stm32f429disco/adalib/libgnat.a(setup_pll.o) (system__bb__mcu_parameters__pwr_initialize)
/usr/local/gnat-arm/bin/../lib/gcc/arm-eabi/7.3.1/../../../../arm-eabi/lib/thumb/v7e-m/fpv4-sp/hard/libc.a(lib_a-malloc.o)
                              /usr/local/gnat-arm/arm-eabi/lib/gnat/ravenscar-full-stm32f429disco/adalib/libgnat.a(s-memory.o) (malloc)
/usr/local/gnat-arm/bin/../lib/gcc/arm-eabi/7.3.1/../../../../arm-eabi/lib/thumb/v7e-m/fpv4-sp/hard/libc.a(lib_a-mallocr.o)
                              /usr/local/gnat-arm/bin/../lib/gcc/arm-eabi/7.3.1/../../../../arm-eabi/lib/thumb/v7e-m/fpv4-sp/hard/libc.a(lib_a-malloc.o) (_malloc_r)
/usr/local/gnat-arm/bin/../lib/gcc/arm-eabi/7.3.1/../../../../arm-eabi/lib/thumb/v7e-m/fpv4-sp/hard/libc.a(lib_a-memcmp.o)
                              /home/aquox/Scrivania/Arm/edf-ravenscar-arm/build/s-soflin.o (memcmp)
/usr/local/gnat-arm/bin/../lib/gcc/arm-eabi/7.3.1/../../../../arm-eabi/lib/thumb/v7e-m/fpv4-sp/hard/libc.a(lib_a-memcpy.o)
                              /home/aquox/Scrivania/Arm/edf-ravenscar-arm/build/a-elchha.o (memcpy)
/usr/local/gnat-arm/bin/../lib/gcc/arm-eabi/7.3.1/../../../../arm-eabi/lib/thumb/v7e-m/fpv4-sp/hard/libc.a(lib_a-memmove.o)
                              /usr/local/gnat-arm/arm-eabi/lib/gnat/ravenscar-full-stm32f429disco/adalib/libgnat.a(a-except.o) (memmove)
/usr/local/gnat-arm/bin/../lib/gcc/arm-eabi/7.3.1/../../../../arm-eabi/lib/thumb/v7e-m/fpv4-sp/hard/libc.a(lib_a-memset.o)
                              /home/aquox/Scrivania/Arm/edf-ravenscar-arm/build/s-bbcppr.o (memset)
/usr/local/gnat-arm/bin/../lib/gcc/arm-eabi/7.3.1/../../../../arm-eabi/lib/thumb/v7e-m/fpv4-sp/hard/libc.a(lib_a-mlock.o)
                              /usr/local/gnat-arm/bin/../lib/gcc/arm-eabi/7.3.1/../../../../arm-eabi/lib/thumb/v7e-m/fpv4-sp/hard/libc.a(lib_a-mallocr.o) (__malloc_lock)
/usr/local/gnat-arm/bin/../lib/gcc/arm-eabi/7.3.1/../../../../arm-eabi/lib/thumb/v7e-m/fpv4-sp/hard/libc.a(lib_a-realloc.o)
                              /usr/local/gnat-arm/arm-eabi/lib/gnat/ravenscar-full-stm32f429disco/adalib/libgnat.a(s-memory.o) (realloc)
/usr/local/gnat-arm/bin/../lib/gcc/arm-eabi/7.3.1/../../../../arm-eabi/lib/thumb/v7e-m/fpv4-sp/hard/libc.a(lib_a-reallocr.o)
                              /usr/local/gnat-arm/bin/../lib/gcc/arm-eabi/7.3.1/../../../../arm-eabi/lib/thumb/v7e-m/fpv4-sp/hard/libc.a(lib_a-realloc.o) (_realloc_r)
/usr/local/gnat-arm/bin/../lib/gcc/arm-eabi/7.3.1/../../../../arm-eabi/lib/thumb/v7e-m/fpv4-sp/hard/libc.a(lib_a-sbrkr.o)
                              /usr/local/gnat-arm/bin/../lib/gcc/arm-eabi/7.3.1/../../../../arm-eabi/lib/thumb/v7e-m/fpv4-sp/hard/libc.a(lib_a-mallocr.o) (_sbrk_r)
/usr/local/gnat-arm/bin/../lib/gcc/arm-eabi/7.3.1/../../../../arm-eabi/lib/thumb/v7e-m/fpv4-sp/hard/libc.a(lib_a-freer.o)
                              /usr/local/gnat-arm/bin/../lib/gcc/arm-eabi/7.3.1/../../../../arm-eabi/lib/thumb/v7e-m/fpv4-sp/hard/libc.a(lib_a-malloc.o) (_free_r)
/usr/local/gnat-arm/bin/../lib/gcc/arm-eabi/7.3.1/../../../../arm-eabi/lib/thumb/v7e-m/fpv4-sp/hard/libc.a(lib_a-impure.o)
                              /usr/local/gnat-arm/bin/../lib/gcc/arm-eabi/7.3.1/../../../../arm-eabi/lib/thumb/v7e-m/fpv4-sp/hard/libc.a(lib_a-malloc.o) (_impure_ptr)
/usr/local/gnat-arm/bin/../lib/gcc/arm-eabi/7.3.1/../../../../arm-eabi/lib/thumb/v7e-m/fpv4-sp/hard/libc.a(lib_a-reent.o)
                              /usr/local/gnat-arm/bin/../lib/gcc/arm-eabi/7.3.1/../../../../arm-eabi/lib/thumb/v7e-m/fpv4-sp/hard/libc.a(lib_a-sbrkr.o) (errno)
/usr/local/gnat-arm/bin/../lib/gcc/arm-eabi/7.3.1/thumb/v7e-m/fpv4-sp/hard/libgcc.a(_aeabi_ldivmod.o)
                              /home/aquox/Scrivania/Arm/edf-ravenscar-arm/build/s-bbtime.o (__aeabi_ldivmod)
/usr/local/gnat-arm/bin/../lib/gcc/arm-eabi/7.3.1/thumb/v7e-m/fpv4-sp/hard/libgcc.a(_aeabi_uldivmod.o)
                              /home/aquox/Scrivania/Arm/edf-ravenscar-arm/build/s-bbtime.o (__aeabi_uldivmod)
/usr/local/gnat-arm/bin/../lib/gcc/arm-eabi/7.3.1/thumb/v7e-m/fpv4-sp/hard/libgcc.a(_udivmoddi4.o)
                              /usr/local/gnat-arm/bin/../lib/gcc/arm-eabi/7.3.1/thumb/v7e-m/fpv4-sp/hard/libgcc.a(_aeabi_ldivmod.o) (__udivmoddi4)
/usr/local/gnat-arm/bin/../lib/gcc/arm-eabi/7.3.1/thumb/v7e-m/fpv4-sp/hard/libgcc.a(unwind-arm.o)
                              unit01.o (__aeabi_unwind_cpp_pr0)
/usr/local/gnat-arm/bin/../lib/gcc/arm-eabi/7.3.1/thumb/v7e-m/fpv4-sp/hard/libgcc.a(libunwind.o)
                              /usr/local/gnat-arm/bin/../lib/gcc/arm-eabi/7.3.1/thumb/v7e-m/fpv4-sp/hard/libgcc.a(unwind-arm.o) (restore_core_regs)
/usr/local/gnat-arm/bin/../lib/gcc/arm-eabi/7.3.1/thumb/v7e-m/fpv4-sp/hard/libgcc.a(pr-support.o)
                              /usr/local/gnat-arm/bin/../lib/gcc/arm-eabi/7.3.1/thumb/v7e-m/fpv4-sp/hard/libgcc.a(unwind-arm.o) (__gnu_unwind_execute)
/usr/local/gnat-arm/bin/../lib/gcc/arm-eabi/7.3.1/thumb/v7e-m/fpv4-sp/hard/libgcc.a(_dvmd_tls.o)
                              /usr/local/gnat-arm/bin/../lib/gcc/arm-eabi/7.3.1/thumb/v7e-m/fpv4-sp/hard/libgcc.a(_aeabi_ldivmod.o) (__aeabi_ldiv0)
/usr/local/gnat-arm/arm-eabi/lib/gnat/ravenscar-full-stm32f429disco/adalib//libgnat.a(newlib-bb.o)
                              /usr/local/gnat-arm/bin/../lib/gcc/arm-eabi/7.3.1/../../../../arm-eabi/lib/thumb/v7e-m/fpv4-sp/hard/libc.a(lib_a-sbrkr.o) (sbrk)
/usr/local/gnat-arm/bin/../lib/gcc/arm-eabi/7.3.1/../../../../arm-eabi/lib/thumb/v7e-m/fpv4-sp/hard/libc.a(lib_a-errno.o)
                              /usr/local/gnat-arm/arm-eabi/lib/gnat/ravenscar-full-stm32f429disco/adalib//libgnat.a(newlib-bb.o) (__errno)

Allocating common symbols
Common symbol       size              file

errno               0x4               /usr/local/gnat-arm/bin/../lib/gcc/arm-eabi/7.3.1/../../../../arm-eabi/lib/thumb/v7e-m/fpv4-sp/hard/libc.a(lib_a-reent.o)

Memory Configuration

Name             Origin             Length             Attributes
flash            0x0000000008000000 0x0000000000200000 xr
sram123          0x0000000020000000 0x0000000000030000 xrw
ccm              0x0000000010000000 0x0000000000010000 rw
*default*        0x0000000000000000 0xffffffffffffffff

Linker script and memory map

LOAD unit01.o
LOAD b__unit01.o
LOAD /home/aquox/Scrivania/Arm/edf-ravenscar-arm/build/system.o
LOAD /home/aquox/Scrivania/Arm/edf-ravenscar-arm/build/s-bb.o
LOAD /home/aquox/Scrivania/Arm/edf-ravenscar-arm/build/s-bbpara.o
LOAD /home/aquox/Scrivania/Arm/edf-ravenscar-arm/build/s-multip.o
LOAD /home/aquox/Scrivania/Arm/edf-ravenscar-arm/build/s-bbbosu.o
LOAD /home/aquox/Scrivania/Arm/edf-ravenscar-arm/build/s-bbdead.o
LOAD /home/aquox/Scrivania/Arm/edf-ravenscar-arm/build/s-bbtiev.o
LOAD /home/aquox/Scrivania/Arm/edf-ravenscar-arm/build/s-bbthqu.o
LOAD /home/aquox/Scrivania/Arm/edf-ravenscar-arm/build/s-bbprot.o
LOAD /home/aquox/Scrivania/Arm/edf-ravenscar-arm/build/s-bbthre.o
LOAD /home/aquox/Scrivania/Arm/edf-ravenscar-arm/build/s-bbinte.o
LOAD /home/aquox/Scrivania/Arm/edf-ravenscar-arm/build/s-bbcppr.o
LOAD /home/aquox/Scrivania/Arm/edf-ravenscar-arm/build/s-osinte.o
LOAD /home/aquox/Scrivania/Arm/edf-ravenscar-arm/build/a-elchha.o
LOAD /home/aquox/Scrivania/Arm/edf-ravenscar-arm/build/s-taspri.o
LOAD /home/aquox/Scrivania/Arm/edf-ravenscar-arm/build/s-tasdeb.o
LOAD /home/aquox/Scrivania/Arm/edf-ravenscar-arm/build/s-taskin.o
LOAD /home/aquox/Scrivania/Arm/edf-ravenscar-arm/build/s-soflin.o
LOAD /home/aquox/Scrivania/Arm/edf-ravenscar-arm/build/s-bbtime.o
LOAD /home/aquox/Scrivania/Arm/edf-ravenscar-arm/build/s-mufalo.o
LOAD /home/aquox/Scrivania/Arm/edf-ravenscar-arm/build/s-taprop.o
LOAD /home/aquox/Scrivania/Arm/edf-ravenscar-arm/build/a-reatim.o
LOAD /home/aquox/Scrivania/Arm/edf-ravenscar-arm/build/a-retide.o
LOAD /home/aquox/Scrivania/Arm/edf-ravenscar-arm/build/s-tasres.o
LOAD /home/aquox/Scrivania/Arm/edf-ravenscar-arm/build/s-tarest.o
LOAD /home/aquox/Scrivania/Arm/edf-ravenscar-arm/build/system_time.o
LOAD /home/aquox/Scrivania/Arm/edf-ravenscar-arm/build/print_task.o
LOAD /home/aquox/Scrivania/Arm/edf-ravenscar-arm/build/cyclic_tasks.o
LOAD /usr/local/gnat-arm/arm-eabi/lib/gnat/ravenscar-full-stm32f429disco/adalib/libgnarl.a
LOAD /usr/local/gnat-arm/arm-eabi/lib/gnat/ravenscar-full-stm32f429disco/adalib/libgnat.a
LOAD /usr/local/gnat-arm/arm-eabi/lib/gnat/ravenscar-full-stm32f429disco/adalib//libgnat.a
LOAD /usr/local/gnat-arm/bin/../lib/gcc/arm-eabi/7.3.1/../../../../arm-eabi/lib/thumb/v7e-m/fpv4-sp/hard/libc.a
LOAD /usr/local/gnat-arm/bin/../lib/gcc/arm-eabi/7.3.1/thumb/v7e-m/fpv4-sp/hard/libgcc.a
LOAD /usr/local/gnat-arm/arm-eabi/lib/gnat/ravenscar-full-stm32f429disco/adalib//libgnat.a
START GROUP
LOAD /usr/local/gnat-arm/bin/../lib/gcc/arm-eabi/7.3.1/thumb/v7e-m/fpv4-sp/hard/libgcc.a
LOAD /usr/local/gnat-arm/bin/../lib/gcc/arm-eabi/7.3.1/../../../../arm-eabi/lib/thumb/v7e-m/fpv4-sp/hard/libc.a
END GROUP
                0x0000000000000000                __DYNAMIC = 0x0
                0x0000000000001000                _DEFAULT_STACK_SIZE = 0x1000

.text           0x0000000008000000     0xe2fc
 *(.vectors)
 .vectors       0x0000000008000000       0x14 /usr/local/gnat-arm/arm-eabi/lib/gnat/ravenscar-full-stm32f429disco/adalib/libgnat.a(start-rom.o)
 *(.text .text.* .gnu.linkonce.t*)
 .text          0x0000000008000014        0x8 unit01.o
                0x0000000008000014                _ada_unit01
 .text          0x000000000800001c      0x278 b__unit01.o
                0x000000000800001c                ada_main__Tsec_default_sized_stacksBIP
                0x0000000008000060                adafinal
                0x000000000800008c                adainit
                0x0000000008000248                main
                0x0000000008000278                ada_main___elabb
 .text          0x0000000008000294        0x0 /home/aquox/Scrivania/Arm/edf-ravenscar-arm/build/system.o
 .text          0x0000000008000294        0x0 /home/aquox/Scrivania/Arm/edf-ravenscar-arm/build/s-bb.o
 .text          0x0000000008000294        0x0 /home/aquox/Scrivania/Arm/edf-ravenscar-arm/build/s-bbpara.o
 .text          0x0000000008000294       0x10 /home/aquox/Scrivania/Arm/edf-ravenscar-arm/build/s-multip.o
                0x0000000008000294                system__multiprocessors__number_of_cpus
 .text          0x00000000080002a4      0x464 /home/aquox/Scrivania/Arm/edf-ravenscar-arm/build/s-bbbosu.o
                0x00000000080002a4                system__bb__board_support__time__max_timer_interval
                0x00000000080002b8                system__bb__board_support__time__read_clock
                0x000000000800032c                system__bb__board_support__time__clear_alarm_interrupt
                0x0000000008000344                system__bb__board_support__time__set_alarm
                0x000000000800039c                system__bb__board_support__time__install_alarm_handler
                0x00000000080003cc                system__bb__board_support__multiprocessors__number_of_cpus
                0x00000000080003e0                system__bb__board_support__multiprocessors__current_cpu
                0x00000000080003f4                system__bb__board_support__multiprocessors__poke_cpu
                0x000000000800040c                system__bb__board_support__multiprocessors__start_all_cpus
                0x000000000800041c                system__bb__board_support__interrupts__install_interrupt_handler
                0x0000000008000480                system__bb__board_support__interrupts__priority_of_interrupt
                0x00000000080004cc                system__bb__board_support__interrupts__power_down
                0x00000000080004dc                system__bb__board_support__interrupts__set_current_priority
                0x00000000080004f8                system__bb__board_support__sys_tick_registersIP
                0x000000000800050c                system__bb__board_support__TipBIP
                0x0000000008000520                system__bb__board_support__initialize_board
                0x000000000800058c                system__bb__board_support__timer_interrupt_handler
                0x000000000800059c                system__bb__board_support__interrupt_handler
                0x00000000080005e8                system__bb__board_support__enable_interrupt_request
                0x000000000800068c                system__bb__board_support__to_pri
                0x00000000080006d0                system__bb__board_support__to_priority
 .text          0x0000000008000708        0x0 /home/aquox/Scrivania/Arm/edf-ravenscar-arm/build/s-bbdead.o
 .text          0x0000000008000708      0x624 /home/aquox/Scrivania/Arm/edf-ravenscar-arm/build/s-bbtiev.o
                0x0000000008000708                system__bb__timing_events__timing_eventIP
                0x000000000800074c                system__bb__timing_events___size
                0x0000000008000768                system__bb__timing_events__timing_eventDF
                0x0000000008000780                system__bb__timing_events__Ttiming_eventCFD
                0x00000000080007b0                system__bb__timing_events__finalize_spec
                0x00000000080007c4                system__bb__timing_events__set_handler
                0x0000000008000864                system__bb__timing_events__cancel_handler
                0x00000000080008e0                system__bb__timing_events__execute_expired_timing_events
                0x0000000008000988                system__bb__timing_events__get_next_timeout
                0x00000000080009cc                system__bb__timing_events__time_of_event
                0x0000000008000ce4                system__bb__timing_events___elabb
                0x0000000008000d10                system__bb__timing_events___elabs
 .text          0x0000000008000d2c     0x14ec /home/aquox/Scrivania/Arm/edf-ravenscar-arm/build/s-bbthqu.o
                0x0000000008000d2c                system__bb__threads__queues__table_recordIP
                0x0000000008000d40                system__bb__threads__queues__Tarray_table_recordBIP
                0x0000000008000d54                system__bb__threads__queues__initialize_task_table
                0x0000000008000df8                system__bb__threads__queues__get_check
                0x0000000008000e44                system__bb__threads__queues__set_check
                0x0000000008000e8c                system__bb__threads__queues__add_dm
                0x0000000008000ef8                system__bb__threads__queues__add_execution
                0x0000000008000f64                system__bb__threads__queues__add_preemption
                0x0000000008000fd0                system__bb__threads__queues__print_table
                0x0000000008001188                system__bb__threads__queues__change_priority
                0x00000000080011c8                system__bb__threads__queues__set_priority_for_print
                0x0000000008001208                system__bb__threads__queues__change_fake_number_id
                0x0000000008001234                system__bb__threads__queues__change_relative_deadline
                0x0000000008001424                system__bb__threads__queues__change_absolute_deadline
                0x00000000080014ac                system__bb__threads__queues__change_period
                0x00000000080014e8                system__bb__threads__queues__change_starting_time
                0x0000000008001524                __gnat_context_switch_needed
                0x0000000008001718                system__bb__threads__queues__current_relative_deadline
                0x0000000008001778                system__bb__threads__queues__current_absolute_deadline
                0x00000000080017d8                system__bb__threads__queues__extract
                0x0000000008001844                system__bb__threads__queues__extract_first_alarm
                0x00000000080018c4                system__bb__threads__queues__first_thread
                0x00000000080018e4                system__bb__threads__queues__get_next_alarm_time
                0x000000000800192c                system__bb__threads__queues__insert
                0x0000000008001be4                system__bb__threads__queues__insert_alarm
                0x0000000008001d94                system__bb__threads__queues__running_thread
                0x0000000008001db4                system__bb__threads__queues__wakeup_expired_alarms
                0x0000000008001f34                system__bb__threads__queues__yield
 .text          0x0000000008002218       0x60 /home/aquox/Scrivania/Arm/edf-ravenscar-arm/build/s-bbprot.o
                0x0000000008002218                system__bb__protection__enter_kernel
                0x0000000008002224                system__bb__protection__leave_kernel
 .text          0x0000000008002278      0x784 /home/aquox/Scrivania/Arm/edf-ravenscar-arm/build/s-bbthre.o
                0x0000000008002278                system__bb__threads__thread_descriptorIP
                0x00000000080022ac                system__bb__threads__get_affinity
                0x00000000080022d8                system__bb__threads__get_cpu
                0x000000000800232c                system__bb__threads__get_atcb
                0x0000000008002350                system__bb__threads__get_relative_deadline
                0x000000000800237c                system__bb__threads__get_absolute_deadline
                0x0000000008002564                system__bb__threads__initialize
                0x0000000008002688                system__bb__threads__initialize_slave
                0x0000000008002718                system__bb__threads__set_atcb
                0x0000000008002744                system__bb__threads__set_priority
                0x0000000008002784                system__bb__threads__set_fake_number_id
                0x00000000080027a8                system__bb__threads__set_relative_deadline
                0x00000000080027d0                system__bb__threads__restore_relative_deadline
                0x0000000008002808                system__bb__threads__set_absolute_deadline
                0x0000000008002830                system__bb__threads__set_period
                0x0000000008002858                system__bb__threads__set_starting_time
                0x0000000008002880                system__bb__threads(short, long,...)(...)( *)
                0x00000000080028f4                system__bb__threads__thread_create
                0x0000000008002948                system__bb__threads__thread_self
                0x0000000008002958                system__bb__threads__wakeup
 .text          0x00000000080029fc      0x2a0 /home/aquox/Scrivania/Arm/edf-ravenscar-arm/build/s-bbinte.o
                0x00000000080029fc                system__bb__interrupts__Tinterrupt_stacksBIP
                0x0000000008002a10                system__bb__interrupts__Tinterrupt_stack_tableBIP
                0x0000000008002a24                system__bb__interrupts__attach_handler
                0x0000000008002a68                system__bb__interrupts__current_interrupt
                0x0000000008002ab8                system__bb__interrupts__interrupt_wrapper
                0x0000000008002c00                system__bb__interrupts__within_interrupt_stack
                0x0000000008002c48                system__bb__interrupts__initialize_interrupts
 .text          0x0000000008002c9c      0x468 /home/aquox/Scrivania/Arm/edf-ravenscar-arm/build/s-bbcppr.o
                0x0000000008002c9c                system__bb__cpu_primitives__Tcontext_bufferBIP
                0x0000000008002cb0                system__bb__cpu_primitives__hardware_contextIP
                0x0000000008002cc4                primask
                0x0000000008002ce0                system__bb__cpu_primitives__initialize_cpu
                0x0000000008002d74                system__bb__cpu_primitives__context_switch
                0x0000000008002d80                system__bb__cpu_primitives__get_context
                0x0000000008002da4                system__bb__cpu_primitives__gnat_error_handler
                0x0000000008002e80                __gnat_irq_trap
                0x0000000008002ed4                __gnat_sv_call_trap
                0x0000000008002ee0                system__bb__cpu_primitives__set_context
                0x0000000008002f18                __gnat_sys_tick_trap
                0x0000000008002fb4                system__bb__cpu_primitives__initialize_context
                0x0000000008003030                system__bb__cpu_primitives__install_error_handlers
                0x0000000008003098                system__bb__cpu_primitives__install_trap_handler
                0x00000000080030d4                system__bb__cpu_primitives__disable_interrupts
                0x00000000080030e4                system__bb__cpu_primitives__enable_interrupts
 .text          0x0000000008003104        0x0 /home/aquox/Scrivania/Arm/edf-ravenscar-arm/build/s-osinte.o
 .text          0x0000000008003104      0x2b0 /home/aquox/Scrivania/Arm/edf-ravenscar-arm/build/a-elchha.o
                0x0000000008003120                __gnat_last_chance_handler
 .text          0x00000000080033b4       0x28 /home/aquox/Scrivania/Arm/edf-ravenscar-arm/build/s-taspri.o
                0x00000000080033b4                system__task_primitives__private_dataIP
 .text          0x00000000080033dc       0x4c /home/aquox/Scrivania/Arm/edf-ravenscar-arm/build/s-tasdeb.o
                0x00000000080033dc                system__tasking__debug__add_task_id
 .text          0x0000000008003428      0x2e8 /home/aquox/Scrivania/Arm/edf-ravenscar-arm/build/s-taskin.o
                0x0000000008003428                system__tasking__E5sIP
                0x0000000008003440                system__tasking__entry_queueIP
                0x0000000008003460                system__tasking__activation_chainIP
                0x0000000008003478                __gnat_get_secondary_stack
                0x000000000800349c                system__tasking__initialize_atcb
                0x00000000080035bc                system__tasking__initialize
                0x0000000008003694                system__tasking(short,...)(long, float)
                0x00000000080036a4                system__tasking__set_priority
                0x00000000080036e4                system__tasking__storage_size
 .text          0x0000000008003710      0x1fc /home/aquox/Scrivania/Arm/edf-ravenscar-arm/build/s-soflin.o
                0x0000000008003710                system__soft_links__abort_defer_raven
                0x0000000008003720                system__soft_links__abort_undefer_raven
                0x0000000008003730                system__soft_links__get_current_excep_soft
                0x0000000008003754                system__soft_links__get_gnat_exception
                0x000000000800376c                system__soft_links__adafinal_soft
                0x0000000008003784                system__soft_links__task_lock_soft
                0x00000000080037ec                system__soft_links__task_termination_soft
                0x000000000800389c                system__soft_links__task_unlock_soft
                0x00000000080038fc                system__soft_links___elabs
 *fill*         0x000000000800390c        0x4 
 .text          0x0000000008003910     0x1000 /home/aquox/Scrivania/Arm/edf-ravenscar-arm/build/s-bbtime.o
                0x0000000008003910                system__bb__time__composite_execution_timeIP
                0x0000000008003924                system__bb__time__composite_timeIP
                0x00000000080039b4                system__bb__time__clock
                0x0000000008003a60                system__bb__time__delay_until
                0x0000000008003b78                system__bb__time__epoch
                0x0000000008003b90                system__bb__time__get_next_timeout
                0x0000000008003be0                system__bb__time__initialize_timers
                0x0000000008003c7c                system__bb__time__update_alarm
                0x0000000008003db8                system__bb__time__Omultiply
                0x0000000008003ebc                system__bb__time__Omultiply__2
                0x0000000008003ee4                system__bb__time__Oadd
                0x0000000008003fd4                system__bb__time__Oadd__2
                0x00000000080040c4                system__bb__time__Oadd__3
                0x0000000008004124                system__bb__time__Osubtract
                0x0000000008004210                system__bb__time__Osubtract__2
                0x0000000008004314                system__bb__time__Osubtract__3
                0x0000000008004374                system__bb__time__Osubtract__4
                0x00000000080043b0                system__bb__time(double &&, int, void, int, double,...)
                0x0000000008004434                system__bb__time__Odivide__2
                0x0000000008004498                system__bb__time__microseconds
                0x00000000080044e0                system__bb__time__milliseconds
                0x0000000008004754                system__bb__time__nanoseconds
                0x000000000800485c                system__bb__time__to_duration
                0x000000000800488c                system__bb__time__to_time_span
                0x00000000080048bc                system__bb__time__Oconcat
 .text          0x0000000008004910      0x1a4 /home/aquox/Scrivania/Arm/edf-ravenscar-arm/build/s-mufalo.o
                0x0000000008004910                system__multiprocessors__fair_locks__Tspinning_arrayBIP
                0x0000000008004924                system__multiprocessors__fair_locks__fair_lockIP
                0x0000000008004944                system__multiprocessors__fair_locks__initialize
                0x0000000008004964                system__multiprocessors__fair_locks__lock
                0x00000000080049f4                system__multiprocessors__fair_locks__locked
                0x0000000008004a14                system__multiprocessors__fair_locks__next_spinning
                0x0000000008004a38                system__multiprocessors__fair_locks__try_lock
                0x0000000008004a5c                system__multiprocessors__fair_locks__unlock
 .text          0x0000000008004ab4      0x6f4 /home/aquox/Scrivania/Arm/edf-ravenscar-arm/build/s-taprop.o
                0x0000000008004ab4                system__task_primitives__operations__Tidle_stacksBIP
                0x0000000008004ac8                system__task_primitives__operations__Tidle_stacks_tableBIP
                0x0000000008004adc                system__task_primitives__operations__Tidle_tasksBIP
                0x0000000008004af0                system__task_primitives__operations(short,...)(long, float)
                0x0000000008004b00                system__task_primitives__operations(short, long,...)(...)( *)
                0x0000000008004b18                system__task_primitives__operations__delay_until
                0x0000000008004b5c                system__task_primitives__operations__monotonic_clock
                0x0000000008004b70                system__task_primitives__operations__wakeup
                0x0000000008004ba0                system__task_primitives__operations__set_relative_deadline
                0x0000000008004bbc                system__task_primitives__operations__restore_relative_deadline
                0x0000000008004bd8                system__task_primitives__operations__get_relative_deadline
                0x0000000008004c10                system__task_primitives__operations__set_absolute_deadline
                0x0000000008004c2c                system__task_primitives__operations__get_absolute_deadline
                0x0000000008004c64                system__task_primitives__operations__set_period
                0x0000000008004c80                system__task_primitives__operations__set_starting_time
                0x0000000008004c9c                system__task_primitives__operations__get_affinity
                0x0000000008004cd0                system__task_primitives__operations__get_cpu
                0x0000000008004d04                system__task_primitives__operations__get_thread_id
                0x0000000008004d30                system__task_primitives__operations__enter_task
                0x0000000008004d84                system__task_primitives__operations(int, double, long,...)
                0x0000000008004dc0                system__task_primitives__operations__initialize_tcb
                0x0000000008004ddc                __gnat_initialize_slave
                0x0000000008004e98                system__task_primitives__operations__create_task
                0x0000000008004f34                system__task_primitives__operations__initialize
                0x000000000800507c                system__task_primitives__operations__initialize_idle
                0x000000000800518c                system__task_primitives__operations__is_task_context
 .text          0x00000000080051a8      0xda4 /home/aquox/Scrivania/Arm/edf-ravenscar-arm/build/a-reatim.o
                0x00000000080051a8                ada__real_time__Oadd__2
                0x00000000080051d4                ada__real_time__Omultiply
                0x00000000080052d4                ada__real_time__Omultiply__2
                0x00000000080052fc                ada__real_time__Oadd
                0x00000000080053e8                ada__real_time__Oadd__3
                0x0000000008005444                ada__real_time__Osubtract
                0x000000000800552c                ada__real_time__Osubtract__2
                0x0000000008005630                ada__real_time__Osubtract__3
                0x0000000008005690                ada__real_time__Osubtract__4
                0x00000000080056cc                ada__real_time(double &&, int, void, int, double,...)
                0x0000000008005750                ada__real_time__Odivide__2
                0x00000000080057b4                ada__real_time__clock
                0x00000000080057c8                ada__real_time__microseconds
                0x0000000008005810                ada__real_time__milliseconds
                0x0000000008005858                ada__real_time__minutes
                0x0000000008005b54                ada__real_time__nanoseconds
                0x0000000008005ba4                ada__real_time__rounded_div
                0x0000000008005c5c                ada__real_time__seconds
                0x0000000008005c94                ada__real_time__split
                0x0000000008005d1c                ada__real_time__time_of
                0x0000000008005ee0                ada__real_time__to_duration
                0x0000000008005f10                ada__real_time__to_time_span
                0x0000000008005f40                ada__real_time___elabb
 .text          0x0000000008005f4c       0x60 /home/aquox/Scrivania/Arm/edf-ravenscar-arm/build/a-retide.o
                0x0000000008005f4c                ada__real_time__delays__delay_until
                0x0000000008005f8c                ada__real_time__delays__to_duration
 .text          0x0000000008005fac        0x0 /home/aquox/Scrivania/Arm/edf-ravenscar-arm/build/s-tasres.o
 .text          0x0000000008005fac      0x528 /home/aquox/Scrivania/Arm/edf-ravenscar-arm/build/s-tarest.o
                0x0000000008006094                __gnat_activate_all_tasks
                0x00000000080060b0                system__tasking__restricted__stages__activate_restricted_tasks
                0x00000000080061c0                system__tasking__restricted__stages__complete_restricted_activation
                0x00000000080061d0                system__tasking__restricted__stages__complete_restricted_task
                0x0000000008006358                system__tasking__restricted__stages__create_restricted_task
                0x000000000800640c                system__tasking__restricted__stages__create_restricted_task_sequential
                0x000000000800647c                system__tasking__restricted__stages__finalize_global_tasks
                0x0000000008006490                system__tasking__restricted__stages__restricted_terminated
                0x00000000080064c8                system__tasking__restricted__stages___elabb
 .text          0x00000000080064d4       0x30 /home/aquox/Scrivania/Arm/edf-ravenscar-arm/build/system_time.o
                0x00000000080064d4                system_time___elabs
 .text          0x0000000008006504      0x280 /home/aquox/Scrivania/Arm/edf-ravenscar-arm/build/print_task.o
                0x0000000008006504                print_task__printVIP
                0x00000000080065d8                print_task__printTB
                0x000000000800676c                print_task___elabb
 .text          0x0000000008006784      0x3f0 /home/aquox/Scrivania/Arm/edf-ravenscar-arm/build/cyclic_tasks.o
                0x0000000008006784                cyclic_tasks__cyclicVIP
                0x0000000008006864                cyclic_tasks__cyclicTB
                0x0000000008006a68                cyclic_tasks__init
                0x0000000008006a8c                cyclic_tasks___elabb
 .text          0x0000000008006b74        0x0 /usr/local/gnat-arm/arm-eabi/lib/gnat/ravenscar-full-stm32f429disco/adalib/libgnat.a(a-except.o)
 .text.ada__exceptions__exception_occurrenceIP
                0x0000000008006b74       0x14 /usr/local/gnat-arm/arm-eabi/lib/gnat/ravenscar-full-stm32f429disco/adalib/libgnat.a(a-except.o)
                0x0000000008006b74                ada__exceptions__exception_occurrenceIP
 .text.ada__exceptions__exception_data__append_info_addressXn
                0x0000000008006b88       0x5c /usr/local/gnat-arm/arm-eabi/lib/gnat/ravenscar-full-stm32f429disco/adalib/libgnat.a(a-except.o)
                0x0000000008006b88                ada__exceptions__exception_data__append_info_addressXn
 .text.ada__exceptions__exception_data__append_info_basic_exception_informationXn
                0x0000000008006be4       0xec /usr/local/gnat-arm/arm-eabi/lib/gnat/ravenscar-full-stm32f429disco/adalib/libgnat.a(a-except.o)
                0x0000000008006be4                ada__exceptions__exception_data__append_info_basic_exception_informationXn
 .text.ada__exceptions__exception_data__append_info_characterXn
                0x0000000008006cd0       0x24 /usr/local/gnat-arm/arm-eabi/lib/gnat/ravenscar-full-stm32f429disco/adalib/libgnat.a(a-except.o)
                0x0000000008006cd0                ada__exceptions__exception_data__append_info_characterXn
 .text.__gnat_append_info_e_msg
                0x0000000008006cf4       0x60 /usr/local/gnat-arm/arm-eabi/lib/gnat/ravenscar-full-stm32f429disco/adalib/libgnat.a(a-except.o)
                0x0000000008006cf4                __gnat_append_info_e_msg
 .text.ada__exceptions__exception_data__append_info_exception_nameXn
                0x0000000008006d54       0x5c /usr/local/gnat-arm/arm-eabi/lib/gnat/ravenscar-full-stm32f429disco/adalib/libgnat.a(a-except.o)
                0x0000000008006d54                ada__exceptions__exception_data__append_info_exception_nameXn
 .text.ada__exceptions__exception_data__append_info_exception_name__2Xn
                0x0000000008006db0        0xc /usr/local/gnat-arm/arm-eabi/lib/gnat/ravenscar-full-stm32f429disco/adalib/libgnat.a(a-except.o)
                0x0000000008006db0                Xn::ada__exceptions__exception_data__append_info_exception_name(void)
 .text.ada__exceptions__exception_data__exception_info_maxlengthXn
                0x0000000008006dbc       0x14 /usr/local/gnat-arm/arm-eabi/lib/gnat/ravenscar-full-stm32f429disco/adalib/libgnat.a(a-except.o)
                0x0000000008006dbc                ada__exceptions__exception_data__exception_info_maxlengthXn
 .text.ada__exceptions__exception_data__append_info_natXn
                0x0000000008006dd0       0x48 /usr/local/gnat-arm/arm-eabi/lib/gnat/ravenscar-full-stm32f429disco/adalib/libgnat.a(a-except.o)
                0x0000000008006dd0                ada__exceptions__exception_data__append_info_natXn
 .text.ada__exceptions__exception_data__append_info_nlXn
                0x0000000008006e18       0x10 /usr/local/gnat-arm/arm-eabi/lib/gnat/ravenscar-full-stm32f429disco/adalib/libgnat.a(a-except.o)
                0x0000000008006e18                ada__exceptions__exception_data__append_info_nlXn
 .text.ada__exceptions__exception_data__append_info_stringXn
                0x0000000008006e28       0x48 /usr/local/gnat-arm/arm-eabi/lib/gnat/ravenscar-full-stm32f429disco/adalib/libgnat.a(a-except.o)
                0x0000000008006e28                ada__exceptions__exception_data__append_info_stringXn
 .text.__gnat_append_info_u_e_info
                0x0000000008006e70       0x1c /usr/local/gnat-arm/arm-eabi/lib/gnat/ravenscar-full-stm32f429disco/adalib/libgnat.a(a-except.o)
                0x0000000008006e70                __gnat_append_info_u_e_info
 .text.ada__exceptions__exception_data__append_info_untailored_exception_tracebackXn
                0x0000000008006e8c       0xc8 /usr/local/gnat-arm/arm-eabi/lib/gnat/ravenscar-full-stm32f429disco/adalib/libgnat.a(a-except.o)
                0x0000000008006e8c                ada__exceptions__exception_data__append_info_untailored_exception_tracebackXn
 .text.ada__exceptions__exception_data__basic_exception_info_maxlengthXn
                0x0000000008006f54       0x18 /usr/local/gnat-arm/arm-eabi/lib/gnat/ravenscar-full-stm32f429disco/adalib/libgnat.a(a-except.o)
                0x0000000008006f54                ada__exceptions__exception_data__basic_exception_info_maxlengthXn
 .text.ada__exceptions__exception_data__exception_informationXn
                0x0000000008006f6c       0xb8 /usr/local/gnat-arm/arm-eabi/lib/gnat/ravenscar-full-stm32f429disco/adalib/libgnat.a(a-except.o)
                0x0000000008006f6c                ada__exceptions__exception_data__exception_informationXn
 .text.__gnat_exception_msg_len
                0x0000000008007024        0x4 /usr/local/gnat-arm/arm-eabi/lib/gnat/ravenscar-full-stm32f429disco/adalib/libgnat.a(a-except.o)
                0x0000000008007024                __gnat_exception_msg_len
 .text.ada__exceptions__exception_data__exception_name_lengthXn
                0x0000000008007028        0x8 /usr/local/gnat-arm/arm-eabi/lib/gnat/ravenscar-full-stm32f429disco/adalib/libgnat.a(a-except.o)
                0x0000000008007028                ada__exceptions__exception_data__exception_name_lengthXn
 .text.ada__exceptions__exception_data__exception_name_length__2Xn
                0x0000000008007030        0xc /usr/local/gnat-arm/arm-eabi/lib/gnat/ravenscar-full-stm32f429disco/adalib/libgnat.a(a-except.o)
                0x0000000008007030                Xn::ada__exceptions__exception_data__exception_name_length(void)
 .text.ada__exceptions__exception_data__untailored_exception_tracebackXn
                0x000000000800703c       0x68 /usr/local/gnat-arm/arm-eabi/lib/gnat/ravenscar-full-stm32f429disco/adalib/libgnat.a(a-except.o)
                0x000000000800703c                ada__exceptions__exception_data__untailored_exception_tracebackXn
 .text.ada__exceptions__exception_data__untailored_exception_informationXn
                0x00000000080070a4       0x68 /usr/local/gnat-arm/arm-eabi/lib/gnat/ravenscar-full-stm32f429disco/adalib/libgnat.a(a-except.o)
                0x00000000080070a4                ada__exceptions__exception_data__untailored_exception_informationXn
 .text.ada__exceptions__exception_data__set_exception_c_msg__append_number.6680
                0x000000000800710c       0x78 /usr/local/gnat-arm/arm-eabi/lib/gnat/ravenscar-full-stm32f429disco/adalib/libgnat.a(a-except.o)
 .text.ada__exceptions__exception_data__set_exception_c_msgXn
                0x0000000008007184       0xa4 /usr/local/gnat-arm/arm-eabi/lib/gnat/ravenscar-full-stm32f429disco/adalib/libgnat.a(a-except.o)
                0x0000000008007184                ada__exceptions__exception_data__set_exception_c_msgXn
 .text.ada__exceptions__exception_data__set_exception_msgXn
                0x0000000008007228       0x48 /usr/local/gnat-arm/arm-eabi/lib/gnat/ravenscar-full-stm32f429disco/adalib/libgnat.a(a-except.o)
                0x0000000008007228                ada__exceptions__exception_data__set_exception_msgXn
 .text.ada__exceptions__exception_data__tailored_exception_tracebackXn
                0x0000000008007270       0x38 /usr/local/gnat-arm/arm-eabi/lib/gnat/ravenscar-full-stm32f429disco/adalib/libgnat.a(a-except.o)
                0x0000000008007270                ada__exceptions__exception_data__tailored_exception_tracebackXn
 .text.ada__exceptions__exception_data__untailored_exception_traceback_maxlengthXn
                0x00000000080072a8       0x10 /usr/local/gnat-arm/arm-eabi/lib/gnat/ravenscar-full-stm32f429disco/adalib/libgnat.a(a-except.o)
                0x00000000080072a8                ada__exceptions__exception_data__untailored_exception_traceback_maxlengthXn
 .text.ada__exceptions__exception_propagation__allocate_occurrenceXn
                0x00000000080072b8       0x14 /usr/local/gnat-arm/arm-eabi/lib/gnat/ravenscar-full-stm32f429disco/adalib/libgnat.a(a-except.o)
                0x00000000080072b8                ada__exceptions__exception_propagation__allocate_occurrenceXn
 .text.ada__exceptions__exception_propagation__gnat_gcc_exception_cleanupXn
                0x00000000080072cc       0x10 /usr/local/gnat-arm/arm-eabi/lib/gnat/ravenscar-full-stm32f429disco/adalib/libgnat.a(a-except.o)
                0x00000000080072cc                ada__exceptions__exception_propagation__gnat_gcc_exception_cleanupXn
 .text.ada__exceptions__exception_propagation__set_foreign_occurrenceXn
                0x00000000080072dc       0x28 /usr/local/gnat-arm/arm-eabi/lib/gnat/ravenscar-full-stm32f429disco/adalib/libgnat.a(a-except.o)
                0x00000000080072dc                ada__exceptions__exception_propagation__set_foreign_occurrenceXn
 .text.__gnat_setup_current_excep
                0x0000000008007304       0x38 /usr/local/gnat-arm/arm-eabi/lib/gnat/ravenscar-full-stm32f429disco/adalib/libgnat.a(a-except.o)
                0x0000000008007304                __gnat_setup_current_excep
 .text.__gnat_begin_handler
                0x000000000800733c        0x4 /usr/local/gnat-arm/arm-eabi/lib/gnat/ravenscar-full-stm32f429disco/adalib/libgnat.a(a-except.o)
                0x000000000800733c                __gnat_begin_handler
 .text.__gnat_end_handler
                0x0000000008007340        0xc /usr/local/gnat-arm/arm-eabi/lib/gnat/ravenscar-full-stm32f429disco/adalib/libgnat.a(a-except.o)
                0x0000000008007340                __gnat_end_handler
 .text.__gnat_reraise_zcx
                0x000000000800734c        0x8 /usr/local/gnat-arm/arm-eabi/lib/gnat/ravenscar-full-stm32f429disco/adalib/libgnat.a(a-except.o)
                0x000000000800734c                __gnat_reraise_zcx
 .text.ada__exceptions__exception_propagation__propagate_gcc_exceptionXn
                0x0000000008007354       0x28 /usr/local/gnat-arm/arm-eabi/lib/gnat/ravenscar-full-stm32f429disco/adalib/libgnat.a(a-except.o)
                0x0000000008007354                ada__exceptions__exception_propagation__propagate_gcc_exceptionXn
 .text.ada__exceptions__exception_propagation__propagate_exceptionXn
                0x000000000800737c        0x8 /usr/local/gnat-arm/arm-eabi/lib/gnat/ravenscar-full-stm32f429disco/adalib/libgnat.a(a-except.o)
                0x000000000800737c                ada__exceptions__exception_propagation__propagate_exceptionXn
 .text.__gnat_set_exception_parameter
                0x0000000008007384       0x2c /usr/local/gnat-arm/arm-eabi/lib/gnat/ravenscar-full-stm32f429disco/adalib/libgnat.a(a-except.o)
                0x0000000008007384                __gnat_set_exception_parameter
 .text.__gnat_unhandled_except_handler
                0x00000000080073b0        0xc /usr/local/gnat-arm/arm-eabi/lib/gnat/ravenscar-full-stm32f429disco/adalib/libgnat.a(a-except.o)
                0x00000000080073b0                __gnat_unhandled_except_handler
 .text.__gnat_eid_for
                0x00000000080073bc        0x4 /usr/local/gnat-arm/arm-eabi/lib/gnat/ravenscar-full-stm32f429disco/adalib/libgnat.a(a-except.o)
                0x00000000080073bc                __gnat_eid_for
 .text.__gnat_foreign_data_for
                0x00000000080073c0        0x4 /usr/local/gnat-arm/arm-eabi/lib/gnat/ravenscar-full-stm32f429disco/adalib/libgnat.a(a-except.o)
                0x00000000080073c0                __gnat_foreign_data_for
 .text.__gnat_is_handled_by_others
                0x00000000080073c4        0x8 /usr/local/gnat-arm/arm-eabi/lib/gnat/ravenscar-full-stm32f429disco/adalib/libgnat.a(a-except.o)
                0x00000000080073c4                __gnat_is_handled_by_others
 .text.__gnat_language_for
                0x00000000080073cc        0x4 /usr/local/gnat-arm/arm-eabi/lib/gnat/ravenscar-full-stm32f429disco/adalib/libgnat.a(a-except.o)
                0x00000000080073cc                __gnat_language_for
 .text.ada__exceptions__exception_traces__notify_exception__B281b___finalizerXn.6941
                0x00000000080073d0        0xc /usr/local/gnat-arm/arm-eabi/lib/gnat/ravenscar-full-stm32f429disco/adalib/libgnat.a(a-except.o)
 .text.ada__exceptions__exception_traces__notify_exceptionXn
                0x00000000080073dc      0x108 /usr/local/gnat-arm/arm-eabi/lib/gnat/ravenscar-full-stm32f429disco/adalib/libgnat.a(a-except.o)
                0x00000000080073dc                ada__exceptions__exception_traces__notify_exceptionXn
 .text.__gnat_notify_handled_exception
                0x00000000080074e4        0xc /usr/local/gnat-arm/arm-eabi/lib/gnat/ravenscar-full-stm32f429disco/adalib/libgnat.a(a-except.o)
                0x00000000080074e4                __gnat_notify_handled_exception
 .text.__gnat_notify_unhandled_exception
                0x00000000080074f0       0x20 /usr/local/gnat-arm/arm-eabi/lib/gnat/ravenscar-full-stm32f429disco/adalib/libgnat.a(a-except.o)
                0x00000000080074f0                __gnat_notify_unhandled_exception
 .text.ada__exceptions__exception_traces__unhandled_exception_terminateXn
                0x0000000008007510       0x1c /usr/local/gnat-arm/arm-eabi/lib/gnat/ravenscar-full-stm32f429disco/adalib/libgnat.a(a-except.o)
                0x0000000008007510                ada__exceptions__exception_traces__unhandled_exception_terminateXn
 .text.ada__exceptions__stream_attributes__eid_to_stringXn
                0x000000000800752c       0x34 /usr/local/gnat-arm/arm-eabi/lib/gnat/ravenscar-full-stm32f429disco/adalib/libgnat.a(a-except.o)
                0x000000000800752c                ada__exceptions__stream_attributes__eid_to_stringXn
 .text.ada__exceptions__stream_attributes__eo_to_stringXn
                0x0000000008007560       0x38 /usr/local/gnat-arm/arm-eabi/lib/gnat/ravenscar-full-stm32f429disco/adalib/libgnat.a(a-except.o)
                0x0000000008007560                ada__exceptions__stream_attributes__eo_to_stringXn
 .text.ada__exceptions__stream_attributes__string_to_eidXn
                0x0000000008007598       0x18 /usr/local/gnat-arm/arm-eabi/lib/gnat/ravenscar-full-stm32f429disco/adalib/libgnat.a(a-except.o)
                0x0000000008007598                ada__exceptions__stream_attributes__string_to_eidXn
 .text.ada__exceptions__stream_attributes__string_to_eo__bad_eo.6986
                0x00000000080075b0       0x18 /usr/local/gnat-arm/arm-eabi/lib/gnat/ravenscar-full-stm32f429disco/adalib/libgnat.a(a-except.o)
 .text.ada__exceptions__stream_attributes__string_to_eoXn
                0x00000000080075c8      0x278 /usr/local/gnat-arm/arm-eabi/lib/gnat/ravenscar-full-stm32f429disco/adalib/libgnat.a(a-except.o)
                0x00000000080075c8                ada__exceptions__stream_attributes__string_to_eoXn
 .text.ada__exceptions__stream_attributes__string_to_eo__next_string.6988
                0x0000000008007840       0x64 /usr/local/gnat-arm/arm-eabi/lib/gnat/ravenscar-full-stm32f429disco/adalib/libgnat.a(a-except.o)
 .text.ada__exceptions__poll
                0x00000000080078a4        0x4 /usr/local/gnat-arm/arm-eabi/lib/gnat/ravenscar-full-stm32f429disco/adalib/libgnat.a(a-except.o)
                0x00000000080078a4                ada__exceptions__poll
 .text.ada__exceptions__code_address_for_aaa
                0x00000000080078a8        0x8 /usr/local/gnat-arm/arm-eabi/lib/gnat/ravenscar-full-stm32f429disco/adalib/libgnat.a(a-except.o)
                0x00000000080078a8                ada__exceptions__code_address_for_aaa
 .text.ada__exceptions__call_chain
                0x00000000080078b0       0x4c /usr/local/gnat-arm/arm-eabi/lib/gnat/ravenscar-full-stm32f429disco/adalib/libgnat.a(a-except.o)
                0x00000000080078b0                ada__exceptions__call_chain
 .text.ada__exceptions__eid_to_string
                0x00000000080078fc       0x1c /usr/local/gnat-arm/arm-eabi/lib/gnat/ravenscar-full-stm32f429disco/adalib/libgnat.a(a-except.o)
                0x00000000080078fc                ada__exceptions__eid_to_string
 .text.ada__exceptions__eo_to_string
                0x0000000008007918       0x1c /usr/local/gnat-arm/arm-eabi/lib/gnat/ravenscar-full-stm32f429disco/adalib/libgnat.a(a-except.o)
                0x0000000008007918                ada__exceptions__eo_to_string
 .text.ada__exceptions__exception_identity
                0x0000000008007934        0x4 /usr/local/gnat-arm/arm-eabi/lib/gnat/ravenscar-full-stm32f429disco/adalib/libgnat.a(a-except.o)
                0x0000000008007934                ada__exceptions__exception_identity
 .text.ada__exceptions__exception_information
                0x0000000008007938       0x2c /usr/local/gnat-arm/arm-eabi/lib/gnat/ravenscar-full-stm32f429disco/adalib/libgnat.a(a-except.o)
                0x0000000008007938                ada__exceptions__exception_information
 .text.ada__exceptions__exception_message
                0x0000000008007964       0x54 /usr/local/gnat-arm/arm-eabi/lib/gnat/ravenscar-full-stm32f429disco/adalib/libgnat.a(a-except.o)
                0x0000000008007964                ada__exceptions__exception_message
 .text.ada__exceptions__exception_name
                0x00000000080079b8       0x4c /usr/local/gnat-arm/arm-eabi/lib/gnat/ravenscar-full-stm32f429disco/adalib/libgnat.a(a-except.o)
                0x00000000080079b8                ada__exceptions__exception_name
 .text.ada__exceptions__exception_name__2
                0x0000000008007a04       0x1c /usr/local/gnat-arm/arm-eabi/lib/gnat/ravenscar-full-stm32f429disco/adalib/libgnat.a(a-except.o)
                0x0000000008007a04                ada__exceptions__exception_name__2
 .text.ada__exceptions__exception_name_simple
                0x0000000008007a20       0x8c /usr/local/gnat-arm/arm-eabi/lib/gnat/ravenscar-full-stm32f429disco/adalib/libgnat.a(a-except.o)
                0x0000000008007a20                ada__exceptions__exception_name_simple
 .text.__gnat_get_exception_machine_occurrence
                0x0000000008007aac        0x4 /usr/local/gnat-arm/arm-eabi/lib/gnat/ravenscar-full-stm32f429disco/adalib/libgnat.a(a-except.o)
                0x0000000008007aac                __gnat_get_exception_machine_occurrence
 .text.ada__exceptions__image
                0x0000000008007ab0       0x88 /usr/local/gnat-arm/arm-eabi/lib/gnat/ravenscar-full-stm32f429disco/adalib/libgnat.a(a-except.o)
                0x0000000008007ab0                ada__exceptions__image
 .text.__gnat_raise_constraint_error
                0x0000000008007b38       0x18 /usr/local/gnat-arm/arm-eabi/lib/gnat/ravenscar-full-stm32f429disco/adalib/libgnat.a(a-except.o)
                0x0000000008007b38                __gnat_raise_constraint_error
 .text.__gnat_raise_constraint_error_msg
                0x0000000008007b50       0x18 /usr/local/gnat-arm/arm-eabi/lib/gnat/ravenscar-full-stm32f429disco/adalib/libgnat.a(a-except.o)
                0x0000000008007b50                __gnat_raise_constraint_error_msg
 .text.ada__exceptions__complete_occurrence
                0x0000000008007b68       0x24 /usr/local/gnat-arm/arm-eabi/lib/gnat/ravenscar-full-stm32f429disco/adalib/libgnat.a(a-except.o)
                0x0000000008007b68                ada__exceptions__complete_occurrence
 .text.ada__exceptions__complete_and_propagate_occurrence
                0x0000000008007b8c       0x10 /usr/local/gnat-arm/arm-eabi/lib/gnat/ravenscar-full-stm32f429disco/adalib/libgnat.a(a-except.o)
                0x0000000008007b8c                ada__exceptions__complete_and_propagate_occurrence
 .text.ada__exceptions__raise_exception
                0x0000000008007b9c       0x14 /usr/local/gnat-arm/arm-eabi/lib/gnat/ravenscar-full-stm32f429disco/adalib/libgnat.a(a-except.o)
                0x0000000008007b9c                ada__exceptions__raise_exception
 .text.__gnat_raise_exception
                0x0000000008007bb0       0x20 /usr/local/gnat-arm/arm-eabi/lib/gnat/ravenscar-full-stm32f429disco/adalib/libgnat.a(a-except.o)
                0x0000000008007bb0                __gnat_raise_exception
 .text.ada__exceptions__raise_exception_no_defer
                0x0000000008007bd0       0x20 /usr/local/gnat-arm/arm-eabi/lib/gnat/ravenscar-full-stm32f429disco/adalib/libgnat.a(a-except.o)
                0x0000000008007bd0                ada__exceptions__raise_exception_no_defer
 .text.ada__exceptions__raise_from_controlled_operation___finalizer.7202
                0x0000000008007bf0        0xc /usr/local/gnat-arm/arm-eabi/lib/gnat/ravenscar-full-stm32f429disco/adalib/libgnat.a(a-except.o)
 .text.__gnat_raise_from_controlled_operation
                0x0000000008007bfc      0x188 /usr/local/gnat-arm/arm-eabi/lib/gnat/ravenscar-full-stm32f429disco/adalib/libgnat.a(a-except.o)
                0x0000000008007bfc                __gnat_raise_from_controlled_operation
 .text.ada__exceptions__raise_from_controlled_operation__B_3___finalizer.7237
                0x0000000008007d84        0xc /usr/local/gnat-arm/arm-eabi/lib/gnat/ravenscar-full-stm32f429disco/adalib/libgnat.a(a-except.o)
 .text.ada__exceptions__create_occurrence_from_signal_handler
                0x0000000008007d90       0x28 /usr/local/gnat-arm/arm-eabi/lib/gnat/ravenscar-full-stm32f429disco/adalib/libgnat.a(a-except.o)
                0x0000000008007d90                ada__exceptions__create_occurrence_from_signal_handler
 .text.__gnat_create_machine_occurrence_from_signal_handler
                0x0000000008007db8        0xc /usr/local/gnat-arm/arm-eabi/lib/gnat/ravenscar-full-stm32f429disco/adalib/libgnat.a(a-except.o)
                0x0000000008007db8                __gnat_create_machine_occurrence_from_signal_handler
 .text.ada__exceptions__raise_from_signal_handler
                0x0000000008007dc4        0xc /usr/local/gnat-arm/arm-eabi/lib/gnat/ravenscar-full-stm32f429disco/adalib/libgnat.a(a-except.o)
                0x0000000008007dc4                ada__exceptions__raise_from_signal_handler
 .text.__gnat_raise_program_error
                0x0000000008007dd0       0x18 /usr/local/gnat-arm/arm-eabi/lib/gnat/ravenscar-full-stm32f429disco/adalib/libgnat.a(a-except.o)
                0x0000000008007dd0                __gnat_raise_program_error
 .text.__gnat_raise_program_error_msg
                0x0000000008007de8       0x18 /usr/local/gnat-arm/arm-eabi/lib/gnat/ravenscar-full-stm32f429disco/adalib/libgnat.a(a-except.o)
                0x0000000008007de8                __gnat_raise_program_error_msg
 .text.__gnat_raise_storage_error
                0x0000000008007e00       0x18 /usr/local/gnat-arm/arm-eabi/lib/gnat/ravenscar-full-stm32f429disco/adalib/libgnat.a(a-except.o)
                0x0000000008007e00                __gnat_raise_storage_error
 .text.__gnat_raise_storage_error_msg
                0x0000000008007e18       0x18 /usr/local/gnat-arm/arm-eabi/lib/gnat/ravenscar-full-stm32f429disco/adalib/libgnat.a(a-except.o)
                0x0000000008007e18                __gnat_raise_storage_error_msg
 .text.ada__exceptions__raise_with_location_and_msg
                0x0000000008007e30       0x2c /usr/local/gnat-arm/arm-eabi/lib/gnat/ravenscar-full-stm32f429disco/adalib/libgnat.a(a-except.o)
                0x0000000008007e30                ada__exceptions__raise_with_location_and_msg
 .text.__gnat_raise_with_msg
                0x0000000008007e5c       0x40 /usr/local/gnat-arm/arm-eabi/lib/gnat/ravenscar-full-stm32f429disco/adalib/libgnat.a(a-except.o)
                0x0000000008007e5c                __gnat_raise_with_msg
 .text.__gnat_rcheck_CE_Access_Check
                0x0000000008007e9c       0x10 /usr/local/gnat-arm/arm-eabi/lib/gnat/ravenscar-full-stm32f429disco/adalib/libgnat.a(a-except.o)
                0x0000000008007e9c                __gnat_rcheck_CE_Access_Check
 .text.__gnat_rcheck_CE_Null_Access_Parameter
                0x0000000008007eac       0x10 /usr/local/gnat-arm/arm-eabi/lib/gnat/ravenscar-full-stm32f429disco/adalib/libgnat.a(a-except.o)
                0x0000000008007eac                __gnat_rcheck_CE_Null_Access_Parameter
 .text.__gnat_rcheck_CE_Discriminant_Check
                0x0000000008007ebc       0x10 /usr/local/gnat-arm/arm-eabi/lib/gnat/ravenscar-full-stm32f429disco/adalib/libgnat.a(a-except.o)
                0x0000000008007ebc                __gnat_rcheck_CE_Discriminant_Check
 .text.__gnat_rcheck_CE_Divide_By_Zero
                0x0000000008007ecc       0x10 /usr/local/gnat-arm/arm-eabi/lib/gnat/ravenscar-full-stm32f429disco/adalib/libgnat.a(a-except.o)
                0x0000000008007ecc                __gnat_rcheck_CE_Divide_By_Zero
 .text.__gnat_rcheck_CE_Explicit_Raise
                0x0000000008007edc       0x10 /usr/local/gnat-arm/arm-eabi/lib/gnat/ravenscar-full-stm32f429disco/adalib/libgnat.a(a-except.o)
                0x0000000008007edc                __gnat_rcheck_CE_Explicit_Raise
 .text.__gnat_rcheck_CE_Index_Check
                0x0000000008007eec       0x10 /usr/local/gnat-arm/arm-eabi/lib/gnat/ravenscar-full-stm32f429disco/adalib/libgnat.a(a-except.o)
                0x0000000008007eec                __gnat_rcheck_CE_Index_Check
 .text.__gnat_rcheck_CE_Invalid_Data
                0x0000000008007efc       0x10 /usr/local/gnat-arm/arm-eabi/lib/gnat/ravenscar-full-stm32f429disco/adalib/libgnat.a(a-except.o)
                0x0000000008007efc                __gnat_rcheck_CE_Invalid_Data
 .text.__gnat_rcheck_CE_Length_Check
                0x0000000008007f0c       0x10 /usr/local/gnat-arm/arm-eabi/lib/gnat/ravenscar-full-stm32f429disco/adalib/libgnat.a(a-except.o)
                0x0000000008007f0c                __gnat_rcheck_CE_Length_Check
 .text.__gnat_rcheck_CE_Null_Exception_Id
                0x0000000008007f1c       0x10 /usr/local/gnat-arm/arm-eabi/lib/gnat/ravenscar-full-stm32f429disco/adalib/libgnat.a(a-except.o)
                0x0000000008007f1c                __gnat_rcheck_CE_Null_Exception_Id
 .text.__gnat_rcheck_CE_Null_Not_Allowed
                0x0000000008007f2c       0x10 /usr/local/gnat-arm/arm-eabi/lib/gnat/ravenscar-full-stm32f429disco/adalib/libgnat.a(a-except.o)
                0x0000000008007f2c                __gnat_rcheck_CE_Null_Not_Allowed
 .text.__gnat_rcheck_CE_Overflow_Check
                0x0000000008007f3c       0x10 /usr/local/gnat-arm/arm-eabi/lib/gnat/ravenscar-full-stm32f429disco/adalib/libgnat.a(a-except.o)
                0x0000000008007f3c                __gnat_rcheck_CE_Overflow_Check
 .text.__gnat_rcheck_CE_Partition_Check
                0x0000000008007f4c       0x10 /usr/local/gnat-arm/arm-eabi/lib/gnat/ravenscar-full-stm32f429disco/adalib/libgnat.a(a-except.o)
                0x0000000008007f4c                __gnat_rcheck_CE_Partition_Check
 .text.__gnat_rcheck_CE_Range_Check
                0x0000000008007f5c       0x10 /usr/local/gnat-arm/arm-eabi/lib/gnat/ravenscar-full-stm32f429disco/adalib/libgnat.a(a-except.o)
                0x0000000008007f5c                __gnat_rcheck_CE_Range_Check
 .text.__gnat_rcheck_CE_Tag_Check
                0x0000000008007f6c       0x10 /usr/local/gnat-arm/arm-eabi/lib/gnat/ravenscar-full-stm32f429disco/adalib/libgnat.a(a-except.o)
                0x0000000008007f6c                __gnat_rcheck_CE_Tag_Check
 .text.__gnat_rcheck_PE_Access_Before_Elaboration
                0x0000000008007f7c        0xc /usr/local/gnat-arm/arm-eabi/lib/gnat/ravenscar-full-stm32f429disco/adalib/libgnat.a(a-except.o)
                0x0000000008007f7c                __gnat_rcheck_PE_Access_Before_Elaboration
 .text.__gnat_rcheck_PE_Accessibility_Check
                0x0000000008007f88        0xc /usr/local/gnat-arm/arm-eabi/lib/gnat/ravenscar-full-stm32f429disco/adalib/libgnat.a(a-except.o)
                0x0000000008007f88                __gnat_rcheck_PE_Accessibility_Check
 .text.__gnat_rcheck_PE_Address_Of_Intrinsic
                0x0000000008007f94        0xc /usr/local/gnat-arm/arm-eabi/lib/gnat/ravenscar-full-stm32f429disco/adalib/libgnat.a(a-except.o)
                0x0000000008007f94                __gnat_rcheck_PE_Address_Of_Intrinsic
 .text.__gnat_rcheck_PE_Aliased_Parameters
                0x0000000008007fa0        0xc /usr/local/gnat-arm/arm-eabi/lib/gnat/ravenscar-full-stm32f429disco/adalib/libgnat.a(a-except.o)
                0x0000000008007fa0                __gnat_rcheck_PE_Aliased_Parameters
 .text.__gnat_rcheck_PE_All_Guards_Closed
                0x0000000008007fac        0xc /usr/local/gnat-arm/arm-eabi/lib/gnat/ravenscar-full-stm32f429disco/adalib/libgnat.a(a-except.o)
                0x0000000008007fac                __gnat_rcheck_PE_All_Guards_Closed
 .text.__gnat_rcheck_PE_Bad_Predicated_Generic_Type
                0x0000000008007fb8        0xc /usr/local/gnat-arm/arm-eabi/lib/gnat/ravenscar-full-stm32f429disco/adalib/libgnat.a(a-except.o)
                0x0000000008007fb8                __gnat_rcheck_PE_Bad_Predicated_Generic_Type
 .text.__gnat_rcheck_PE_Build_In_Place_Mismatch
                0x0000000008007fc4        0xc /usr/local/gnat-arm/arm-eabi/lib/gnat/ravenscar-full-stm32f429disco/adalib/libgnat.a(a-except.o)
                0x0000000008007fc4                __gnat_rcheck_PE_Build_In_Place_Mismatch
 .text.__gnat_rcheck_PE_Current_Task_In_Entry_Body
                0x0000000008007fd0        0xc /usr/local/gnat-arm/arm-eabi/lib/gnat/ravenscar-full-stm32f429disco/adalib/libgnat.a(a-except.o)
                0x0000000008007fd0                __gnat_rcheck_PE_Current_Task_In_Entry_Body
 .text.__gnat_rcheck_PE_Duplicated_Entry_Address
                0x0000000008007fdc        0xc /usr/local/gnat-arm/arm-eabi/lib/gnat/ravenscar-full-stm32f429disco/adalib/libgnat.a(a-except.o)
                0x0000000008007fdc                __gnat_rcheck_PE_Duplicated_Entry_Address
 .text.__gnat_rcheck_PE_Explicit_Raise
                0x0000000008007fe8        0xc /usr/local/gnat-arm/arm-eabi/lib/gnat/ravenscar-full-stm32f429disco/adalib/libgnat.a(a-except.o)
                0x0000000008007fe8                __gnat_rcheck_PE_Explicit_Raise
 .text.__gnat_rcheck_PE_Implicit_Return
                0x0000000008007ff4        0xc /usr/local/gnat-arm/arm-eabi/lib/gnat/ravenscar-full-stm32f429disco/adalib/libgnat.a(a-except.o)
                0x0000000008007ff4                __gnat_rcheck_PE_Implicit_Return
 .text.__gnat_rcheck_PE_Misaligned_Address_Value
                0x0000000008008000        0xc /usr/local/gnat-arm/arm-eabi/lib/gnat/ravenscar-full-stm32f429disco/adalib/libgnat.a(a-except.o)
                0x0000000008008000                __gnat_rcheck_PE_Misaligned_Address_Value
 .text.__gnat_rcheck_PE_Missing_Return
                0x000000000800800c        0xc /usr/local/gnat-arm/arm-eabi/lib/gnat/ravenscar-full-stm32f429disco/adalib/libgnat.a(a-except.o)
                0x000000000800800c                __gnat_rcheck_PE_Missing_Return
 .text.__gnat_rcheck_PE_Non_Transportable_Actual
                0x0000000008008018        0xc /usr/local/gnat-arm/arm-eabi/lib/gnat/ravenscar-full-stm32f429disco/adalib/libgnat.a(a-except.o)
                0x0000000008008018                __gnat_rcheck_PE_Non_Transportable_Actual
 .text.__gnat_rcheck_PE_Overlaid_Controlled_Object
                0x0000000008008024        0xc /usr/local/gnat-arm/arm-eabi/lib/gnat/ravenscar-full-stm32f429disco/adalib/libgnat.a(a-except.o)
                0x0000000008008024                __gnat_rcheck_PE_Overlaid_Controlled_Object
 .text.__gnat_rcheck_PE_Potentially_Blocking_Operation
                0x0000000008008030        0xc /usr/local/gnat-arm/arm-eabi/lib/gnat/ravenscar-full-stm32f429disco/adalib/libgnat.a(a-except.o)
                0x0000000008008030                __gnat_rcheck_PE_Potentially_Blocking_Operation
 .text.__gnat_rcheck_PE_Stream_Operation_Not_Allowed
                0x000000000800803c        0xc /usr/local/gnat-arm/arm-eabi/lib/gnat/ravenscar-full-stm32f429disco/adalib/libgnat.a(a-except.o)
                0x000000000800803c                __gnat_rcheck_PE_Stream_Operation_Not_Allowed
 .text.__gnat_rcheck_PE_Stubbed_Subprogram_Called
                0x0000000008008048        0xc /usr/local/gnat-arm/arm-eabi/lib/gnat/ravenscar-full-stm32f429disco/adalib/libgnat.a(a-except.o)
                0x0000000008008048                __gnat_rcheck_PE_Stubbed_Subprogram_Called
 .text.__gnat_rcheck_PE_Unchecked_Union_Restriction
                0x0000000008008054        0xc /usr/local/gnat-arm/arm-eabi/lib/gnat/ravenscar-full-stm32f429disco/adalib/libgnat.a(a-except.o)
                0x0000000008008054                __gnat_rcheck_PE_Unchecked_Union_Restriction
 .text.__gnat_rcheck_SE_Empty_Storage_Pool
                0x0000000008008060        0xc /usr/local/gnat-arm/arm-eabi/lib/gnat/ravenscar-full-stm32f429disco/adalib/libgnat.a(a-except.o)
                0x0000000008008060                __gnat_rcheck_SE_Empty_Storage_Pool
 .text.__gnat_rcheck_SE_Explicit_Raise
                0x000000000800806c        0xc /usr/local/gnat-arm/arm-eabi/lib/gnat/ravenscar-full-stm32f429disco/adalib/libgnat.a(a-except.o)
                0x000000000800806c                __gnat_rcheck_SE_Explicit_Raise
 .text.__gnat_rcheck_SE_Infinite_Recursion
                0x0000000008008078        0xc /usr/local/gnat-arm/arm-eabi/lib/gnat/ravenscar-full-stm32f429disco/adalib/libgnat.a(a-except.o)
                0x0000000008008078                __gnat_rcheck_SE_Infinite_Recursion
 .text.__gnat_rcheck_SE_Object_Too_Large
                0x0000000008008084        0xc /usr/local/gnat-arm/arm-eabi/lib/gnat/ravenscar-full-stm32f429disco/adalib/libgnat.a(a-except.o)
                0x0000000008008084                __gnat_rcheck_SE_Object_Too_Large
 .text.__gnat_rcheck_CE_Access_Check_ext
                0x0000000008008090        0xc /usr/local/gnat-arm/arm-eabi/lib/gnat/ravenscar-full-stm32f429disco/adalib/libgnat.a(a-except.o)
                0x0000000008008090                __gnat_rcheck_CE_Access_Check_ext
 .text.ada__exceptions__rcheck_ce_index_check_ext___finalizer.7309
                0x000000000800809c        0xc /usr/local/gnat-arm/arm-eabi/lib/gnat/ravenscar-full-stm32f429disco/adalib/libgnat.a(a-except.o)
 .text.__gnat_rcheck_CE_Index_Check_ext
                0x00000000080080a8      0x158 /usr/local/gnat-arm/arm-eabi/lib/gnat/ravenscar-full-stm32f429disco/adalib/libgnat.a(a-except.o)
                0x00000000080080a8                __gnat_rcheck_CE_Index_Check_ext
 .text.ada__exceptions__rcheck_ce_invalid_data_ext___finalizer.7384
                0x0000000008008200        0xc /usr/local/gnat-arm/arm-eabi/lib/gnat/ravenscar-full-stm32f429disco/adalib/libgnat.a(a-except.o)
 .text.__gnat_rcheck_CE_Invalid_Data_ext
                0x000000000800820c      0x150 /usr/local/gnat-arm/arm-eabi/lib/gnat/ravenscar-full-stm32f429disco/adalib/libgnat.a(a-except.o)
                0x000000000800820c                __gnat_rcheck_CE_Invalid_Data_ext
 .text.ada__exceptions__rcheck_ce_range_check_ext___finalizer.7459
                0x000000000800835c        0xc /usr/local/gnat-arm/arm-eabi/lib/gnat/ravenscar-full-stm32f429disco/adalib/libgnat.a(a-except.o)
 .text.__gnat_rcheck_CE_Range_Check_ext
                0x0000000008008368      0x158 /usr/local/gnat-arm/arm-eabi/lib/gnat/ravenscar-full-stm32f429disco/adalib/libgnat.a(a-except.o)
                0x0000000008008368                __gnat_rcheck_CE_Range_Check_ext
 .text.__gnat_rcheck_PE_Finalize_Raised_Exception
                0x00000000080084c0       0x30 /usr/local/gnat-arm/arm-eabi/lib/gnat/ravenscar-full-stm32f429disco/adalib/libgnat.a(a-except.o)
                0x00000000080084c0                __gnat_rcheck_PE_Finalize_Raised_Exception
 .text.__gnat_reraise
                0x00000000080084f0       0x20 /usr/local/gnat-arm/arm-eabi/lib/gnat/ravenscar-full-stm32f429disco/adalib/libgnat.a(a-except.o)
                0x00000000080084f0                __gnat_reraise
 .text.__gnat_reraise_library_exception_if_any
                0x0000000008008510       0x4c /usr/local/gnat-arm/arm-eabi/lib/gnat/ravenscar-full-stm32f429disco/adalib/libgnat.a(a-except.o)
                0x0000000008008510                __gnat_reraise_library_exception_if_any
 .text.ada__exceptions__reraise_occurrence
                0x000000000800855c        0xc /usr/local/gnat-arm/arm-eabi/lib/gnat/ravenscar-full-stm32f429disco/adalib/libgnat.a(a-except.o)
                0x000000000800855c                ada__exceptions__reraise_occurrence
 .text.ada__exceptions__reraise_occurrence_always
                0x0000000008008568        0x8 /usr/local/gnat-arm/arm-eabi/lib/gnat/ravenscar-full-stm32f429disco/adalib/libgnat.a(a-except.o)
                0x0000000008008568                ada__exceptions__reraise_occurrence_always
 .text.ada__exceptions__reraise_occurrence_no_defer
                0x0000000008008570       0x24 /usr/local/gnat-arm/arm-eabi/lib/gnat/ravenscar-full-stm32f429disco/adalib/libgnat.a(a-except.o)
                0x0000000008008570                ada__exceptions__reraise_occurrence_no_defer
 .text.ada__exceptions__save_occurrence
                0x0000000008008594       0x48 /usr/local/gnat-arm/arm-eabi/lib/gnat/ravenscar-full-stm32f429disco/adalib/libgnat.a(a-except.o)
                0x0000000008008594                ada__exceptions__save_occurrence
 .text.ada__exceptions__save_occurrence__2
                0x00000000080085dc       0x20 /usr/local/gnat-arm/arm-eabi/lib/gnat/ravenscar-full-stm32f429disco/adalib/libgnat.a(a-except.o)
                0x00000000080085dc                ada__exceptions__save_occurrence__2
 .text.ada__exceptions__string_to_eid
                0x00000000080085fc        0x8 /usr/local/gnat-arm/arm-eabi/lib/gnat/ravenscar-full-stm32f429disco/adalib/libgnat.a(a-except.o)
                0x00000000080085fc                ada__exceptions__string_to_eid
 .text.ada__exceptions__string_to_eo
                0x0000000008008604        0xc /usr/local/gnat-arm/arm-eabi/lib/gnat/ravenscar-full-stm32f429disco/adalib/libgnat.a(a-except.o)
                0x0000000008008604                ada__exceptions__string_to_eo
 .text.__gnat_to_stderr_char
                0x0000000008008610        0x8 /usr/local/gnat-arm/arm-eabi/lib/gnat/ravenscar-full-stm32f429disco/adalib/libgnat.a(a-except.o)
                0x0000000008008610                __gnat_to_stderr_char
 .text.__gnat_to_stderr
                0x0000000008008618       0x28 /usr/local/gnat-arm/arm-eabi/lib/gnat/ravenscar-full-stm32f429disco/adalib/libgnat.a(a-except.o)
                0x0000000008008618                __gnat_to_stderr
 .text.__gnat_transfer_occurrence
                0x0000000008008640        0x8 /usr/local/gnat-arm/arm-eabi/lib/gnat/ravenscar-full-stm32f429disco/adalib/libgnat.a(a-except.o)
                0x0000000008008640                __gnat_transfer_occurrence
 .text.ada__exceptions__triggered_by_abort
                0x0000000008008648       0x20 /usr/local/gnat-arm/arm-eabi/lib/gnat/ravenscar-full-stm32f429disco/adalib/libgnat.a(a-except.o)
                0x0000000008008648                ada__exceptions__triggered_by_abort
 .text.ada__exceptions__wide_exception_name
                0x0000000008008668       0xa0 /usr/local/gnat-arm/arm-eabi/lib/gnat/ravenscar-full-stm32f429disco/adalib/libgnat.a(a-except.o)
                0x0000000008008668                ada__exceptions__wide_exception_name
 .text.ada__exceptions__wide_exception_name__2
                0x0000000008008708       0xa0 /usr/local/gnat-arm/arm-eabi/lib/gnat/ravenscar-full-stm32f429disco/adalib/libgnat.a(a-except.o)
                0x0000000008008708                ada__exceptions__wide_exception_name__2
 .text.ada__exceptions__wide_wide_exception_name
                0x00000000080087a8       0x9c /usr/local/gnat-arm/arm-eabi/lib/gnat/ravenscar-full-stm32f429disco/adalib/libgnat.a(a-except.o)
                0x00000000080087a8                ada__exceptions__wide_wide_exception_name
 .text.ada__exceptions__wide_wide_exception_name__2
                0x0000000008008844       0x9c /usr/local/gnat-arm/arm-eabi/lib/gnat/ravenscar-full-stm32f429disco/adalib/libgnat.a(a-except.o)
                0x0000000008008844                ada__exceptions__wide_wide_exception_name__2
 .text.ada__exceptions__code_address_for_zzz
                0x00000000080088e0        0x8 /usr/local/gnat-arm/arm-eabi/lib/gnat/ravenscar-full-stm32f429disco/adalib/libgnat.a(a-except.o)
                0x00000000080088e0                ada__exceptions__code_address_for_zzz
 .text          0x00000000080088e8        0x0 /usr/local/gnat-arm/arm-eabi/lib/gnat/ravenscar-full-stm32f429disco/adalib/libgnat.a(a-tags.o)
 .text.ada__tags__iw_membership__2
                0x00000000080088e8       0x4c /usr/local/gnat-arm/arm-eabi/lib/gnat/ravenscar-full-stm32f429disco/adalib/libgnat.a(a-tags.o)
 .text.ada__tags__tag_arrayIP
                0x0000000008008934       0x24 /usr/local/gnat-arm/arm-eabi/lib/gnat/ravenscar-full-stm32f429disco/adalib/libgnat.a(a-tags.o)
                0x0000000008008934                ada__tags__tag_arrayIP
 .text.ada__tags__interface_data_elementIP
                0x0000000008008958        0x8 /usr/local/gnat-arm/arm-eabi/lib/gnat/ravenscar-full-stm32f429disco/adalib/libgnat.a(a-tags.o)
                0x0000000008008958                ada__tags__interface_data_elementIP
 .text.ada__tags__interfaces_arrayIP
                0x0000000008008960       0x24 /usr/local/gnat-arm/arm-eabi/lib/gnat/ravenscar-full-stm32f429disco/adalib/libgnat.a(a-tags.o)
                0x0000000008008960                ada__tags__interfaces_arrayIP
 .text.ada__tags__interface_dataIP
                0x0000000008008984       0x28 /usr/local/gnat-arm/arm-eabi/lib/gnat/ravenscar-full-stm32f429disco/adalib/libgnat.a(a-tags.o)
                0x0000000008008984                ada__tags__interface_dataIP
 .text.ada__tags__select_specific_data_elementIP
                0x00000000080089ac        0x4 /usr/local/gnat-arm/arm-eabi/lib/gnat/ravenscar-full-stm32f429disco/adalib/libgnat.a(a-tags.o)
                0x00000000080089ac                ada__tags__select_specific_data_elementIP
 .text.ada__tags__select_specific_data_arrayIP
                0x00000000080089b0        0x4 /usr/local/gnat-arm/arm-eabi/lib/gnat/ravenscar-full-stm32f429disco/adalib/libgnat.a(a-tags.o)
                0x00000000080089b0                ada__tags__select_specific_data_arrayIP
 .text.ada__tags__select_specific_dataIP
                0x00000000080089b4        0x4 /usr/local/gnat-arm/arm-eabi/lib/gnat/ravenscar-full-stm32f429disco/adalib/libgnat.a(a-tags.o)
                0x00000000080089b4                ada__tags__select_specific_dataIP
 .text.ada__tags__address_arrayIP
                0x00000000080089b8       0x24 /usr/local/gnat-arm/arm-eabi/lib/gnat/ravenscar-full-stm32f429disco/adalib/libgnat.a(a-tags.o)
                0x00000000080089b8                ada__tags__address_arrayIP
 .text.ada__tags__tag_tableIP
                0x00000000080089dc       0x24 /usr/local/gnat-arm/arm-eabi/lib/gnat/ravenscar-full-stm32f429disco/adalib/libgnat.a(a-tags.o)
                0x00000000080089dc                ada__tags__tag_tableIP
 .text.ada__tags__type_specific_dataIP
                0x0000000008008a00       0x28 /usr/local/gnat-arm/arm-eabi/lib/gnat/ravenscar-full-stm32f429disco/adalib/libgnat.a(a-tags.o)
                0x0000000008008a00                ada__tags__type_specific_dataIP
 .text.ada__tags__dispatch_table_wrapperIP
                0x0000000008008a28       0x18 /usr/local/gnat-arm/arm-eabi/lib/gnat/ravenscar-full-stm32f429disco/adalib/libgnat.a(a-tags.o)
                0x0000000008008a28                ada__tags__dispatch_table_wrapperIP
 .text.ada__tags__no_dispatch_table_wrapperIP
                0x0000000008008a40        0x4 /usr/local/gnat-arm/arm-eabi/lib/gnat/ravenscar-full-stm32f429disco/adalib/libgnat.a(a-tags.o)
                0x0000000008008a40                ada__tags__no_dispatch_table_wrapperIP
 .text.ada__tags__object_specific_data_arrayIP
                0x0000000008008a44        0x4 /usr/local/gnat-arm/arm-eabi/lib/gnat/ravenscar-full-stm32f429disco/adalib/libgnat.a(a-tags.o)
                0x0000000008008a44                ada__tags__object_specific_data_arrayIP
 .text.ada__tags__object_specific_dataIP
                0x0000000008008a48        0x4 /usr/local/gnat-arm/arm-eabi/lib/gnat/ravenscar-full-stm32f429disco/adalib/libgnat.a(a-tags.o)
                0x0000000008008a48                ada__tags__object_specific_dataIP
 .text.ada__tags__external_tag_htable__TtableBIPXn
                0x0000000008008a4c       0x20 /usr/local/gnat-arm/arm-eabi/lib/gnat/ravenscar-full-stm32f429disco/adalib/libgnat.a(a-tags.o)
                0x0000000008008a4c                ada__tags__external_tag_htable__TtableBIPXn
 .text.ada__tags__external_tag_htable__get_firstXn
                0x0000000008008a6c       0x4c /usr/local/gnat-arm/arm-eabi/lib/gnat/ravenscar-full-stm32f429disco/adalib/libgnat.a(a-tags.o)
                0x0000000008008a6c                ada__tags__external_tag_htable__get_firstXn
 .text.ada__tags__external_tag_htable__get_nextXn
                0x0000000008008ab8       0x60 /usr/local/gnat-arm/arm-eabi/lib/gnat/ravenscar-full-stm32f429disco/adalib/libgnat.a(a-tags.o)
                0x0000000008008ab8                ada__tags__external_tag_htable__get_nextXn
 .text.ada__tags__external_tag_htable__get_non_nullXn
                0x0000000008008b18       0x54 /usr/local/gnat-arm/arm-eabi/lib/gnat/ravenscar-full-stm32f429disco/adalib/libgnat.a(a-tags.o)
                0x0000000008008b18                ada__tags__external_tag_htable__get_non_nullXn
 .text.ada__tags__external_tag_htable__resetXn
                0x0000000008008b6c       0x14 /usr/local/gnat-arm/arm-eabi/lib/gnat/ravenscar-full-stm32f429disco/adalib/libgnat.a(a-tags.o)
                0x0000000008008b6c                ada__tags__external_tag_htable__resetXn
 .text.ada__tags__htable_subprograms__equalXn
                0x0000000008008b80       0x20 /usr/local/gnat-arm/arm-eabi/lib/gnat/ravenscar-full-stm32f429disco/adalib/libgnat.a(a-tags.o)
                0x0000000008008b80                ada__tags__htable_subprograms__equalXn
 .text.ada__tags__htable_subprograms__get_ht_linkXn
                0x0000000008008ba0        0xc /usr/local/gnat-arm/arm-eabi/lib/gnat/ravenscar-full-stm32f429disco/adalib/libgnat.a(a-tags.o)
                0x0000000008008ba0                ada__tags__htable_subprograms__get_ht_linkXn
 .text.ada__tags__htable_subprograms__hashXn
                0x0000000008008bac       0x44 /usr/local/gnat-arm/arm-eabi/lib/gnat/ravenscar-full-stm32f429disco/adalib/libgnat.a(a-tags.o)
                0x0000000008008bac                ada__tags__htable_subprograms__hashXn
 .text.ada__tags__external_tag_htable__getXn
                0x0000000008008bf0       0x48 /usr/local/gnat-arm/arm-eabi/lib/gnat/ravenscar-full-stm32f429disco/adalib/libgnat.a(a-tags.o)
                0x0000000008008bf0                ada__tags__external_tag_htable__getXn
 .text.ada__tags__external_tag_htable__presentXn
                0x0000000008008c38       0x10 /usr/local/gnat-arm/arm-eabi/lib/gnat/ravenscar-full-stm32f429disco/adalib/libgnat.a(a-tags.o)
                0x0000000008008c38                ada__tags__external_tag_htable__presentXn
 .text.ada__tags__external_tag_htable__removeXn
                0x0000000008008c48       0x84 /usr/local/gnat-arm/arm-eabi/lib/gnat/ravenscar-full-stm32f429disco/adalib/libgnat.a(a-tags.o)
                0x0000000008008c48                ada__tags__external_tag_htable__removeXn
 .text.ada__tags__external_tag_htable__setXn
                0x0000000008008ccc       0x28 /usr/local/gnat-arm/arm-eabi/lib/gnat/ravenscar-full-stm32f429disco/adalib/libgnat.a(a-tags.o)
                0x0000000008008ccc                ada__tags__external_tag_htable__setXn
 .text.ada__tags__external_tag_htable__set_if_not_presentXn
                0x0000000008008cf4       0x6c /usr/local/gnat-arm/arm-eabi/lib/gnat/ravenscar-full-stm32f429disco/adalib/libgnat.a(a-tags.o)
                0x0000000008008cf4                ada__tags__external_tag_htable__set_if_not_presentXn
 .text.ada__tags__htable_subprograms__set_ht_linkXn
                0x0000000008008d60        0xc /usr/local/gnat-arm/arm-eabi/lib/gnat/ravenscar-full-stm32f429disco/adalib/libgnat.a(a-tags.o)
                0x0000000008008d60                ada__tags__htable_subprograms__set_ht_linkXn
 .text.ada__tags__is_abstract
                0x0000000008008d6c       0x24 /usr/local/gnat-arm/arm-eabi/lib/gnat/ravenscar-full-stm32f429disco/adalib/libgnat.a(a-tags.o)
                0x0000000008008d6c                ada__tags__is_abstract
 .text.ada__tags__base_address
                0x0000000008008d90       0x14 /usr/local/gnat-arm/arm-eabi/lib/gnat/ravenscar-full-stm32f429disco/adalib/libgnat.a(a-tags.o)
                0x0000000008008d90                ada__tags__base_address
 .text.ada__tags__check_tsd
                0x0000000008008da4       0x90 /usr/local/gnat-arm/arm-eabi/lib/gnat/ravenscar-full-stm32f429disco/adalib/libgnat.a(a-tags.o)
                0x0000000008008da4                ada__tags__check_tsd
 .text.ada__tags__displace
                0x0000000008008e34       0x94 /usr/local/gnat-arm/arm-eabi/lib/gnat/ravenscar-full-stm32f429disco/adalib/libgnat.a(a-tags.o)
                0x0000000008008e34                ada__tags__displace
 .text.ada__tags__dt
                0x0000000008008ec8        0x4 /usr/local/gnat-arm/arm-eabi/lib/gnat/ravenscar-full-stm32f429disco/adalib/libgnat.a(a-tags.o)
                0x0000000008008ec8                ada__tags__dt
 .text.ada__tags__iw_membership
                0x0000000008008ecc       0x1c /usr/local/gnat-arm/arm-eabi/lib/gnat/ravenscar-full-stm32f429disco/adalib/libgnat.a(a-tags.o)
                0x0000000008008ecc                ada__tags__iw_membership
 .text.ada__tags__expanded_name
                0x0000000008008ee8       0x70 /usr/local/gnat-arm/arm-eabi/lib/gnat/ravenscar-full-stm32f429disco/adalib/libgnat.a(a-tags.o)
                0x0000000008008ee8                ada__tags__expanded_name
 .text.ada__tags__external_tag
                0x0000000008008f58       0x70 /usr/local/gnat-arm/arm-eabi/lib/gnat/ravenscar-full-stm32f429disco/adalib/libgnat.a(a-tags.o)
                0x0000000008008f58                ada__tags__external_tag
 .text.ada__tags__get_entry_index
                0x0000000008008fc8       0x10 /usr/local/gnat-arm/arm-eabi/lib/gnat/ravenscar-full-stm32f429disco/adalib/libgnat.a(a-tags.o)
                0x0000000008008fc8                ada__tags__get_entry_index
 .text.ada__tags__get_prim_op_kind
                0x0000000008008fd8        0xc /usr/local/gnat-arm/arm-eabi/lib/gnat/ravenscar-full-stm32f429disco/adalib/libgnat.a(a-tags.o)
                0x0000000008008fd8                ada__tags__get_prim_op_kind
 .text.ada__tags__get_offset_index
                0x0000000008008fe4       0x14 /usr/local/gnat-arm/arm-eabi/lib/gnat/ravenscar-full-stm32f429disco/adalib/libgnat.a(a-tags.o)
                0x0000000008008fe4                ada__tags__get_offset_index
 .text.ada__tags__get_tagged_kind
                0x0000000008008ff8        0x8 /usr/local/gnat-arm/arm-eabi/lib/gnat/ravenscar-full-stm32f429disco/adalib/libgnat.a(a-tags.o)
                0x0000000008008ff8                ada__tags__get_tagged_kind
 .text.ada__tags__interface_ancestor_tags
                0x0000000008009000       0x74 /usr/local/gnat-arm/arm-eabi/lib/gnat/ravenscar-full-stm32f429disco/adalib/libgnat.a(a-tags.o)
                0x0000000008009000                ada__tags__interface_ancestor_tags
 .text.ada__tags__internal_tag
                0x0000000008009074      0x3f0 /usr/local/gnat-arm/arm-eabi/lib/gnat/ravenscar-full-stm32f429disco/adalib/libgnat.a(a-tags.o)
                0x0000000008009074                ada__tags__internal_tag
 .text.ada__tags__is_descendant_at_same_level
                0x0000000008009464       0x40 /usr/local/gnat-arm/arm-eabi/lib/gnat/ravenscar-full-stm32f429disco/adalib/libgnat.a(a-tags.o)
                0x0000000008009464                ada__tags__is_descendant_at_same_level
 .text.ada__tags__descendant_tag
                0x00000000080094a4       0x2c /usr/local/gnat-arm/arm-eabi/lib/gnat/ravenscar-full-stm32f429disco/adalib/libgnat.a(a-tags.o)
                0x00000000080094a4                ada__tags__descendant_tag
 .text.ada__tags__offset_to_top
                0x00000000080094d0       0x14 /usr/local/gnat-arm/arm-eabi/lib/gnat/ravenscar-full-stm32f429disco/adalib/libgnat.a(a-tags.o)
                0x00000000080094d0                ada__tags__offset_to_top
 .text.ada__tags__needs_finalization
                0x00000000080094e4        0x8 /usr/local/gnat-arm/arm-eabi/lib/gnat/ravenscar-full-stm32f429disco/adalib/libgnat.a(a-tags.o)
                0x00000000080094e4                ada__tags__needs_finalization
 .text.ada__tags__parent_size
                0x00000000080094ec       0x14 /usr/local/gnat-arm/arm-eabi/lib/gnat/ravenscar-full-stm32f429disco/adalib/libgnat.a(a-tags.o)
                0x00000000080094ec                ada__tags__parent_size
 .text.ada__tags__parent_tag
                0x0000000008009500       0x28 /usr/local/gnat-arm/arm-eabi/lib/gnat/ravenscar-full-stm32f429disco/adalib/libgnat.a(a-tags.o)
                0x0000000008009500                ada__tags__parent_tag
 .text.ada__tags__register_interface_offset
                0x0000000008009528       0x5c /usr/local/gnat-arm/arm-eabi/lib/gnat/ravenscar-full-stm32f429disco/adalib/libgnat.a(a-tags.o)
                0x0000000008009528                ada__tags__register_interface_offset
 .text.ada__tags__register_tag
                0x0000000008009584        0x4 /usr/local/gnat-arm/arm-eabi/lib/gnat/ravenscar-full-stm32f429disco/adalib/libgnat.a(a-tags.o)
                0x0000000008009584                ada__tags__register_tag
 .text.ada__tags__secondary_tag
                0x0000000008009588       0x54 /usr/local/gnat-arm/arm-eabi/lib/gnat/ravenscar-full-stm32f429disco/adalib/libgnat.a(a-tags.o)
                0x0000000008009588                ada__tags__secondary_tag
 .text.ada__tags__set_entry_index
                0x00000000080095dc       0x10 /usr/local/gnat-arm/arm-eabi/lib/gnat/ravenscar-full-stm32f429disco/adalib/libgnat.a(a-tags.o)
                0x00000000080095dc                ada__tags__set_entry_index
 .text.ada__tags__set_dynamic_offset_to_top
                0x00000000080095ec       0x24 /usr/local/gnat-arm/arm-eabi/lib/gnat/ravenscar-full-stm32f429disco/adalib/libgnat.a(a-tags.o)
                0x00000000080095ec                ada__tags__set_dynamic_offset_to_top
 .text.ada__tags__set_prim_op_kind
                0x0000000008009610        0xc /usr/local/gnat-arm/arm-eabi/lib/gnat/ravenscar-full-stm32f429disco/adalib/libgnat.a(a-tags.o)
                0x0000000008009610                ada__tags__set_prim_op_kind
 .text.ada__tags__unregister_tag
                0x000000000800961c        0xc /usr/local/gnat-arm/arm-eabi/lib/gnat/ravenscar-full-stm32f429disco/adalib/libgnat.a(a-tags.o)
                0x000000000800961c                ada__tags__unregister_tag
 .text.ada__tags__wide_expanded_name
                0x0000000008009628       0x9c /usr/local/gnat-arm/arm-eabi/lib/gnat/ravenscar-full-stm32f429disco/adalib/libgnat.a(a-tags.o)
                0x0000000008009628                ada__tags__wide_expanded_name
 .text.ada__tags__wide_wide_expanded_name
                0x00000000080096c4       0x98 /usr/local/gnat-arm/arm-eabi/lib/gnat/ravenscar-full-stm32f429disco/adalib/libgnat.a(a-tags.o)
                0x00000000080096c4                ada__tags__wide_wide_expanded_name
 .text.ada__tags___elabb
                0x000000000800975c       0x18 /usr/local/gnat-arm/arm-eabi/lib/gnat/ravenscar-full-stm32f429disco/adalib/libgnat.a(a-tags.o)
                0x000000000800975c                ada__tags___elabb
 .text          0x0000000008009774        0x0 /usr/local/gnat-arm/arm-eabi/lib/gnat/ravenscar-full-stm32f429disco/adalib/libgnat.a(adaint-xi.o)
 .text.__gnat_get_executable_load_address
                0x0000000008009774        0x4 /usr/local/gnat-arm/arm-eabi/lib/gnat/ravenscar-full-stm32f429disco/adalib/libgnat.a(adaint-xi.o)
                0x0000000008009774                __gnat_get_executable_load_address
 .text          0x0000000008009778        0x0 /usr/local/gnat-arm/arm-eabi/lib/gnat/ravenscar-full-stm32f429disco/adalib/libgnat.a(g-debuti.o)
 .text.gnat__debug_utilities__image__2
                0x0000000008009778       0x58 /usr/local/gnat-arm/arm-eabi/lib/gnat/ravenscar-full-stm32f429disco/adalib/libgnat.a(g-debuti.o)
                0x0000000008009778                gnat__debug_utilities__image__2
 .text.gnat__debug_utilities__image
                0x00000000080097d0       0xac /usr/local/gnat-arm/arm-eabi/lib/gnat/ravenscar-full-stm32f429disco/adalib/libgnat.a(g-debuti.o)
                0x00000000080097d0                gnat__debug_utilities__image
 .text.gnat__debug_utilities__image_c
                0x000000000800987c       0x2c /usr/local/gnat-arm/arm-eabi/lib/gnat/ravenscar-full-stm32f429disco/adalib/libgnat.a(g-debuti.o)
                0x000000000800987c                gnat__debug_utilities__image_c
 .text.gnat__debug_utilities__value
                0x00000000080098a8       0xa4 /usr/local/gnat-arm/arm-eabi/lib/gnat/ravenscar-full-stm32f429disco/adalib/libgnat.a(g-debuti.o)
                0x00000000080098a8                gnat__debug_utilities__value
 *fill*         0x000000000800994c       0xb4 
 .text          0x0000000008009a00      0x1b8 /usr/local/gnat-arm/arm-eabi/lib/gnat/ravenscar-full-stm32f429disco/adalib/libgnat.a(handler.o)
                0x0000000008009a00                __vectors
 .text          0x0000000008009bb8        0x0 /usr/local/gnat-arm/arm-eabi/lib/gnat/ravenscar-full-stm32f429disco/adalib/libgnat.a(raise-gcc.o)
 .text.read_encoded_value_with_base
                0x0000000008009bb8       0xc0 /usr/local/gnat-arm/arm-eabi/lib/gnat/ravenscar-full-stm32f429disco/adalib/libgnat.a(raise-gcc.o)
 .text.base_of_encoded_value.part.2
                0x0000000008009c78       0x38 /usr/local/gnat-arm/arm-eabi/lib/gnat/ravenscar-full-stm32f429disco/adalib/libgnat.a(raise-gcc.o)
 .text.__gnat_personality_v0
                0x0000000008009cb0      0x3d8 /usr/local/gnat-arm/arm-eabi/lib/gnat/ravenscar-full-stm32f429disco/adalib/libgnat.a(raise-gcc.o)
                0x0000000008009cb0                __gnat_personality_v0
 .text.__gnat_cleanupunwind_handler
                0x000000000800a088       0x14 /usr/local/gnat-arm/arm-eabi/lib/gnat/ravenscar-full-stm32f429disco/adalib/libgnat.a(raise-gcc.o)
                0x000000000800a088                __gnat_cleanupunwind_handler
 .text.__gnat_Unwind_RaiseException
                0x000000000800a09c        0x4 /usr/local/gnat-arm/arm-eabi/lib/gnat/ravenscar-full-stm32f429disco/adalib/libgnat.a(raise-gcc.o)
                0x000000000800a09c                __gnat_Unwind_RaiseException
 .text.__gnat_Unwind_ForcedUnwind
                0x000000000800a0a0        0x4 /usr/local/gnat-arm/arm-eabi/lib/gnat/ravenscar-full-stm32f429disco/adalib/libgnat.a(raise-gcc.o)
                0x000000000800a0a0                __gnat_Unwind_ForcedUnwind
 .text          0x000000000800a0a4        0x0 /usr/local/gnat-arm/arm-eabi/lib/gnat/ravenscar-full-stm32f429disco/adalib/libgnat.a(s-bcpcst.o)
 .text.system__bb__cpu_primitives__context_switch_trigger__initialize_context_switch
                0x000000000800a0a4        0x4 /usr/local/gnat-arm/arm-eabi/lib/gnat/ravenscar-full-stm32f429disco/adalib/libgnat.a(s-bcpcst.o)
                0x000000000800a0a4                system__bb__cpu_primitives__context_switch_trigger__initialize_context_switch
 .text.system__bb__cpu_primitives__context_switch_trigger__trigger_context_switch
                0x000000000800a0a8       0x10 /usr/local/gnat-arm/arm-eabi/lib/gnat/ravenscar-full-stm32f429disco/adalib/libgnat.a(s-bcpcst.o)
                0x000000000800a0a8                system__bb__cpu_primitives__context_switch_trigger__trigger_context_switch
 .text.__gnat_pend_sv_trap
                0x000000000800a0b8       0x48 /usr/local/gnat-arm/arm-eabi/lib/gnat/ravenscar-full-stm32f429disco/adalib/libgnat.a(s-bcpcst.o)
                0x000000000800a0b8                __gnat_pend_sv_trap
 .text          0x000000000800a100        0x0 /usr/local/gnat-arm/arm-eabi/lib/gnat/ravenscar-full-stm32f429disco/adalib/libgnat.a(s-excdeb.o)
 .text.__gnat_debug_raise_exception
                0x000000000800a100       0x1c /usr/local/gnat-arm/arm-eabi/lib/gnat/ravenscar-full-stm32f429disco/adalib/libgnat.a(s-excdeb.o)
                0x000000000800a100                __gnat_debug_raise_exception
 .text.__gnat_unhandled_exception
                0x000000000800a11c       0x14 /usr/local/gnat-arm/arm-eabi/lib/gnat/ravenscar-full-stm32f429disco/adalib/libgnat.a(s-excdeb.o)
                0x000000000800a11c                __gnat_unhandled_exception
 .text.__gnat_debug_raise_assert_failure
                0x000000000800a130       0x10 /usr/local/gnat-arm/arm-eabi/lib/gnat/ravenscar-full-stm32f429disco/adalib/libgnat.a(s-excdeb.o)
                0x000000000800a130                __gnat_debug_raise_assert_failure
 .text.local_raise
                0x000000000800a140       0x14 /usr/local/gnat-arm/arm-eabi/lib/gnat/ravenscar-full-stm32f429disco/adalib/libgnat.a(s-excdeb.o)
                0x000000000800a140                local_raise
 .text          0x000000000800a154        0x0 /usr/local/gnat-arm/arm-eabi/lib/gnat/ravenscar-full-stm32f429disco/adalib/libgnat.a(s-except.o)
 .text          0x000000000800a154        0x0 /usr/local/gnat-arm/arm-eabi/lib/gnat/ravenscar-full-stm32f429disco/adalib/libgnat.a(s-excmac.o)
 .text.system__exceptions__machine__Texception_classBIP
                0x000000000800a154        0x4 /usr/local/gnat-arm/arm-eabi/lib/gnat/ravenscar-full-stm32f429disco/adalib/libgnat.a(s-excmac.o)
                0x000000000800a154                system__exceptions__machine__Texception_classBIP
 .text.system__exceptions__machine__uint32_t_arrayIP
                0x000000000800a158        0x4 /usr/local/gnat-arm/arm-eabi/lib/gnat/ravenscar-full-stm32f429disco/adalib/libgnat.a(s-excmac.o)
                0x000000000800a158                system__exceptions__machine__uint32_t_arrayIP
 .text.system__exceptions__machine__unwinder_cache_typeIP
                0x000000000800a15c        0x4 /usr/local/gnat-arm/arm-eabi/lib/gnat/ravenscar-full-stm32f429disco/adalib/libgnat.a(s-excmac.o)
                0x000000000800a15c                system__exceptions__machine__unwinder_cache_typeIP
 .text.system__exceptions__machine__barrier_cache_typeIP
                0x000000000800a160        0x4 /usr/local/gnat-arm/arm-eabi/lib/gnat/ravenscar-full-stm32f429disco/adalib/libgnat.a(s-excmac.o)
                0x000000000800a160                system__exceptions__machine__barrier_cache_typeIP
 .text.system__exceptions__machine__cleanup_cache_typeIP
                0x000000000800a164        0x4 /usr/local/gnat-arm/arm-eabi/lib/gnat/ravenscar-full-stm32f429disco/adalib/libgnat.a(s-excmac.o)
                0x000000000800a164                system__exceptions__machine__cleanup_cache_typeIP
 .text.system__exceptions__machine__pr_cache_typeIP
                0x000000000800a168        0x4 /usr/local/gnat-arm/arm-eabi/lib/gnat/ravenscar-full-stm32f429disco/adalib/libgnat.a(s-excmac.o)
                0x000000000800a168                system__exceptions__machine__pr_cache_typeIP
 .text.system__exceptions__machine__unwind_control_blockIP
                0x000000000800a16c        0x4 /usr/local/gnat-arm/arm-eabi/lib/gnat/ravenscar-full-stm32f429disco/adalib/libgnat.a(s-excmac.o)
                0x000000000800a16c                system__exceptions__machine__unwind_control_blockIP
 .text.system__exceptions__machine__gnat_gcc_exceptionIP
                0x000000000800a170       0x14 /usr/local/gnat-arm/arm-eabi/lib/gnat/ravenscar-full-stm32f429disco/adalib/libgnat.a(s-excmac.o)
                0x000000000800a170                system__exceptions__machine__gnat_gcc_exceptionIP
 .text.system__exceptions__machine__new_occurrence
                0x000000000800a184       0x34 /usr/local/gnat-arm/arm-eabi/lib/gnat/ravenscar-full-stm32f429disco/adalib/libgnat.a(s-excmac.o)
                0x000000000800a184                system__exceptions__machine__new_occurrence
 .text          0x000000000800a1b8        0x0 /usr/local/gnat-arm/arm-eabi/lib/gnat/ravenscar-full-stm32f429disco/adalib/libgnat.a(s-exctab.o)
 .text.system__exception_table__register.part.1
                0x000000000800a1b8       0x64 /usr/local/gnat-arm/arm-eabi/lib/gnat/ravenscar-full-stm32f429disco/adalib/libgnat.a(s-exctab.o)
 .text.system__exception_table__exception_data_arrayIP
                0x000000000800a21c       0x24 /usr/local/gnat-arm/arm-eabi/lib/gnat/ravenscar-full-stm32f429disco/adalib/libgnat.a(s-exctab.o)
                0x000000000800a21c                system__exception_table__exception_data_arrayIP
 .text.system__exception_table__ThtableBIP
                0x000000000800a240       0x20 /usr/local/gnat-arm/arm-eabi/lib/gnat/ravenscar-full-stm32f429disco/adalib/libgnat.a(s-exctab.o)
                0x000000000800a240                system__exception_table__ThtableBIP
 .text.system__exception_table__has_name
                0x000000000800a260       0x38 /usr/local/gnat-arm/arm-eabi/lib/gnat/ravenscar-full-stm32f429disco/adalib/libgnat.a(s-exctab.o)
                0x000000000800a260                system__exception_table__has_name
 .text.system__exception_table__lookup
                0x000000000800a298       0x90 /usr/local/gnat-arm/arm-eabi/lib/gnat/ravenscar-full-stm32f429disco/adalib/libgnat.a(s-exctab.o)
                0x000000000800a298                system__exception_table__lookup
 .text.system__exception_table__hash
                0x000000000800a328       0x70 /usr/local/gnat-arm/arm-eabi/lib/gnat/ravenscar-full-stm32f429disco/adalib/libgnat.a(s-exctab.o)
                0x000000000800a328                system__exception_table__hash
 .text.system__exception_table__register
                0x000000000800a398        0xc /usr/local/gnat-arm/arm-eabi/lib/gnat/ravenscar-full-stm32f429disco/adalib/libgnat.a(s-exctab.o)
                0x000000000800a398                system__exception_table__register
 .text.system__exception_table__get_registered_exceptions
                0x000000000800a3a4       0x64 /usr/local/gnat-arm/arm-eabi/lib/gnat/ravenscar-full-stm32f429disco/adalib/libgnat.a(s-exctab.o)
                0x000000000800a3a4                system__exception_table__get_registered_exceptions
 .text.system__exception_table__internal_exception
                0x000000000800a408      0x110 /usr/local/gnat-arm/arm-eabi/lib/gnat/ravenscar-full-stm32f429disco/adalib/libgnat.a(s-exctab.o)
                0x000000000800a408                system__exception_table__internal_exception
 .text.system__exception_table__register_exception
                0x000000000800a518       0x30 /usr/local/gnat-arm/arm-eabi/lib/gnat/ravenscar-full-stm32f429disco/adalib/libgnat.a(s-exctab.o)
                0x000000000800a518                system__exception_table__register_exception
 .text.system__exception_table__registered_exceptions_count
                0x000000000800a548       0x5c /usr/local/gnat-arm/arm-eabi/lib/gnat/ravenscar-full-stm32f429disco/adalib/libgnat.a(s-exctab.o)
                0x000000000800a548                system__exception_table__registered_exceptions_count
 .text.system__exception_table___elabb
                0x000000000800a5a4       0x8c /usr/local/gnat-arm/arm-eabi/lib/gnat/ravenscar-full-stm32f429disco/adalib/libgnat.a(s-exctab.o)
                0x000000000800a5a4                system__exception_table___elabb
 .text          0x000000000800a630        0x0 /usr/local/gnat-arm/arm-eabi/lib/gnat/ravenscar-full-stm32f429disco/adalib/libgnat.a(s-imgint.o)
 .text.system__img_int__set_digits
                0x000000000800a630       0x48 /usr/local/gnat-arm/arm-eabi/lib/gnat/ravenscar-full-stm32f429disco/adalib/libgnat.a(s-imgint.o)
 .text.system__img_int__set_image_integer
                0x000000000800a678       0x20 /usr/local/gnat-arm/arm-eabi/lib/gnat/ravenscar-full-stm32f429disco/adalib/libgnat.a(s-imgint.o)
                0x000000000800a678                system__img_int__set_image_integer
 .text.system__img_int__image_integer
                0x000000000800a698       0x20 /usr/local/gnat-arm/arm-eabi/lib/gnat/ravenscar-full-stm32f429disco/adalib/libgnat.a(s-imgint.o)
                0x000000000800a698                system__img_int__image_integer
 .text          0x000000000800a6b8        0x0 /usr/local/gnat-arm/arm-eabi/lib/gnat/ravenscar-full-stm32f429disco/adalib/libgnat.a(s-init.o)
 .text.__gnat_finalize
                0x000000000800a6b8        0x4 /usr/local/gnat-arm/arm-eabi/lib/gnat/ravenscar-full-stm32f429disco/adalib/libgnat.a(s-init.o)
                0x000000000800a6b8                __gnat_finalize
 .text.__gnat_initialize
                0x000000000800a6bc        0x4 /usr/local/gnat-arm/arm-eabi/lib/gnat/ravenscar-full-stm32f429disco/adalib/libgnat.a(s-init.o)
                0x000000000800a6bc                __gnat_initialize
 .text.__gnat_install_handler
                0x000000000800a6c0       0x54 /usr/local/gnat-arm/arm-eabi/lib/gnat/ravenscar-full-stm32f429disco/adalib/libgnat.a(s-init.o)
                0x000000000800a6c0                __gnat_install_handler
 .text.__gnat_runtime_initialize
                0x000000000800a714       0x58 /usr/local/gnat-arm/arm-eabi/lib/gnat/ravenscar-full-stm32f429disco/adalib/libgnat.a(s-init.o)
                0x000000000800a714                __gnat_runtime_initialize
 .text.__gnat_runtime_finalize
                0x000000000800a76c        0x4 /usr/local/gnat-arm/arm-eabi/lib/gnat/ravenscar-full-stm32f429disco/adalib/libgnat.a(s-init.o)
                0x000000000800a76c                __gnat_runtime_finalize
 .text          0x000000000800a770        0x0 /usr/local/gnat-arm/arm-eabi/lib/gnat/ravenscar-full-stm32f429disco/adalib/libgnat.a(s-io.o)
 .text.system__io__put__2
                0x000000000800a770       0x28 /usr/local/gnat-arm/arm-eabi/lib/gnat/ravenscar-full-stm32f429disco/adalib/libgnat.a(s-io.o)
                0x000000000800a770                system__io__put__2
 .text.system__io__new_line
                0x000000000800a798       0x30 /usr/local/gnat-arm/arm-eabi/lib/gnat/ravenscar-full-stm32f429disco/adalib/libgnat.a(s-io.o)
                0x000000000800a798                system__io__new_line
 .text.system__io__put__3
                0x000000000800a7c8       0x20 /usr/local/gnat-arm/arm-eabi/lib/gnat/ravenscar-full-stm32f429disco/adalib/libgnat.a(s-io.o)
                0x000000000800a7c8                system__io__put__3
 .text.system__io__put
                0x000000000800a7e8       0x24 /usr/local/gnat-arm/arm-eabi/lib/gnat/ravenscar-full-stm32f429disco/adalib/libgnat.a(s-io.o)
                0x000000000800a7e8                system__io__put
 .text.put_char_stderr
                0x000000000800a80c        0x4 /usr/local/gnat-arm/arm-eabi/lib/gnat/ravenscar-full-stm32f429disco/adalib/libgnat.a(s-io.o)
                0x000000000800a80c                put_char_stderr
 .text.system__io__put_line
                0x000000000800a810       0x10 /usr/local/gnat-arm/arm-eabi/lib/gnat/ravenscar-full-stm32f429disco/adalib/libgnat.a(s-io.o)
                0x000000000800a810                system__io__put_line
 .text.system__io__standard_output
                0x000000000800a820        0x4 /usr/local/gnat-arm/arm-eabi/lib/gnat/ravenscar-full-stm32f429disco/adalib/libgnat.a(s-io.o)
                0x000000000800a820                system__io__standard_output
 .text.system__io__standard_error
                0x000000000800a824        0x4 /usr/local/gnat-arm/arm-eabi/lib/gnat/ravenscar-full-stm32f429disco/adalib/libgnat.a(s-io.o)
                0x000000000800a824                system__io__standard_error
 .text.system__io__set_output
                0x000000000800a828        0x4 /usr/local/gnat-arm/arm-eabi/lib/gnat/ravenscar-full-stm32f429disco/adalib/libgnat.a(s-io.o)
                0x000000000800a828                system__io__set_output
 .text          0x000000000800a82c        0x0 /usr/local/gnat-arm/arm-eabi/lib/gnat/ravenscar-full-stm32f429disco/adalib/libgnat.a(s-macres.o)
 .text.abort    0x000000000800a82c       0x10 /usr/local/gnat-arm/arm-eabi/lib/gnat/ravenscar-full-stm32f429disco/adalib/libgnat.a(s-macres.o)
                0x000000000800a82c                abort
 .text._exit    0x000000000800a83c       0x10 /usr/local/gnat-arm/arm-eabi/lib/gnat/ravenscar-full-stm32f429disco/adalib/libgnat.a(s-macres.o)
                0x000000000800a83c                _exit
 .text.system__machine_reset__stop
                0x000000000800a84c       0x10 /usr/local/gnat-arm/arm-eabi/lib/gnat/ravenscar-full-stm32f429disco/adalib/libgnat.a(s-macres.o)
                0x000000000800a84c                system__machine_reset__stop
 .text          0x000000000800a85c        0x0 /usr/local/gnat-arm/arm-eabi/lib/gnat/ravenscar-full-stm32f429disco/adalib/libgnat.a(s-memory.o)
 .text.__gnat_malloc
                0x000000000800a85c       0x58 /usr/local/gnat-arm/arm-eabi/lib/gnat/ravenscar-full-stm32f429disco/adalib/libgnat.a(s-memory.o)
                0x000000000800a85c                __gnat_malloc
 .text.__gnat_free
                0x000000000800a8b4       0x24 /usr/local/gnat-arm/arm-eabi/lib/gnat/ravenscar-full-stm32f429disco/adalib/libgnat.a(s-memory.o)
                0x000000000800a8b4                __gnat_free
 .text.__gnat_realloc
                0x000000000800a8d8       0x58 /usr/local/gnat-arm/arm-eabi/lib/gnat/ravenscar-full-stm32f429disco/adalib/libgnat.a(s-memory.o)
                0x000000000800a8d8                __gnat_realloc
 .text          0x000000000800a930        0x0 /usr/local/gnat-arm/arm-eabi/lib/gnat/ravenscar-full-stm32f429disco/adalib/libgnat.a(s-musplo.o)
 .text.system__multiprocessors__spin_locks__spin_lockIP
                0x000000000800a930        0x8 /usr/local/gnat-arm/arm-eabi/lib/gnat/ravenscar-full-stm32f429disco/adalib/libgnat.a(s-musplo.o)
                0x000000000800a930                system__multiprocessors__spin_locks__spin_lockIP
 .text.system__multiprocessors__spin_locks__lock
                0x000000000800a938       0x1c /usr/local/gnat-arm/arm-eabi/lib/gnat/ravenscar-full-stm32f429disco/adalib/libgnat.a(s-musplo.o)
                0x000000000800a938                system__multiprocessors__spin_locks__lock
 .text.system__multiprocessors__spin_locks__locked
                0x000000000800a954        0xc /usr/local/gnat-arm/arm-eabi/lib/gnat/ravenscar-full-stm32f429disco/adalib/libgnat.a(s-musplo.o)
                0x000000000800a954                system__multiprocessors__spin_locks__locked
 .text.system__multiprocessors__spin_locks__try_lock
                0x000000000800a960       0x20 /usr/local/gnat-arm/arm-eabi/lib/gnat/ravenscar-full-stm32f429disco/adalib/libgnat.a(s-musplo.o)
                0x000000000800a960                system__multiprocessors__spin_locks__try_lock
 .text.system__multiprocessors__spin_locks__unlock
                0x000000000800a980        0xc /usr/local/gnat-arm/arm-eabi/lib/gnat/ravenscar-full-stm32f429disco/adalib/libgnat.a(s-musplo.o)
                0x000000000800a980                system__multiprocessors__spin_locks__unlock
 .text          0x000000000800a98c        0x0 /usr/local/gnat-arm/arm-eabi/lib/gnat/ravenscar-full-stm32f429disco/adalib/libgnat.a(s-parame.o)
 .text.system__parameters__adjust_storage_size
                0x000000000800a98c        0xc /usr/local/gnat-arm/arm-eabi/lib/gnat/ravenscar-full-stm32f429disco/adalib/libgnat.a(s-parame.o)
                0x000000000800a98c                system__parameters__adjust_storage_size
 .text          0x000000000800a998        0x0 /usr/local/gnat-arm/arm-eabi/lib/gnat/ravenscar-full-stm32f429disco/adalib/libgnat.a(s-secsta.o)
 .text.system__secondary_stack__memoryIP
                0x000000000800a998        0x4 /usr/local/gnat-arm/arm-eabi/lib/gnat/ravenscar-full-stm32f429disco/adalib/libgnat.a(s-secsta.o)
                0x000000000800a998                system__secondary_stack__memoryIP
 .text.system__secondary_stack__ss_stackIP
                0x000000000800a99c        0x4 /usr/local/gnat-arm/arm-eabi/lib/gnat/ravenscar-full-stm32f429disco/adalib/libgnat.a(s-secsta.o)
                0x000000000800a99c                system__secondary_stack__ss_stackIP
 .text.system__secondary_stack__ss_allocate
                0x000000000800a9a0       0x64 /usr/local/gnat-arm/arm-eabi/lib/gnat/ravenscar-full-stm32f429disco/adalib/libgnat.a(s-secsta.o)
                0x000000000800a9a0                system__secondary_stack__ss_allocate
 .text.system__secondary_stack__ss_get_max
                0x000000000800aa04       0x10 /usr/local/gnat-arm/arm-eabi/lib/gnat/ravenscar-full-stm32f429disco/adalib/libgnat.a(s-secsta.o)
                0x000000000800aa04                system__secondary_stack__ss_get_max
 .text.system__secondary_stack__ss_init
                0x000000000800aa14       0x6c /usr/local/gnat-arm/arm-eabi/lib/gnat/ravenscar-full-stm32f429disco/adalib/libgnat.a(s-secsta.o)
                0x000000000800aa14                system__secondary_stack__ss_init
 .text.system__secondary_stack__ss_mark
                0x000000000800aa80        0xc /usr/local/gnat-arm/arm-eabi/lib/gnat/ravenscar-full-stm32f429disco/adalib/libgnat.a(s-secsta.o)
                0x000000000800aa80                system__secondary_stack__ss_mark
 .text.system__secondary_stack__ss_release
                0x000000000800aa8c        0xc /usr/local/gnat-arm/arm-eabi/lib/gnat/ravenscar-full-stm32f429disco/adalib/libgnat.a(s-secsta.o)
                0x000000000800aa8c                system__secondary_stack__ss_release
 .text          0x000000000800aa98        0x0 /usr/local/gnat-arm/arm-eabi/lib/gnat/ravenscar-full-stm32f429disco/adalib/libgnat.a(s-stalib.o)
 .text.system__standard_library__exception_dataIP
                0x000000000800aa98        0x8 /usr/local/gnat-arm/arm-eabi/lib/gnat/ravenscar-full-stm32f429disco/adalib/libgnat.a(s-stalib.o)
                0x000000000800aa98                system__standard_library__exception_dataIP
 .text.system__standard_library__abort_undefer_direct
                0x000000000800aaa0        0x4 /usr/local/gnat-arm/arm-eabi/lib/gnat/ravenscar-full-stm32f429disco/adalib/libgnat.a(s-stalib.o)
                0x000000000800aaa0                system__standard_library__abort_undefer_direct
 .text.system__standard_library__adafinal
                0x000000000800aaa4       0x1c /usr/local/gnat-arm/arm-eabi/lib/gnat/ravenscar-full-stm32f429disco/adalib/libgnat.a(s-stalib.o)
                0x000000000800aaa4                system__standard_library__adafinal
 .text.__gnat_break_start
                0x000000000800aac0        0x4 /usr/local/gnat-arm/arm-eabi/lib/gnat/ravenscar-full-stm32f429disco/adalib/libgnat.a(s-stalib.o)
                0x000000000800aac0                __gnat_break_start
 .text          0x000000000800aac4        0x0 /usr/local/gnat-arm/arm-eabi/lib/gnat/ravenscar-full-stm32f429disco/adalib/libgnat.a(s-textio.o)
 .text.system__text_io__initialize
                0x000000000800aac4        0xc /usr/local/gnat-arm/arm-eabi/lib/gnat/ravenscar-full-stm32f429disco/adalib/libgnat.a(s-textio.o)
                0x000000000800aac4                system__text_io__initialize
 .text.system__text_io__is_tx_ready
                0x000000000800aad0        0x4 /usr/local/gnat-arm/arm-eabi/lib/gnat/ravenscar-full-stm32f429disco/adalib/libgnat.a(s-textio.o)
                0x000000000800aad0                system__text_io__is_tx_ready
 .text.system__text_io__is_rx_ready
                0x000000000800aad4        0x4 /usr/local/gnat-arm/arm-eabi/lib/gnat/ravenscar-full-stm32f429disco/adalib/libgnat.a(s-textio.o)
                0x000000000800aad4                system__text_io__is_rx_ready
 .text.system__text_io__get
                0x000000000800aad8        0x4 /usr/local/gnat-arm/arm-eabi/lib/gnat/ravenscar-full-stm32f429disco/adalib/libgnat.a(s-textio.o)
                0x000000000800aad8                system__text_io__get
 .text.system__text_io__put
                0x000000000800aadc        0x4 /usr/local/gnat-arm/arm-eabi/lib/gnat/ravenscar-full-stm32f429disco/adalib/libgnat.a(s-textio.o)
                0x000000000800aadc                system__text_io__put
 .text.system__text_io__use_cr_lf_for_new_line
                0x000000000800aae0        0x4 /usr/local/gnat-arm/arm-eabi/lib/gnat/ravenscar-full-stm32f429disco/adalib/libgnat.a(s-textio.o)
                0x000000000800aae0                system__text_io__use_cr_lf_for_new_line
 .text          0x000000000800aae4        0x0 /usr/local/gnat-arm/arm-eabi/lib/gnat/ravenscar-full-stm32f429disco/adalib/libgnat.a(s-traceb.o)
 .text.system__traceback__backtrace_callback
                0x000000000800aae4       0x54 /usr/local/gnat-arm/arm-eabi/lib/gnat/ravenscar-full-stm32f429disco/adalib/libgnat.a(s-traceb.o)
 .text.system__traceback__unwind_context_typeIP
                0x000000000800ab38        0x8 /usr/local/gnat-arm/arm-eabi/lib/gnat/ravenscar-full-stm32f429disco/adalib/libgnat.a(s-traceb.o)
                0x000000000800ab38                system__traceback__unwind_context_typeIP
 .text.system__traceback__callback_params_typeIP
                0x000000000800ab40        0x8 /usr/local/gnat-arm/arm-eabi/lib/gnat/ravenscar-full-stm32f429disco/adalib/libgnat.a(s-traceb.o)
                0x000000000800ab40                system__traceback__callback_params_typeIP
 .text.system__traceback__call_chain
                0x000000000800ab48       0x2c /usr/local/gnat-arm/arm-eabi/lib/gnat/ravenscar-full-stm32f429disco/adalib/libgnat.a(s-traceb.o)
                0x000000000800ab48                system__traceback__call_chain
 .text          0x000000000800ab74        0x0 /usr/local/gnat-arm/arm-eabi/lib/gnat/ravenscar-full-stm32f429disco/adalib/libgnat.a(s-traent.o)
 .text.system__traceback_entries__tracebacks_arrayIP
                0x000000000800ab74        0x4 /usr/local/gnat-arm/arm-eabi/lib/gnat/ravenscar-full-stm32f429disco/adalib/libgnat.a(s-traent.o)
                0x000000000800ab74                system__traceback_entries__tracebacks_arrayIP
 .text.system__traceback_entries__pc_for
                0x000000000800ab78        0x4 /usr/local/gnat-arm/arm-eabi/lib/gnat/ravenscar-full-stm32f429disco/adalib/libgnat.a(s-traent.o)
                0x000000000800ab78                system__traceback_entries__pc_for
 .text.system__traceback_entries__tb_entry_for
                0x000000000800ab7c        0x4 /usr/local/gnat-arm/arm-eabi/lib/gnat/ravenscar-full-stm32f429disco/adalib/libgnat.a(s-traent.o)
                0x000000000800ab7c                system__traceback_entries__tb_entry_for
 .text          0x000000000800ab80        0x0 /usr/local/gnat-arm/arm-eabi/lib/gnat/ravenscar-full-stm32f429disco/adalib/libgnat.a(s-valuns.o)
 .text.system__val_uns__scan_raw_unsigned
                0x000000000800ab80      0x214 /usr/local/gnat-arm/arm-eabi/lib/gnat/ravenscar-full-stm32f429disco/adalib/libgnat.a(s-valuns.o)
                0x000000000800ab80                system__val_uns__scan_raw_unsigned
 .text.system__val_uns__scan_unsigned
                0x000000000800ad94       0x48 /usr/local/gnat-arm/arm-eabi/lib/gnat/ravenscar-full-stm32f429disco/adalib/libgnat.a(s-valuns.o)
                0x000000000800ad94                system__val_uns__scan_unsigned
 .text.system__val_uns__value_unsigned
                0x000000000800addc       0x4c /usr/local/gnat-arm/arm-eabi/lib/gnat/ravenscar-full-stm32f429disco/adalib/libgnat.a(s-valuns.o)
                0x000000000800addc                system__val_uns__value_unsigned
 .text          0x000000000800ae28        0x0 /usr/local/gnat-arm/arm-eabi/lib/gnat/ravenscar-full-stm32f429disco/adalib/libgnat.a(s-valuti.o)
 .text.system__val_util__bad_value
                0x000000000800ae28       0xcc /usr/local/gnat-arm/arm-eabi/lib/gnat/ravenscar-full-stm32f429disco/adalib/libgnat.a(s-valuti.o)
                0x000000000800ae28                system__val_util__bad_value
 .text.system__val_util__normalize_string
                0x000000000800aef4       0x80 /usr/local/gnat-arm/arm-eabi/lib/gnat/ravenscar-full-stm32f429disco/adalib/libgnat.a(s-valuti.o)
                0x000000000800aef4                system__val_util__normalize_string
 .text.system__val_util__scan_plus_sign
                0x000000000800af74       0x40 /usr/local/gnat-arm/arm-eabi/lib/gnat/ravenscar-full-stm32f429disco/adalib/libgnat.a(s-valuti.o)
                0x000000000800af74                system__val_util__scan_plus_sign
 .text.system__val_util__scan_sign
                0x000000000800afb4       0x5c /usr/local/gnat-arm/arm-eabi/lib/gnat/ravenscar-full-stm32f429disco/adalib/libgnat.a(s-valuti.o)
                0x000000000800afb4                system__val_util__scan_sign
 .text.system__val_util__scan_trailing_blanks
                0x000000000800b010       0x20 /usr/local/gnat-arm/arm-eabi/lib/gnat/ravenscar-full-stm32f429disco/adalib/libgnat.a(s-valuti.o)
                0x000000000800b010                system__val_util__scan_trailing_blanks
 .text.system__val_util__scan_underscore
                0x000000000800b030       0x48 /usr/local/gnat-arm/arm-eabi/lib/gnat/ravenscar-full-stm32f429disco/adalib/libgnat.a(s-valuti.o)
                0x000000000800b030                system__val_util__scan_underscore
 .text.system__val_util__scan_exponent
                0x000000000800b078       0xe0 /usr/local/gnat-arm/arm-eabi/lib/gnat/ravenscar-full-stm32f429disco/adalib/libgnat.a(s-valuti.o)
                0x000000000800b078                system__val_util__scan_exponent
 .text          0x000000000800b158        0x0 /usr/local/gnat-arm/arm-eabi/lib/gnat/ravenscar-full-stm32f429disco/adalib/libgnat.a(s-wchcon.o)
 .text.system__wch_con__get_wc_encoding_method
                0x000000000800b158       0x40 /usr/local/gnat-arm/arm-eabi/lib/gnat/ravenscar-full-stm32f429disco/adalib/libgnat.a(s-wchcon.o)
                0x000000000800b158                system__wch_con__get_wc_encoding_method
 .text.system__wch_con__get_wc_encoding_method__2
                0x000000000800b198       0xb4 /usr/local/gnat-arm/arm-eabi/lib/gnat/ravenscar-full-stm32f429disco/adalib/libgnat.a(s-wchcon.o)
                0x000000000800b198                system__wch_con__get_wc_encoding_method__2
 .text.system__wch_con__is_start_of_encoding
                0x000000000800b24c       0x1c /usr/local/gnat-arm/arm-eabi/lib/gnat/ravenscar-full-stm32f429disco/adalib/libgnat.a(s-wchcon.o)
                0x000000000800b24c                system__wch_con__is_start_of_encoding
 .text          0x000000000800b268        0x0 /usr/local/gnat-arm/arm-eabi/lib/gnat/ravenscar-full-stm32f429disco/adalib/libgnat.a(s-wchstw.o)
 .text.system__wch_stw__get_next_code__in_char.5652
                0x000000000800b268       0x38 /usr/local/gnat-arm/arm-eabi/lib/gnat/ravenscar-full-stm32f429disco/adalib/libgnat.a(s-wchstw.o)
 .text.system__wch_stw__get_next_code__get_utf_32__get_hex.5664
                0x000000000800b2a0       0x58 /usr/local/gnat-arm/arm-eabi/lib/gnat/ravenscar-full-stm32f429disco/adalib/libgnat.a(s-wchstw.o)
 .text.system__wch_stw__get_next_code
                0x000000000800b2f8      0x2f4 /usr/local/gnat-arm/arm-eabi/lib/gnat/ravenscar-full-stm32f429disco/adalib/libgnat.a(s-wchstw.o)
 .text.system__wch_stw__string_to_wide_string
                0x000000000800b5ec       0x6c /usr/local/gnat-arm/arm-eabi/lib/gnat/ravenscar-full-stm32f429disco/adalib/libgnat.a(s-wchstw.o)
                0x000000000800b5ec                system__wch_stw__string_to_wide_string
 .text.system__wch_stw__string_to_wide_wide_string
                0x000000000800b658       0x58 /usr/local/gnat-arm/arm-eabi/lib/gnat/ravenscar-full-stm32f429disco/adalib/libgnat.a(s-wchstw.o)
                0x000000000800b658                system__wch_stw__string_to_wide_wide_string
 .text          0x000000000800b6b0       0x70 /usr/local/gnat-arm/arm-eabi/lib/gnat/ravenscar-full-stm32f429disco/adalib/libgnat.a(start-rom.o)
                0x000000000800b6b0                _start_rom
 .text          0x000000000800b720       0x20 /usr/local/gnat-arm/arm-eabi/lib/gnat/ravenscar-full-stm32f429disco/adalib/libgnat.a(breakpoint_handler-cortexm.o)
                0x000000000800b720                __gnat_bkpt_trap
 .text          0x000000000800b740        0x0 /usr/local/gnat-arm/arm-eabi/lib/gnat/ravenscar-full-stm32f429disco/adalib/libgnat.a(s-casuti.o)
 .text.system__case_util__to_lower
                0x000000000800b740       0x20 /usr/local/gnat-arm/arm-eabi/lib/gnat/ravenscar-full-stm32f429disco/adalib/libgnat.a(s-casuti.o)
                0x000000000800b740                system__case_util__to_lower
 .text.system__case_util__to_lower__2
                0x000000000800b760       0x40 /usr/local/gnat-arm/arm-eabi/lib/gnat/ravenscar-full-stm32f429disco/adalib/libgnat.a(s-casuti.o)
                0x000000000800b760                system__case_util__to_lower__2
 .text.system__case_util__to_lower__3
                0x000000000800b7a0       0x5c /usr/local/gnat-arm/arm-eabi/lib/gnat/ravenscar-full-stm32f429disco/adalib/libgnat.a(s-casuti.o)
                0x000000000800b7a0                system__case_util__to_lower__3
 .text.system__case_util__to_mixed
                0x000000000800b7fc       0x6c /usr/local/gnat-arm/arm-eabi/lib/gnat/ravenscar-full-stm32f429disco/adalib/libgnat.a(s-casuti.o)
                0x000000000800b7fc                system__case_util__to_mixed
 .text.system__case_util__to_mixed__2
                0x000000000800b868       0x5c /usr/local/gnat-arm/arm-eabi/lib/gnat/ravenscar-full-stm32f429disco/adalib/libgnat.a(s-casuti.o)
                0x000000000800b868                system__case_util__to_mixed__2
 .text.system__case_util__to_upper
                0x000000000800b8c4       0x20 /usr/local/gnat-arm/arm-eabi/lib/gnat/ravenscar-full-stm32f429disco/adalib/libgnat.a(s-casuti.o)
                0x000000000800b8c4                system__case_util__to_upper
 .text.system__case_util__to_upper__2
                0x000000000800b8e4       0x40 /usr/local/gnat-arm/arm-eabi/lib/gnat/ravenscar-full-stm32f429disco/adalib/libgnat.a(s-casuti.o)
                0x000000000800b8e4                system__case_util__to_upper__2
 .text.system__case_util__to_upper__3
                0x000000000800b924       0x5c /usr/local/gnat-arm/arm-eabi/lib/gnat/ravenscar-full-stm32f429disco/adalib/libgnat.a(s-casuti.o)
                0x000000000800b924                system__case_util__to_upper__3
 .text          0x000000000800b980        0x0 /usr/local/gnat-arm/arm-eabi/lib/gnat/ravenscar-full-stm32f429disco/adalib/libgnat.a(s-semiho.o)
 .text.system__semihosting__TbufferBIP
                0x000000000800b980        0x4 /usr/local/gnat-arm/arm-eabi/lib/gnat/ravenscar-full-stm32f429disco/adalib/libgnat.a(s-semiho.o)
                0x000000000800b980                system__semihosting__TbufferBIP
 .text.system__semihosting__put
                0x000000000800b984       0x7c /usr/local/gnat-arm/arm-eabi/lib/gnat/ravenscar-full-stm32f429disco/adalib/libgnat.a(s-semiho.o)
                0x000000000800b984                system__semihosting__put
 .text.system__semihosting__put__2
                0x000000000800ba00       0x20 /usr/local/gnat-arm/arm-eabi/lib/gnat/ravenscar-full-stm32f429disco/adalib/libgnat.a(s-semiho.o)
                0x000000000800ba00                system__semihosting__put__2
 .text.system__semihosting__get
                0x000000000800ba20       0x10 /usr/local/gnat-arm/arm-eabi/lib/gnat/ravenscar-full-stm32f429disco/adalib/libgnat.a(s-semiho.o)
                0x000000000800ba20                system__semihosting__get
 .text          0x000000000800ba30        0x0 /usr/local/gnat-arm/arm-eabi/lib/gnat/ravenscar-full-stm32f429disco/adalib/libgnat.a(s-wchjis.o)
 .text.system__wch_jis__euc_to_jis
                0x000000000800ba30       0x40 /usr/local/gnat-arm/arm-eabi/lib/gnat/ravenscar-full-stm32f429disco/adalib/libgnat.a(s-wchjis.o)
                0x000000000800ba30                system__wch_jis__euc_to_jis
 .text.system__wch_jis__jis_to_euc
                0x000000000800ba70       0x50 /usr/local/gnat-arm/arm-eabi/lib/gnat/ravenscar-full-stm32f429disco/adalib/libgnat.a(s-wchjis.o)
                0x000000000800ba70                system__wch_jis__jis_to_euc
 .text.system__wch_jis__jis_to_shift_jis
                0x000000000800bac0       0x50 /usr/local/gnat-arm/arm-eabi/lib/gnat/ravenscar-full-stm32f429disco/adalib/libgnat.a(s-wchjis.o)
                0x000000000800bac0                system__wch_jis__jis_to_shift_jis
 .text.system__wch_jis__shift_jis_to_jis
                0x000000000800bb10       0x54 /usr/local/gnat-arm/arm-eabi/lib/gnat/ravenscar-full-stm32f429disco/adalib/libgnat.a(s-wchjis.o)
                0x000000000800bb10                system__wch_jis__shift_jis_to_jis
 .text          0x000000000800bb64        0x0 /usr/local/gnat-arm/arm-eabi/lib/gnat/ravenscar-full-stm32f429disco/adalib/libgnat.a(setup_pll.o)
 .text._ada_setup_pll
                0x000000000800bb64      0x39c /usr/local/gnat-arm/arm-eabi/lib/gnat/ravenscar-full-stm32f429disco/adalib/libgnat.a(setup_pll.o)
                0x000000000800bb64                _ada_setup_pll
 .text          0x000000000800bf00      0x104 /usr/local/gnat-arm/arm-eabi/lib/gnat/ravenscar-full-stm32f429disco/adalib/libgnat.a(start-common.o)
                0x000000000800bf00                _stm32_start_common
 .text          0x000000000800c004        0x0 /usr/local/gnat-arm/arm-eabi/lib/gnat/ravenscar-full-stm32f429disco/adalib/libgnat.a(s-bbmcpa.o)
 .text.system__bb__mcu_parameters__is_pwr_stabilized
                0x000000000800c004       0x10 /usr/local/gnat-arm/arm-eabi/lib/gnat/ravenscar-full-stm32f429disco/adalib/libgnat.a(s-bbmcpa.o)
                0x000000000800c004                system__bb__mcu_parameters__is_pwr_stabilized
 .text.system__bb__mcu_parameters__pwr_initialize
                0x000000000800c014       0x10 /usr/local/gnat-arm/arm-eabi/lib/gnat/ravenscar-full-stm32f429disco/adalib/libgnat.a(s-bbmcpa.o)
                0x000000000800c014                system__bb__mcu_parameters__pwr_initialize
 .text.system__bb__mcu_parameters__pwr_overdrive_enable
                0x000000000800c024       0x2c /usr/local/gnat-arm/arm-eabi/lib/gnat/ravenscar-full-stm32f429disco/adalib/libgnat.a(s-bbmcpa.o)
                0x000000000800c024                system__bb__mcu_parameters__pwr_overdrive_enable
 .text          0x000000000800c050       0x20 /usr/local/gnat-arm/bin/../lib/gcc/arm-eabi/7.3.1/../../../../arm-eabi/lib/thumb/v7e-m/fpv4-sp/hard/libc.a(lib_a-malloc.o)
                0x000000000800c050                malloc
                0x000000000800c060                free
 .text          0x000000000800c070      0x538 /usr/local/gnat-arm/bin/../lib/gcc/arm-eabi/7.3.1/../../../../arm-eabi/lib/thumb/v7e-m/fpv4-sp/hard/libc.a(lib_a-mallocr.o)
                0x000000000800c070                _malloc_r
 .text          0x000000000800c5a8       0x64 /usr/local/gnat-arm/bin/../lib/gcc/arm-eabi/7.3.1/../../../../arm-eabi/lib/thumb/v7e-m/fpv4-sp/hard/libc.a(lib_a-memcmp.o)
                0x000000000800c5a8                memcmp
 .text          0x000000000800c60c      0x134 /usr/local/gnat-arm/bin/../lib/gcc/arm-eabi/7.3.1/../../../../arm-eabi/lib/thumb/v7e-m/fpv4-sp/hard/libc.a(lib_a-memcpy.o)
                0x000000000800c60c                memcpy
 .text          0x000000000800c740       0xc8 /usr/local/gnat-arm/bin/../lib/gcc/arm-eabi/7.3.1/../../../../arm-eabi/lib/thumb/v7e-m/fpv4-sp/hard/libc.a(lib_a-memmove.o)
                0x000000000800c740                memmove
 .text          0x000000000800c808       0x94 /usr/local/gnat-arm/bin/../lib/gcc/arm-eabi/7.3.1/../../../../arm-eabi/lib/thumb/v7e-m/fpv4-sp/hard/libc.a(lib_a-memset.o)
                0x000000000800c808                memset
 .text          0x000000000800c89c        0x8 /usr/local/gnat-arm/bin/../lib/gcc/arm-eabi/7.3.1/../../../../arm-eabi/lib/thumb/v7e-m/fpv4-sp/hard/libc.a(lib_a-mlock.o)
                0x000000000800c89c                __malloc_lock
                0x000000000800c8a0                __malloc_unlock
 .text          0x000000000800c8a4       0x10 /usr/local/gnat-arm/bin/../lib/gcc/arm-eabi/7.3.1/../../../../arm-eabi/lib/thumb/v7e-m/fpv4-sp/hard/libc.a(lib_a-realloc.o)
                0x000000000800c8a4                realloc
 .text          0x000000000800c8b4      0x35c /usr/local/gnat-arm/bin/../lib/gcc/arm-eabi/7.3.1/../../../../arm-eabi/lib/thumb/v7e-m/fpv4-sp/hard/libc.a(lib_a-reallocr.o)
                0x000000000800c8b4                _realloc_r
 .text          0x000000000800cc10       0x24 /usr/local/gnat-arm/bin/../lib/gcc/arm-eabi/7.3.1/../../../../arm-eabi/lib/thumb/v7e-m/fpv4-sp/hard/libc.a(lib_a-sbrkr.o)
                0x000000000800cc10                _sbrk_r
 .text          0x000000000800cc34      0x288 /usr/local/gnat-arm/bin/../lib/gcc/arm-eabi/7.3.1/../../../../arm-eabi/lib/thumb/v7e-m/fpv4-sp/hard/libc.a(lib_a-freer.o)
                0x000000000800cc34                _malloc_trim_r
                0x000000000800ccd4                _free_r
 .text          0x000000000800cebc        0x0 /usr/local/gnat-arm/bin/../lib/gcc/arm-eabi/7.3.1/../../../../arm-eabi/lib/thumb/v7e-m/fpv4-sp/hard/libc.a(lib_a-impure.o)
 .text          0x000000000800cebc       0xb0 /usr/local/gnat-arm/bin/../lib/gcc/arm-eabi/7.3.1/../../../../arm-eabi/lib/thumb/v7e-m/fpv4-sp/hard/libc.a(lib_a-reent.o)
                0x000000000800cebc                cleanup_glue
                0x000000000800cee4                _reclaim_reent
 .text          0x000000000800cf6c       0xa0 /usr/local/gnat-arm/bin/../lib/gcc/arm-eabi/7.3.1/thumb/v7e-m/fpv4-sp/hard/libgcc.a(_aeabi_ldivmod.o)
                0x000000000800cf6c                __aeabi_ldivmod
 .text          0x000000000800d00c       0x30 /usr/local/gnat-arm/bin/../lib/gcc/arm-eabi/7.3.1/thumb/v7e-m/fpv4-sp/hard/libgcc.a(_aeabi_uldivmod.o)
                0x000000000800d00c                __aeabi_uldivmod
 .text          0x000000000800d03c      0x2cc /usr/local/gnat-arm/bin/../lib/gcc/arm-eabi/7.3.1/thumb/v7e-m/fpv4-sp/hard/libgcc.a(_udivmoddi4.o)
                0x000000000800d03c                __udivmoddi4
 .text          0x000000000800d308      0x9dc /usr/local/gnat-arm/bin/../lib/gcc/arm-eabi/7.3.1/thumb/v7e-m/fpv4-sp/hard/libgcc.a(unwind-arm.o)
                0x000000000800d5b0                _Unwind_GetCFA
                0x000000000800d5b4                __gnu_Unwind_RaiseException
                0x000000000800d614                __gnu_Unwind_ForcedUnwind
                0x000000000800d628                __gnu_Unwind_Resume
                0x000000000800d66c                __gnu_Unwind_Resume_or_Rethrow
                0x000000000800d67c                _Unwind_Complete
                0x000000000800d680                _Unwind_DeleteException
                0x000000000800d68c                _Unwind_VRS_Get
                0x000000000800d6d0                _Unwind_VRS_Set
                0x000000000800d718                __gnu_Unwind_Backtrace
                0x000000000800da5c                __aeabi_unwind_cpp_pr0
                0x000000000800da60                __aeabi_unwind_cpp_pr1
                0x000000000800da64                __aeabi_unwind_cpp_pr2
                0x000000000800da68                _Unwind_VRS_Pop
 .text          0x000000000800dce4      0x1ac /usr/local/gnat-arm/bin/../lib/gcc/arm-eabi/7.3.1/thumb/v7e-m/fpv4-sp/hard/libgcc.a(libunwind.o)
                0x000000000800dce4                __restore_core_regs
                0x000000000800dce4                restore_core_regs
                0x000000000800dcfc                __gnu_Unwind_Restore_VFP
                0x000000000800dd04                __gnu_Unwind_Save_VFP
                0x000000000800dd0c                __gnu_Unwind_Restore_VFP_D
                0x000000000800dd14                __gnu_Unwind_Save_VFP_D
                0x000000000800dd1c                __gnu_Unwind_Restore_VFP_D_16_to_31
                0x000000000800dd24                __gnu_Unwind_Save_VFP_D_16_to_31
                0x000000000800dd2c                __gnu_Unwind_Restore_WMMXD
                0x000000000800dd70                __gnu_Unwind_Save_WMMXD
                0x000000000800ddb4                __gnu_Unwind_Restore_WMMXC
                0x000000000800ddc8                __gnu_Unwind_Save_WMMXC
                0x000000000800dddc                ___Unwind_RaiseException
                0x000000000800dddc                _Unwind_RaiseException
                0x000000000800de00                ___Unwind_Resume
                0x000000000800de00                _Unwind_Resume
                0x000000000800de24                _Unwind_Resume_or_Rethrow
                0x000000000800de24                ___Unwind_Resume_or_Rethrow
                0x000000000800de48                ___Unwind_ForcedUnwind
                0x000000000800de48                _Unwind_ForcedUnwind
                0x000000000800de6c                _Unwind_Backtrace
                0x000000000800de6c                ___Unwind_Backtrace
 .text          0x000000000800de90      0x374 /usr/local/gnat-arm/bin/../lib/gcc/arm-eabi/7.3.1/thumb/v7e-m/fpv4-sp/hard/libgcc.a(pr-support.o)
                0x000000000800dee8                __gnu_unwind_execute
                0x000000000800e1ac                __gnu_unwind_frame
                0x000000000800e1d4                _Unwind_GetRegionStart
                0x000000000800e1e0                _Unwind_GetLanguageSpecificData
                0x000000000800e1f4                _Unwind_GetDataRelBase
                0x000000000800e1fc                _Unwind_GetTextRelBase
 .text          0x000000000800e204        0x4 /usr/local/gnat-arm/bin/../lib/gcc/arm-eabi/7.3.1/thumb/v7e-m/fpv4-sp/hard/libgcc.a(_dvmd_tls.o)
                0x000000000800e204                __aeabi_ldiv0
                0x000000000800e204                __aeabi_idiv0
 .text          0x000000000800e208        0x0 /usr/local/gnat-arm/arm-eabi/lib/gnat/ravenscar-full-stm32f429disco/adalib//libgnat.a(newlib-bb.o)
 .text.isatty   0x000000000800e208        0x4 /usr/local/gnat-arm/arm-eabi/lib/gnat/ravenscar-full-stm32f429disco/adalib//libgnat.a(newlib-bb.o)
                0x000000000800e208                isatty
 .text.write    0x000000000800e20c       0x54 /usr/local/gnat-arm/arm-eabi/lib/gnat/ravenscar-full-stm32f429disco/adalib//libgnat.a(newlib-bb.o)
                0x000000000800e20c                write
 .text.close    0x000000000800e260        0x4 /usr/local/gnat-arm/arm-eabi/lib/gnat/ravenscar-full-stm32f429disco/adalib//libgnat.a(newlib-bb.o)
                0x000000000800e260                close
 .text.fstat    0x000000000800e264        0x8 /usr/local/gnat-arm/arm-eabi/lib/gnat/ravenscar-full-stm32f429disco/adalib//libgnat.a(newlib-bb.o)
                0x000000000800e264                fstat
 .text.lseek    0x000000000800e26c       0x10 /usr/local/gnat-arm/arm-eabi/lib/gnat/ravenscar-full-stm32f429disco/adalib//libgnat.a(newlib-bb.o)
                0x000000000800e26c                lseek
 .text.read     0x000000000800e27c       0x54 /usr/local/gnat-arm/arm-eabi/lib/gnat/ravenscar-full-stm32f429disco/adalib//libgnat.a(newlib-bb.o)
                0x000000000800e27c                read
 .text.sbrk     0x000000000800e2d0       0x20 /usr/local/gnat-arm/arm-eabi/lib/gnat/ravenscar-full-stm32f429disco/adalib//libgnat.a(newlib-bb.o)
                0x000000000800e2d0                sbrk
 .text          0x000000000800e2f0        0xc /usr/local/gnat-arm/bin/../lib/gcc/arm-eabi/7.3.1/../../../../arm-eabi/lib/thumb/v7e-m/fpv4-sp/hard/libc.a(lib_a-errno.o)
                0x000000000800e2f0                __errno
 *(.gnu.warning)

.glue_7         0x000000000800e2fc        0x0
 .glue_7        0x000000000800e2fc        0x0 linker stubs

.glue_7t        0x000000000800e2fc        0x0
 .glue_7t       0x000000000800e2fc        0x0 linker stubs

.vfp11_veneer   0x000000000800e2fc        0x0
 .vfp11_veneer  0x000000000800e2fc        0x0 linker stubs

.v4_bx          0x000000000800e2fc        0x0
 .v4_bx         0x000000000800e2fc        0x0 linker stubs

.iplt           0x000000000800e2fc        0x0
 .iplt          0x000000000800e2fc        0x0 unit01.o

.ARM.extab      0x000000000800e2fc      0xe24
 *(.ARM.extab* .gnu.linkonce.armextab.*)
 .ARM.extab     0x000000000800e2fc        0x0 unit01.o
 .ARM.extab     0x000000000800e2fc       0x18 b__unit01.o
 .ARM.extab     0x000000000800e314        0x0 /home/aquox/Scrivania/Arm/edf-ravenscar-arm/build/s-multip.o
 .ARM.extab     0x000000000800e314       0x9c /home/aquox/Scrivania/Arm/edf-ravenscar-arm/build/s-bbbosu.o
 .ARM.extab     0x000000000800e3b0       0x84 /home/aquox/Scrivania/Arm/edf-ravenscar-arm/build/s-bbtiev.o
 .ARM.extab     0x000000000800e434      0x138 /home/aquox/Scrivania/Arm/edf-ravenscar-arm/build/s-bbthqu.o
 .ARM.extab     0x000000000800e56c        0x0 /home/aquox/Scrivania/Arm/edf-ravenscar-arm/build/s-bbprot.o
 .ARM.extab     0x000000000800e56c       0xe4 /home/aquox/Scrivania/Arm/edf-ravenscar-arm/build/s-bbthre.o
 .ARM.extab     0x000000000800e650       0x54 /home/aquox/Scrivania/Arm/edf-ravenscar-arm/build/s-bbinte.o
 .ARM.extab     0x000000000800e6a4       0x78 /home/aquox/Scrivania/Arm/edf-ravenscar-arm/build/s-bbcppr.o
 .ARM.extab     0x000000000800e71c       0x40 /home/aquox/Scrivania/Arm/edf-ravenscar-arm/build/a-elchha.o
 .ARM.extab     0x000000000800e75c        0xc /home/aquox/Scrivania/Arm/edf-ravenscar-arm/build/s-taspri.o
 .ARM.extab     0x000000000800e768        0xc /home/aquox/Scrivania/Arm/edf-ravenscar-arm/build/s-tasdeb.o
 .ARM.extab     0x000000000800e774       0x48 /home/aquox/Scrivania/Arm/edf-ravenscar-arm/build/s-taskin.o
 .ARM.extab     0x000000000800e7bc       0x24 /home/aquox/Scrivania/Arm/edf-ravenscar-arm/build/s-soflin.o
 .ARM.extab     0x000000000800e7e0      0x138 /home/aquox/Scrivania/Arm/edf-ravenscar-arm/build/s-bbtime.o
 .ARM.extab     0x000000000800e918       0x60 /home/aquox/Scrivania/Arm/edf-ravenscar-arm/build/s-mufalo.o
 .ARM.extab     0x000000000800e978      0x120 /home/aquox/Scrivania/Arm/edf-ravenscar-arm/build/s-taprop.o
 .ARM.extab     0x000000000800ea98       0xe4 /home/aquox/Scrivania/Arm/edf-ravenscar-arm/build/a-reatim.o
 .ARM.extab     0x000000000800eb7c       0x18 /home/aquox/Scrivania/Arm/edf-ravenscar-arm/build/a-retide.o
 .ARM.extab     0x000000000800eb94       0x48 /home/aquox/Scrivania/Arm/edf-ravenscar-arm/build/s-tarest.o
 .ARM.extab     0x000000000800ebdc        0xc /home/aquox/Scrivania/Arm/edf-ravenscar-arm/build/system_time.o
 .ARM.extab     0x000000000800ebe8       0x37 /home/aquox/Scrivania/Arm/edf-ravenscar-arm/build/print_task.o
 *fill*         0x000000000800ec1f        0x1 
 .ARM.extab     0x000000000800ec20       0x44 /home/aquox/Scrivania/Arm/edf-ravenscar-arm/build/cyclic_tasks.o
 .ARM.extab.text.ada__exceptions__exception_occurrenceIP
                0x000000000800ec64        0x0 /usr/local/gnat-arm/arm-eabi/lib/gnat/ravenscar-full-stm32f429disco/adalib/libgnat.a(a-except.o)
 .ARM.extab.text.ada__exceptions__exception_data__append_info_addressXn
                0x000000000800ec64        0x0 /usr/local/gnat-arm/arm-eabi/lib/gnat/ravenscar-full-stm32f429disco/adalib/libgnat.a(a-except.o)
 .ARM.extab.text.ada__exceptions__exception_data__append_info_basic_exception_informationXn
                0x000000000800ec64        0x0 /usr/local/gnat-arm/arm-eabi/lib/gnat/ravenscar-full-stm32f429disco/adalib/libgnat.a(a-except.o)
 .ARM.extab.text.ada__exceptions__exception_data__append_info_characterXn
                0x000000000800ec64        0x0 /usr/local/gnat-arm/arm-eabi/lib/gnat/ravenscar-full-stm32f429disco/adalib/libgnat.a(a-except.o)
 .ARM.extab.text.__gnat_append_info_e_msg
                0x000000000800ec64        0x0 /usr/local/gnat-arm/arm-eabi/lib/gnat/ravenscar-full-stm32f429disco/adalib/libgnat.a(a-except.o)
 .ARM.extab.text.ada__exceptions__exception_data__append_info_exception_nameXn
                0x000000000800ec64        0x0 /usr/local/gnat-arm/arm-eabi/lib/gnat/ravenscar-full-stm32f429disco/adalib/libgnat.a(a-except.o)
 .ARM.extab.text.ada__exceptions__exception_data__append_info_exception_name__2Xn
                0x000000000800ec64        0xc /usr/local/gnat-arm/arm-eabi/lib/gnat/ravenscar-full-stm32f429disco/adalib/libgnat.a(a-except.o)
 .ARM.extab.text.ada__exceptions__exception_data__exception_info_maxlengthXn
                0x000000000800ec70        0x0 /usr/local/gnat-arm/arm-eabi/lib/gnat/ravenscar-full-stm32f429disco/adalib/libgnat.a(a-except.o)
 .ARM.extab.text.ada__exceptions__exception_data__append_info_natXn
                0x000000000800ec70        0x0 /usr/local/gnat-arm/arm-eabi/lib/gnat/ravenscar-full-stm32f429disco/adalib/libgnat.a(a-except.o)
 .ARM.extab.text.ada__exceptions__exception_data__append_info_nlXn
                0x000000000800ec70        0xc /usr/local/gnat-arm/arm-eabi/lib/gnat/ravenscar-full-stm32f429disco/adalib/libgnat.a(a-except.o)
 .ARM.extab.text.ada__exceptions__exception_data__append_info_stringXn
                0x000000000800ec7c        0x0 /usr/local/gnat-arm/arm-eabi/lib/gnat/ravenscar-full-stm32f429disco/adalib/libgnat.a(a-except.o)
 .ARM.extab.text.__gnat_append_info_u_e_info
                0x000000000800ec7c        0x0 /usr/local/gnat-arm/arm-eabi/lib/gnat/ravenscar-full-stm32f429disco/adalib/libgnat.a(a-except.o)
 .ARM.extab.text.ada__exceptions__exception_data__append_info_untailored_exception_tracebackXn
                0x000000000800ec7c        0x0 /usr/local/gnat-arm/arm-eabi/lib/gnat/ravenscar-full-stm32f429disco/adalib/libgnat.a(a-except.o)
 .ARM.extab.text.ada__exceptions__exception_data__basic_exception_info_maxlengthXn
                0x000000000800ec7c        0x0 /usr/local/gnat-arm/arm-eabi/lib/gnat/ravenscar-full-stm32f429disco/adalib/libgnat.a(a-except.o)
 .ARM.extab.text.ada__exceptions__exception_data__exception_informationXn
                0x000000000800ec7c        0x0 /usr/local/gnat-arm/arm-eabi/lib/gnat/ravenscar-full-stm32f429disco/adalib/libgnat.a(a-except.o)
 .ARM.extab.text.__gnat_exception_msg_len
                0x000000000800ec7c        0x0 /usr/local/gnat-arm/arm-eabi/lib/gnat/ravenscar-full-stm32f429disco/adalib/libgnat.a(a-except.o)
 .ARM.extab.text.ada__exceptions__exception_data__exception_name_lengthXn
                0x000000000800ec7c        0x0 /usr/local/gnat-arm/arm-eabi/lib/gnat/ravenscar-full-stm32f429disco/adalib/libgnat.a(a-except.o)
 .ARM.extab.text.ada__exceptions__exception_data__exception_name_length__2Xn
                0x000000000800ec7c        0xc /usr/local/gnat-arm/arm-eabi/lib/gnat/ravenscar-full-stm32f429disco/adalib/libgnat.a(a-except.o)
 .ARM.extab.text.ada__exceptions__exception_data__untailored_exception_tracebackXn
                0x000000000800ec88        0x0 /usr/local/gnat-arm/arm-eabi/lib/gnat/ravenscar-full-stm32f429disco/adalib/libgnat.a(a-except.o)
 .ARM.extab.text.ada__exceptions__exception_data__untailored_exception_informationXn
                0x000000000800ec88        0x0 /usr/local/gnat-arm/arm-eabi/lib/gnat/ravenscar-full-stm32f429disco/adalib/libgnat.a(a-except.o)
 .ARM.extab.text.ada__exceptions__exception_data__set_exception_c_msg__append_number.6680
                0x000000000800ec88        0x0 /usr/local/gnat-arm/arm-eabi/lib/gnat/ravenscar-full-stm32f429disco/adalib/libgnat.a(a-except.o)
 .ARM.extab.text.ada__exceptions__exception_data__set_exception_c_msgXn
                0x000000000800ec88        0x0 /usr/local/gnat-arm/arm-eabi/lib/gnat/ravenscar-full-stm32f429disco/adalib/libgnat.a(a-except.o)
 .ARM.extab.text.ada__exceptions__exception_data__set_exception_msgXn
                0x000000000800ec88        0x0 /usr/local/gnat-arm/arm-eabi/lib/gnat/ravenscar-full-stm32f429disco/adalib/libgnat.a(a-except.o)
 .ARM.extab.text.ada__exceptions__exception_data__tailored_exception_tracebackXn
                0x000000000800ec88        0x0 /usr/local/gnat-arm/arm-eabi/lib/gnat/ravenscar-full-stm32f429disco/adalib/libgnat.a(a-except.o)
 .ARM.extab.text.ada__exceptions__exception_data__untailored_exception_traceback_maxlengthXn
                0x000000000800ec88        0x0 /usr/local/gnat-arm/arm-eabi/lib/gnat/ravenscar-full-stm32f429disco/adalib/libgnat.a(a-except.o)
 .ARM.extab.text.ada__exceptions__exception_propagation__allocate_occurrenceXn
                0x000000000800ec88        0xc /usr/local/gnat-arm/arm-eabi/lib/gnat/ravenscar-full-stm32f429disco/adalib/libgnat.a(a-except.o)
 .ARM.extab.text.ada__exceptions__exception_propagation__gnat_gcc_exception_cleanupXn
                0x000000000800ec94        0xc /usr/local/gnat-arm/arm-eabi/lib/gnat/ravenscar-full-stm32f429disco/adalib/libgnat.a(a-except.o)
 .ARM.extab.text.ada__exceptions__exception_propagation__set_foreign_occurrenceXn
                0x000000000800eca0        0x0 /usr/local/gnat-arm/arm-eabi/lib/gnat/ravenscar-full-stm32f429disco/adalib/libgnat.a(a-except.o)
 .ARM.extab.text.__gnat_setup_current_excep
                0x000000000800eca0        0x0 /usr/local/gnat-arm/arm-eabi/lib/gnat/ravenscar-full-stm32f429disco/adalib/libgnat.a(a-except.o)
 .ARM.extab.text.__gnat_begin_handler
                0x000000000800eca0        0x0 /usr/local/gnat-arm/arm-eabi/lib/gnat/ravenscar-full-stm32f429disco/adalib/libgnat.a(a-except.o)
 .ARM.extab.text.__gnat_end_handler
                0x000000000800eca0        0xc /usr/local/gnat-arm/arm-eabi/lib/gnat/ravenscar-full-stm32f429disco/adalib/libgnat.a(a-except.o)
 .ARM.extab.text.__gnat_reraise_zcx
                0x000000000800ecac        0xc /usr/local/gnat-arm/arm-eabi/lib/gnat/ravenscar-full-stm32f429disco/adalib/libgnat.a(a-except.o)
 .ARM.extab.text.ada__exceptions__exception_propagation__propagate_gcc_exceptionXn
                0x000000000800ecb8        0x0 /usr/local/gnat-arm/arm-eabi/lib/gnat/ravenscar-full-stm32f429disco/adalib/libgnat.a(a-except.o)
 .ARM.extab.text.ada__exceptions__exception_propagation__propagate_exceptionXn
                0x000000000800ecb8        0xc /usr/local/gnat-arm/arm-eabi/lib/gnat/ravenscar-full-stm32f429disco/adalib/libgnat.a(a-except.o)
 .ARM.extab.text.__gnat_set_exception_parameter
                0x000000000800ecc4        0x0 /usr/local/gnat-arm/arm-eabi/lib/gnat/ravenscar-full-stm32f429disco/adalib/libgnat.a(a-except.o)
 .ARM.extab.text.__gnat_unhandled_except_handler
                0x000000000800ecc4        0xc /usr/local/gnat-arm/arm-eabi/lib/gnat/ravenscar-full-stm32f429disco/adalib/libgnat.a(a-except.o)
 .ARM.extab.text.__gnat_eid_for
                0x000000000800ecd0        0x0 /usr/local/gnat-arm/arm-eabi/lib/gnat/ravenscar-full-stm32f429disco/adalib/libgnat.a(a-except.o)
 .ARM.extab.text.__gnat_foreign_data_for
                0x000000000800ecd0        0x0 /usr/local/gnat-arm/arm-eabi/lib/gnat/ravenscar-full-stm32f429disco/adalib/libgnat.a(a-except.o)
 .ARM.extab.text.__gnat_is_handled_by_others
                0x000000000800ecd0        0x0 /usr/local/gnat-arm/arm-eabi/lib/gnat/ravenscar-full-stm32f429disco/adalib/libgnat.a(a-except.o)
 .ARM.extab.text.__gnat_language_for
                0x000000000800ecd0        0x0 /usr/local/gnat-arm/arm-eabi/lib/gnat/ravenscar-full-stm32f429disco/adalib/libgnat.a(a-except.o)
 .ARM.extab.text.ada__exceptions__exception_traces__notify_exception__B281b___finalizerXn.6941
                0x000000000800ecd0        0xc /usr/local/gnat-arm/arm-eabi/lib/gnat/ravenscar-full-stm32f429disco/adalib/libgnat.a(a-except.o)
 .ARM.extab.text.ada__exceptions__exception_traces__notify_exceptionXn
                0x000000000800ecdc       0x24 /usr/local/gnat-arm/arm-eabi/lib/gnat/ravenscar-full-stm32f429disco/adalib/libgnat.a(a-except.o)
 .ARM.extab.text.__gnat_notify_handled_exception
                0x000000000800ed00        0xc /usr/local/gnat-arm/arm-eabi/lib/gnat/ravenscar-full-stm32f429disco/adalib/libgnat.a(a-except.o)
 .ARM.extab.text.__gnat_notify_unhandled_exception
                0x000000000800ed0c        0x0 /usr/local/gnat-arm/arm-eabi/lib/gnat/ravenscar-full-stm32f429disco/adalib/libgnat.a(a-except.o)
 .ARM.extab.text.ada__exceptions__exception_traces__unhandled_exception_terminateXn
                0x000000000800ed0c        0x0 /usr/local/gnat-arm/arm-eabi/lib/gnat/ravenscar-full-stm32f429disco/adalib/libgnat.a(a-except.o)
 .ARM.extab.text.ada__exceptions__stream_attributes__eid_to_stringXn
                0x000000000800ed0c        0x0 /usr/local/gnat-arm/arm-eabi/lib/gnat/ravenscar-full-stm32f429disco/adalib/libgnat.a(a-except.o)
 .ARM.extab.text.ada__exceptions__stream_attributes__eo_to_stringXn
                0x000000000800ed0c        0x0 /usr/local/gnat-arm/arm-eabi/lib/gnat/ravenscar-full-stm32f429disco/adalib/libgnat.a(a-except.o)
 .ARM.extab.text.ada__exceptions__stream_attributes__string_to_eidXn
                0x000000000800ed0c        0xc /usr/local/gnat-arm/arm-eabi/lib/gnat/ravenscar-full-stm32f429disco/adalib/libgnat.a(a-except.o)
 .ARM.extab.text.ada__exceptions__stream_attributes__string_to_eo__bad_eo.6986
                0x000000000800ed18        0xc /usr/local/gnat-arm/arm-eabi/lib/gnat/ravenscar-full-stm32f429disco/adalib/libgnat.a(a-except.o)
 .ARM.extab.text.ada__exceptions__stream_attributes__string_to_eoXn
                0x000000000800ed24        0x0 /usr/local/gnat-arm/arm-eabi/lib/gnat/ravenscar-full-stm32f429disco/adalib/libgnat.a(a-except.o)
 .ARM.extab.text.ada__exceptions__stream_attributes__string_to_eo__next_string.6988
                0x000000000800ed24        0x0 /usr/local/gnat-arm/arm-eabi/lib/gnat/ravenscar-full-stm32f429disco/adalib/libgnat.a(a-except.o)
 .ARM.extab.text.ada__exceptions__poll
                0x000000000800ed24        0x0 /usr/local/gnat-arm/arm-eabi/lib/gnat/ravenscar-full-stm32f429disco/adalib/libgnat.a(a-except.o)
 .ARM.extab.text.ada__exceptions__code_address_for_aaa
                0x000000000800ed24        0x0 /usr/local/gnat-arm/arm-eabi/lib/gnat/ravenscar-full-stm32f429disco/adalib/libgnat.a(a-except.o)
 .ARM.extab.text.ada__exceptions__call_chain
                0x000000000800ed24        0x0 /usr/local/gnat-arm/arm-eabi/lib/gnat/ravenscar-full-stm32f429disco/adalib/libgnat.a(a-except.o)
 .ARM.extab.text.ada__exceptions__eid_to_string
                0x000000000800ed24        0x0 /usr/local/gnat-arm/arm-eabi/lib/gnat/ravenscar-full-stm32f429disco/adalib/libgnat.a(a-except.o)
 .ARM.extab.text.ada__exceptions__eo_to_string
                0x000000000800ed24        0x0 /usr/local/gnat-arm/arm-eabi/lib/gnat/ravenscar-full-stm32f429disco/adalib/libgnat.a(a-except.o)
 .ARM.extab.text.ada__exceptions__exception_identity
                0x000000000800ed24        0x0 /usr/local/gnat-arm/arm-eabi/lib/gnat/ravenscar-full-stm32f429disco/adalib/libgnat.a(a-except.o)
 .ARM.extab.text.ada__exceptions__exception_information
                0x000000000800ed24        0x0 /usr/local/gnat-arm/arm-eabi/lib/gnat/ravenscar-full-stm32f429disco/adalib/libgnat.a(a-except.o)
 .ARM.extab.text.ada__exceptions__exception_message
                0x000000000800ed24        0x0 /usr/local/gnat-arm/arm-eabi/lib/gnat/ravenscar-full-stm32f429disco/adalib/libgnat.a(a-except.o)
 .ARM.extab.text.ada__exceptions__exception_name
                0x000000000800ed24        0x0 /usr/local/gnat-arm/arm-eabi/lib/gnat/ravenscar-full-stm32f429disco/adalib/libgnat.a(a-except.o)
 .ARM.extab.text.ada__exceptions__exception_name__2
                0x000000000800ed24        0x0 /usr/local/gnat-arm/arm-eabi/lib/gnat/ravenscar-full-stm32f429disco/adalib/libgnat.a(a-except.o)
 .ARM.extab.text.ada__exceptions__exception_name_simple
                0x000000000800ed24        0x0 /usr/local/gnat-arm/arm-eabi/lib/gnat/ravenscar-full-stm32f429disco/adalib/libgnat.a(a-except.o)
 .ARM.extab.text.__gnat_get_exception_machine_occurrence
                0x000000000800ed24        0x0 /usr/local/gnat-arm/arm-eabi/lib/gnat/ravenscar-full-stm32f429disco/adalib/libgnat.a(a-except.o)
 .ARM.extab.text.ada__exceptions__image
                0x000000000800ed24        0x0 /usr/local/gnat-arm/arm-eabi/lib/gnat/ravenscar-full-stm32f429disco/adalib/libgnat.a(a-except.o)
 .ARM.extab.text.__gnat_raise_constraint_error
                0x000000000800ed24        0x0 /usr/local/gnat-arm/arm-eabi/lib/gnat/ravenscar-full-stm32f429disco/adalib/libgnat.a(a-except.o)
 .ARM.extab.text.__gnat_raise_constraint_error_msg
                0x000000000800ed24        0x0 /usr/local/gnat-arm/arm-eabi/lib/gnat/ravenscar-full-stm32f429disco/adalib/libgnat.a(a-except.o)
 .ARM.extab.text.ada__exceptions__complete_occurrence
                0x000000000800ed24        0x0 /usr/local/gnat-arm/arm-eabi/lib/gnat/ravenscar-full-stm32f429disco/adalib/libgnat.a(a-except.o)
 .ARM.extab.text.ada__exceptions__complete_and_propagate_occurrence
                0x000000000800ed24        0x0 /usr/local/gnat-arm/arm-eabi/lib/gnat/ravenscar-full-stm32f429disco/adalib/libgnat.a(a-except.o)
 .ARM.extab.text.ada__exceptions__raise_exception
                0x000000000800ed24        0xc /usr/local/gnat-arm/arm-eabi/lib/gnat/ravenscar-full-stm32f429disco/adalib/libgnat.a(a-except.o)
 .ARM.extab.text.__gnat_raise_exception
                0x000000000800ed30        0x0 /usr/local/gnat-arm/arm-eabi/lib/gnat/ravenscar-full-stm32f429disco/adalib/libgnat.a(a-except.o)
 .ARM.extab.text.ada__exceptions__raise_exception_no_defer
                0x000000000800ed30        0x0 /usr/local/gnat-arm/arm-eabi/lib/gnat/ravenscar-full-stm32f429disco/adalib/libgnat.a(a-except.o)
 .ARM.extab.text.ada__exceptions__raise_from_controlled_operation___finalizer.7202
                0x000000000800ed30        0xc /usr/local/gnat-arm/arm-eabi/lib/gnat/ravenscar-full-stm32f429disco/adalib/libgnat.a(a-except.o)
 .ARM.extab.text.__gnat_raise_from_controlled_operation
                0x000000000800ed3c       0x2f /usr/local/gnat-arm/arm-eabi/lib/gnat/ravenscar-full-stm32f429disco/adalib/libgnat.a(a-except.o)
 *fill*         0x000000000800ed6b        0x1 
 .ARM.extab.text.ada__exceptions__raise_from_controlled_operation__B_3___finalizer.7237
                0x000000000800ed6c        0xc /usr/local/gnat-arm/arm-eabi/lib/gnat/ravenscar-full-stm32f429disco/adalib/libgnat.a(a-except.o)
 .ARM.extab.text.ada__exceptions__create_occurrence_from_signal_handler
                0x000000000800ed78        0x0 /usr/local/gnat-arm/arm-eabi/lib/gnat/ravenscar-full-stm32f429disco/adalib/libgnat.a(a-except.o)
 .ARM.extab.text.__gnat_create_machine_occurrence_from_signal_handler
                0x000000000800ed78        0xc /usr/local/gnat-arm/arm-eabi/lib/gnat/ravenscar-full-stm32f429disco/adalib/libgnat.a(a-except.o)
 .ARM.extab.text.ada__exceptions__raise_from_signal_handler
                0x000000000800ed84        0xc /usr/local/gnat-arm/arm-eabi/lib/gnat/ravenscar-full-stm32f429disco/adalib/libgnat.a(a-except.o)
 .ARM.extab.text.__gnat_raise_program_error
                0x000000000800ed90        0x0 /usr/local/gnat-arm/arm-eabi/lib/gnat/ravenscar-full-stm32f429disco/adalib/libgnat.a(a-except.o)
 .ARM.extab.text.__gnat_raise_program_error_msg
                0x000000000800ed90        0x0 /usr/local/gnat-arm/arm-eabi/lib/gnat/ravenscar-full-stm32f429disco/adalib/libgnat.a(a-except.o)
 .ARM.extab.text.__gnat_raise_storage_error
                0x000000000800ed90        0x0 /usr/local/gnat-arm/arm-eabi/lib/gnat/ravenscar-full-stm32f429disco/adalib/libgnat.a(a-except.o)
 .ARM.extab.text.__gnat_raise_storage_error_msg
                0x000000000800ed90        0x0 /usr/local/gnat-arm/arm-eabi/lib/gnat/ravenscar-full-stm32f429disco/adalib/libgnat.a(a-except.o)
 .ARM.extab.text.ada__exceptions__raise_with_location_and_msg
                0x000000000800ed90        0x0 /usr/local/gnat-arm/arm-eabi/lib/gnat/ravenscar-full-stm32f429disco/adalib/libgnat.a(a-except.o)
 .ARM.extab.text.__gnat_raise_with_msg
                0x000000000800ed90        0x0 /usr/local/gnat-arm/arm-eabi/lib/gnat/ravenscar-full-stm32f429disco/adalib/libgnat.a(a-except.o)
 .ARM.extab.text.__gnat_rcheck_CE_Access_Check
                0x000000000800ed90        0xc /usr/local/gnat-arm/arm-eabi/lib/gnat/ravenscar-full-stm32f429disco/adalib/libgnat.a(a-except.o)
 .ARM.extab.text.__gnat_rcheck_CE_Null_Access_Parameter
                0x000000000800ed9c        0xc /usr/local/gnat-arm/arm-eabi/lib/gnat/ravenscar-full-stm32f429disco/adalib/libgnat.a(a-except.o)
 .ARM.extab.text.__gnat_rcheck_CE_Discriminant_Check
                0x000000000800eda8        0xc /usr/local/gnat-arm/arm-eabi/lib/gnat/ravenscar-full-stm32f429disco/adalib/libgnat.a(a-except.o)
 .ARM.extab.text.__gnat_rcheck_CE_Divide_By_Zero
                0x000000000800edb4        0xc /usr/local/gnat-arm/arm-eabi/lib/gnat/ravenscar-full-stm32f429disco/adalib/libgnat.a(a-except.o)
 .ARM.extab.text.__gnat_rcheck_CE_Explicit_Raise
                0x000000000800edc0        0xc /usr/local/gnat-arm/arm-eabi/lib/gnat/ravenscar-full-stm32f429disco/adalib/libgnat.a(a-except.o)
 .ARM.extab.text.__gnat_rcheck_CE_Index_Check
                0x000000000800edcc        0xc /usr/local/gnat-arm/arm-eabi/lib/gnat/ravenscar-full-stm32f429disco/adalib/libgnat.a(a-except.o)
 .ARM.extab.text.__gnat_rcheck_CE_Invalid_Data
                0x000000000800edd8        0xc /usr/local/gnat-arm/arm-eabi/lib/gnat/ravenscar-full-stm32f429disco/adalib/libgnat.a(a-except.o)
 .ARM.extab.text.__gnat_rcheck_CE_Length_Check
                0x000000000800ede4        0xc /usr/local/gnat-arm/arm-eabi/lib/gnat/ravenscar-full-stm32f429disco/adalib/libgnat.a(a-except.o)
 .ARM.extab.text.__gnat_rcheck_CE_Null_Exception_Id
                0x000000000800edf0        0xc /usr/local/gnat-arm/arm-eabi/lib/gnat/ravenscar-full-stm32f429disco/adalib/libgnat.a(a-except.o)
 .ARM.extab.text.__gnat_rcheck_CE_Null_Not_Allowed
                0x000000000800edfc        0xc /usr/local/gnat-arm/arm-eabi/lib/gnat/ravenscar-full-stm32f429disco/adalib/libgnat.a(a-except.o)
 .ARM.extab.text.__gnat_rcheck_CE_Overflow_Check
                0x000000000800ee08        0xc /usr/local/gnat-arm/arm-eabi/lib/gnat/ravenscar-full-stm32f429disco/adalib/libgnat.a(a-except.o)
 .ARM.extab.text.__gnat_rcheck_CE_Partition_Check
                0x000000000800ee14        0xc /usr/local/gnat-arm/arm-eabi/lib/gnat/ravenscar-full-stm32f429disco/adalib/libgnat.a(a-except.o)
 .ARM.extab.text.__gnat_rcheck_CE_Range_Check
                0x000000000800ee20        0xc /usr/local/gnat-arm/arm-eabi/lib/gnat/ravenscar-full-stm32f429disco/adalib/libgnat.a(a-except.o)
 .ARM.extab.text.__gnat_rcheck_CE_Tag_Check
                0x000000000800ee2c        0xc /usr/local/gnat-arm/arm-eabi/lib/gnat/ravenscar-full-stm32f429disco/adalib/libgnat.a(a-except.o)
 .ARM.extab.text.__gnat_rcheck_PE_Access_Before_Elaboration
                0x000000000800ee38        0xc /usr/local/gnat-arm/arm-eabi/lib/gnat/ravenscar-full-stm32f429disco/adalib/libgnat.a(a-except.o)
 .ARM.extab.text.__gnat_rcheck_PE_Accessibility_Check
                0x000000000800ee44        0xc /usr/local/gnat-arm/arm-eabi/lib/gnat/ravenscar-full-stm32f429disco/adalib/libgnat.a(a-except.o)
 .ARM.extab.text.__gnat_rcheck_PE_Address_Of_Intrinsic
                0x000000000800ee50        0xc /usr/local/gnat-arm/arm-eabi/lib/gnat/ravenscar-full-stm32f429disco/adalib/libgnat.a(a-except.o)
 .ARM.extab.text.__gnat_rcheck_PE_Aliased_Parameters
                0x000000000800ee5c        0xc /usr/local/gnat-arm/arm-eabi/lib/gnat/ravenscar-full-stm32f429disco/adalib/libgnat.a(a-except.o)
 .ARM.extab.text.__gnat_rcheck_PE_All_Guards_Closed
                0x000000000800ee68        0xc /usr/local/gnat-arm/arm-eabi/lib/gnat/ravenscar-full-stm32f429disco/adalib/libgnat.a(a-except.o)
 .ARM.extab.text.__gnat_rcheck_PE_Bad_Predicated_Generic_Type
                0x000000000800ee74        0xc /usr/local/gnat-arm/arm-eabi/lib/gnat/ravenscar-full-stm32f429disco/adalib/libgnat.a(a-except.o)
 .ARM.extab.text.__gnat_rcheck_PE_Build_In_Place_Mismatch
                0x000000000800ee80        0xc /usr/local/gnat-arm/arm-eabi/lib/gnat/ravenscar-full-stm32f429disco/adalib/libgnat.a(a-except.o)
 .ARM.extab.text.__gnat_rcheck_PE_Current_Task_In_Entry_Body
                0x000000000800ee8c        0xc /usr/local/gnat-arm/arm-eabi/lib/gnat/ravenscar-full-stm32f429disco/adalib/libgnat.a(a-except.o)
 .ARM.extab.text.__gnat_rcheck_PE_Duplicated_Entry_Address
                0x000000000800ee98        0xc /usr/local/gnat-arm/arm-eabi/lib/gnat/ravenscar-full-stm32f429disco/adalib/libgnat.a(a-except.o)
 .ARM.extab.text.__gnat_rcheck_PE_Explicit_Raise
                0x000000000800eea4        0xc /usr/local/gnat-arm/arm-eabi/lib/gnat/ravenscar-full-stm32f429disco/adalib/libgnat.a(a-except.o)
 .ARM.extab.text.__gnat_rcheck_PE_Implicit_Return
                0x000000000800eeb0        0xc /usr/local/gnat-arm/arm-eabi/lib/gnat/ravenscar-full-stm32f429disco/adalib/libgnat.a(a-except.o)
 .ARM.extab.text.__gnat_rcheck_PE_Misaligned_Address_Value
                0x000000000800eebc        0xc /usr/local/gnat-arm/arm-eabi/lib/gnat/ravenscar-full-stm32f429disco/adalib/libgnat.a(a-except.o)
 .ARM.extab.text.__gnat_rcheck_PE_Missing_Return
                0x000000000800eec8        0xc /usr/local/gnat-arm/arm-eabi/lib/gnat/ravenscar-full-stm32f429disco/adalib/libgnat.a(a-except.o)
 .ARM.extab.text.__gnat_rcheck_PE_Non_Transportable_Actual
                0x000000000800eed4        0xc /usr/local/gnat-arm/arm-eabi/lib/gnat/ravenscar-full-stm32f429disco/adalib/libgnat.a(a-except.o)
 .ARM.extab.text.__gnat_rcheck_PE_Overlaid_Controlled_Object
                0x000000000800eee0        0xc /usr/local/gnat-arm/arm-eabi/lib/gnat/ravenscar-full-stm32f429disco/adalib/libgnat.a(a-except.o)
 .ARM.extab.text.__gnat_rcheck_PE_Potentially_Blocking_Operation
                0x000000000800eeec        0xc /usr/local/gnat-arm/arm-eabi/lib/gnat/ravenscar-full-stm32f429disco/adalib/libgnat.a(a-except.o)
 .ARM.extab.text.__gnat_rcheck_PE_Stream_Operation_Not_Allowed
                0x000000000800eef8        0xc /usr/local/gnat-arm/arm-eabi/lib/gnat/ravenscar-full-stm32f429disco/adalib/libgnat.a(a-except.o)
 .ARM.extab.text.__gnat_rcheck_PE_Stubbed_Subprogram_Called
                0x000000000800ef04        0xc /usr/local/gnat-arm/arm-eabi/lib/gnat/ravenscar-full-stm32f429disco/adalib/libgnat.a(a-except.o)
 .ARM.extab.text.__gnat_rcheck_PE_Unchecked_Union_Restriction
                0x000000000800ef10        0xc /usr/local/gnat-arm/arm-eabi/lib/gnat/ravenscar-full-stm32f429disco/adalib/libgnat.a(a-except.o)
 .ARM.extab.text.__gnat_rcheck_SE_Empty_Storage_Pool
                0x000000000800ef1c        0xc /usr/local/gnat-arm/arm-eabi/lib/gnat/ravenscar-full-stm32f429disco/adalib/libgnat.a(a-except.o)
 .ARM.extab.text.__gnat_rcheck_SE_Explicit_Raise
                0x000000000800ef28        0xc /usr/local/gnat-arm/arm-eabi/lib/gnat/ravenscar-full-stm32f429disco/adalib/libgnat.a(a-except.o)
 .ARM.extab.text.__gnat_rcheck_SE_Infinite_Recursion
                0x000000000800ef34        0xc /usr/local/gnat-arm/arm-eabi/lib/gnat/ravenscar-full-stm32f429disco/adalib/libgnat.a(a-except.o)
 .ARM.extab.text.__gnat_rcheck_SE_Object_Too_Large
                0x000000000800ef40        0xc /usr/local/gnat-arm/arm-eabi/lib/gnat/ravenscar-full-stm32f429disco/adalib/libgnat.a(a-except.o)
 .ARM.extab.text.__gnat_rcheck_CE_Access_Check_ext
                0x000000000800ef4c        0xc /usr/local/gnat-arm/arm-eabi/lib/gnat/ravenscar-full-stm32f429disco/adalib/libgnat.a(a-except.o)
 .ARM.extab.text.ada__exceptions__rcheck_ce_index_check_ext___finalizer.7309
                0x000000000800ef58        0xc /usr/local/gnat-arm/arm-eabi/lib/gnat/ravenscar-full-stm32f429disco/adalib/libgnat.a(a-except.o)
 .ARM.extab.text.__gnat_rcheck_CE_Index_Check_ext
                0x000000000800ef64       0x1b /usr/local/gnat-arm/arm-eabi/lib/gnat/ravenscar-full-stm32f429disco/adalib/libgnat.a(a-except.o)
 *fill*         0x000000000800ef7f        0x1 
 .ARM.extab.text.ada__exceptions__rcheck_ce_invalid_data_ext___finalizer.7384
                0x000000000800ef80        0xc /usr/local/gnat-arm/arm-eabi/lib/gnat/ravenscar-full-stm32f429disco/adalib/libgnat.a(a-except.o)
 .ARM.extab.text.__gnat_rcheck_CE_Invalid_Data_ext
                0x000000000800ef8c       0x1b /usr/local/gnat-arm/arm-eabi/lib/gnat/ravenscar-full-stm32f429disco/adalib/libgnat.a(a-except.o)
 *fill*         0x000000000800efa7        0x1 
 .ARM.extab.text.ada__exceptions__rcheck_ce_range_check_ext___finalizer.7459
                0x000000000800efa8        0xc /usr/local/gnat-arm/arm-eabi/lib/gnat/ravenscar-full-stm32f429disco/adalib/libgnat.a(a-except.o)
 .ARM.extab.text.__gnat_rcheck_CE_Range_Check_ext
                0x000000000800efb4       0x1b /usr/local/gnat-arm/arm-eabi/lib/gnat/ravenscar-full-stm32f429disco/adalib/libgnat.a(a-except.o)
 .ARM.extab.text.__gnat_rcheck_PE_Finalize_Raised_Exception
                0x000000000800efcf        0x0 /usr/local/gnat-arm/arm-eabi/lib/gnat/ravenscar-full-stm32f429disco/adalib/libgnat.a(a-except.o)
 .ARM.extab.text.__gnat_reraise
                0x000000000800efcf        0x0 /usr/local/gnat-arm/arm-eabi/lib/gnat/ravenscar-full-stm32f429disco/adalib/libgnat.a(a-except.o)
 *fill*         0x000000000800efcf        0x1 
 .ARM.extab.text.__gnat_reraise_library_exception_if_any
                0x000000000800efd0        0xc /usr/local/gnat-arm/arm-eabi/lib/gnat/ravenscar-full-stm32f429disco/adalib/libgnat.a(a-except.o)
 .ARM.extab.text.ada__exceptions__reraise_occurrence
                0x000000000800efdc        0xc /usr/local/gnat-arm/arm-eabi/lib/gnat/ravenscar-full-stm32f429disco/adalib/libgnat.a(a-except.o)
 .ARM.extab.text.ada__exceptions__reraise_occurrence_always
                0x000000000800efe8        0xc /usr/local/gnat-arm/arm-eabi/lib/gnat/ravenscar-full-stm32f429disco/adalib/libgnat.a(a-except.o)
 .ARM.extab.text.ada__exceptions__reraise_occurrence_no_defer
                0x000000000800eff4        0x0 /usr/local/gnat-arm/arm-eabi/lib/gnat/ravenscar-full-stm32f429disco/adalib/libgnat.a(a-except.o)
 .ARM.extab.text.ada__exceptions__save_occurrence
                0x000000000800eff4        0x0 /usr/local/gnat-arm/arm-eabi/lib/gnat/ravenscar-full-stm32f429disco/adalib/libgnat.a(a-except.o)
 .ARM.extab.text.ada__exceptions__save_occurrence__2
                0x000000000800eff4        0x0 /usr/local/gnat-arm/arm-eabi/lib/gnat/ravenscar-full-stm32f429disco/adalib/libgnat.a(a-except.o)
 .ARM.extab.text.ada__exceptions__string_to_eid
                0x000000000800eff4        0xc /usr/local/gnat-arm/arm-eabi/lib/gnat/ravenscar-full-stm32f429disco/adalib/libgnat.a(a-except.o)
 .ARM.extab.text.ada__exceptions__string_to_eo
                0x000000000800f000        0x0 /usr/local/gnat-arm/arm-eabi/lib/gnat/ravenscar-full-stm32f429disco/adalib/libgnat.a(a-except.o)
 .ARM.extab.text.__gnat_to_stderr_char
                0x000000000800f000        0xc /usr/local/gnat-arm/arm-eabi/lib/gnat/ravenscar-full-stm32f429disco/adalib/libgnat.a(a-except.o)
 .ARM.extab.text.__gnat_to_stderr
                0x000000000800f00c        0x0 /usr/local/gnat-arm/arm-eabi/lib/gnat/ravenscar-full-stm32f429disco/adalib/libgnat.a(a-except.o)
 .ARM.extab.text.__gnat_transfer_occurrence
                0x000000000800f00c        0x0 /usr/local/gnat-arm/arm-eabi/lib/gnat/ravenscar-full-stm32f429disco/adalib/libgnat.a(a-except.o)
 .ARM.extab.text.ada__exceptions__triggered_by_abort
                0x000000000800f00c        0xc /usr/local/gnat-arm/arm-eabi/lib/gnat/ravenscar-full-stm32f429disco/adalib/libgnat.a(a-except.o)
 .ARM.extab.text.ada__exceptions__wide_exception_name
                0x000000000800f018        0x0 /usr/local/gnat-arm/arm-eabi/lib/gnat/ravenscar-full-stm32f429disco/adalib/libgnat.a(a-except.o)
 .ARM.extab.text.ada__exceptions__wide_exception_name__2
                0x000000000800f018        0x0 /usr/local/gnat-arm/arm-eabi/lib/gnat/ravenscar-full-stm32f429disco/adalib/libgnat.a(a-except.o)
 .ARM.extab.text.ada__exceptions__wide_wide_exception_name
                0x000000000800f018        0x0 /usr/local/gnat-arm/arm-eabi/lib/gnat/ravenscar-full-stm32f429disco/adalib/libgnat.a(a-except.o)
 .ARM.extab.text.ada__exceptions__wide_wide_exception_name__2
                0x000000000800f018        0x0 /usr/local/gnat-arm/arm-eabi/lib/gnat/ravenscar-full-stm32f429disco/adalib/libgnat.a(a-except.o)
 .ARM.extab.text.ada__exceptions__code_address_for_zzz
                0x000000000800f018        0x0 /usr/local/gnat-arm/arm-eabi/lib/gnat/ravenscar-full-stm32f429disco/adalib/libgnat.a(a-except.o)
 .ARM.extab.text.ada__tags__iw_membership__2
                0x000000000800f018        0x0 /usr/local/gnat-arm/arm-eabi/lib/gnat/ravenscar-full-stm32f429disco/adalib/libgnat.a(a-tags.o)
 .ARM.extab.text.ada__tags__tag_arrayIP
                0x000000000800f018        0x0 /usr/local/gnat-arm/arm-eabi/lib/gnat/ravenscar-full-stm32f429disco/adalib/libgnat.a(a-tags.o)
 .ARM.extab.text.ada__tags__interface_data_elementIP
                0x000000000800f018        0x0 /usr/local/gnat-arm/arm-eabi/lib/gnat/ravenscar-full-stm32f429disco/adalib/libgnat.a(a-tags.o)
 .ARM.extab.text.ada__tags__interfaces_arrayIP
                0x000000000800f018        0x0 /usr/local/gnat-arm/arm-eabi/lib/gnat/ravenscar-full-stm32f429disco/adalib/libgnat.a(a-tags.o)
 .ARM.extab.text.ada__tags__interface_dataIP
                0x000000000800f018        0x0 /usr/local/gnat-arm/arm-eabi/lib/gnat/ravenscar-full-stm32f429disco/adalib/libgnat.a(a-tags.o)
 .ARM.extab.text.ada__tags__select_specific_data_elementIP
                0x000000000800f018        0x0 /usr/local/gnat-arm/arm-eabi/lib/gnat/ravenscar-full-stm32f429disco/adalib/libgnat.a(a-tags.o)
 .ARM.extab.text.ada__tags__select_specific_data_arrayIP
                0x000000000800f018        0x0 /usr/local/gnat-arm/arm-eabi/lib/gnat/ravenscar-full-stm32f429disco/adalib/libgnat.a(a-tags.o)
 .ARM.extab.text.ada__tags__select_specific_dataIP
                0x000000000800f018        0x0 /usr/local/gnat-arm/arm-eabi/lib/gnat/ravenscar-full-stm32f429disco/adalib/libgnat.a(a-tags.o)
 .ARM.extab.text.ada__tags__address_arrayIP
                0x000000000800f018        0x0 /usr/local/gnat-arm/arm-eabi/lib/gnat/ravenscar-full-stm32f429disco/adalib/libgnat.a(a-tags.o)
 .ARM.extab.text.ada__tags__tag_tableIP
                0x000000000800f018        0x0 /usr/local/gnat-arm/arm-eabi/lib/gnat/ravenscar-full-stm32f429disco/adalib/libgnat.a(a-tags.o)
 .ARM.extab.text.ada__tags__type_specific_dataIP
                0x000000000800f018        0x0 /usr/local/gnat-arm/arm-eabi/lib/gnat/ravenscar-full-stm32f429disco/adalib/libgnat.a(a-tags.o)
 .ARM.extab.text.ada__tags__dispatch_table_wrapperIP
                0x000000000800f018        0x0 /usr/local/gnat-arm/arm-eabi/lib/gnat/ravenscar-full-stm32f429disco/adalib/libgnat.a(a-tags.o)
 .ARM.extab.text.ada__tags__no_dispatch_table_wrapperIP
                0x000000000800f018        0x0 /usr/local/gnat-arm/arm-eabi/lib/gnat/ravenscar-full-stm32f429disco/adalib/libgnat.a(a-tags.o)
 .ARM.extab.text.ada__tags__object_specific_data_arrayIP
                0x000000000800f018        0x0 /usr/local/gnat-arm/arm-eabi/lib/gnat/ravenscar-full-stm32f429disco/adalib/libgnat.a(a-tags.o)
 .ARM.extab.text.ada__tags__object_specific_dataIP
                0x000000000800f018        0x0 /usr/local/gnat-arm/arm-eabi/lib/gnat/ravenscar-full-stm32f429disco/adalib/libgnat.a(a-tags.o)
 .ARM.extab.text.ada__tags__external_tag_htable__TtableBIPXn
                0x000000000800f018        0x0 /usr/local/gnat-arm/arm-eabi/lib/gnat/ravenscar-full-stm32f429disco/adalib/libgnat.a(a-tags.o)
 .ARM.extab.text.ada__tags__external_tag_htable__get_firstXn
                0x000000000800f018        0x0 /usr/local/gnat-arm/arm-eabi/lib/gnat/ravenscar-full-stm32f429disco/adalib/libgnat.a(a-tags.o)
 .ARM.extab.text.ada__tags__external_tag_htable__get_nextXn
                0x000000000800f018        0x0 /usr/local/gnat-arm/arm-eabi/lib/gnat/ravenscar-full-stm32f429disco/adalib/libgnat.a(a-tags.o)
 .ARM.extab.text.ada__tags__external_tag_htable__get_non_nullXn
                0x000000000800f018        0x0 /usr/local/gnat-arm/arm-eabi/lib/gnat/ravenscar-full-stm32f429disco/adalib/libgnat.a(a-tags.o)
 .ARM.extab.text.ada__tags__external_tag_htable__resetXn
                0x000000000800f018        0x0 /usr/local/gnat-arm/arm-eabi/lib/gnat/ravenscar-full-stm32f429disco/adalib/libgnat.a(a-tags.o)
 .ARM.extab.text.ada__tags__htable_subprograms__equalXn
                0x000000000800f018        0x0 /usr/local/gnat-arm/arm-eabi/lib/gnat/ravenscar-full-stm32f429disco/adalib/libgnat.a(a-tags.o)
 .ARM.extab.text.ada__tags__htable_subprograms__get_ht_linkXn
                0x000000000800f018        0x0 /usr/local/gnat-arm/arm-eabi/lib/gnat/ravenscar-full-stm32f429disco/adalib/libgnat.a(a-tags.o)
 .ARM.extab.text.ada__tags__htable_subprograms__hashXn
                0x000000000800f018        0x0 /usr/local/gnat-arm/arm-eabi/lib/gnat/ravenscar-full-stm32f429disco/adalib/libgnat.a(a-tags.o)
 .ARM.extab.text.ada__tags__external_tag_htable__getXn
                0x000000000800f018        0x0 /usr/local/gnat-arm/arm-eabi/lib/gnat/ravenscar-full-stm32f429disco/adalib/libgnat.a(a-tags.o)
 .ARM.extab.text.ada__tags__external_tag_htable__presentXn
                0x000000000800f018        0xc /usr/local/gnat-arm/arm-eabi/lib/gnat/ravenscar-full-stm32f429disco/adalib/libgnat.a(a-tags.o)
 .ARM.extab.text.ada__tags__external_tag_htable__removeXn
                0x000000000800f024        0x0 /usr/local/gnat-arm/arm-eabi/lib/gnat/ravenscar-full-stm32f429disco/adalib/libgnat.a(a-tags.o)
 .ARM.extab.text.ada__tags__external_tag_htable__setXn
                0x000000000800f024        0x0 /usr/local/gnat-arm/arm-eabi/lib/gnat/ravenscar-full-stm32f429disco/adalib/libgnat.a(a-tags.o)
 .ARM.extab.text.ada__tags__external_tag_htable__set_if_not_presentXn
                0x000000000800f024        0x0 /usr/local/gnat-arm/arm-eabi/lib/gnat/ravenscar-full-stm32f429disco/adalib/libgnat.a(a-tags.o)
 .ARM.extab.text.ada__tags__htable_subprograms__set_ht_linkXn
                0x000000000800f024        0x0 /usr/local/gnat-arm/arm-eabi/lib/gnat/ravenscar-full-stm32f429disco/adalib/libgnat.a(a-tags.o)
 .ARM.extab.text.ada__tags__is_abstract
                0x000000000800f024        0xc /usr/local/gnat-arm/arm-eabi/lib/gnat/ravenscar-full-stm32f429disco/adalib/libgnat.a(a-tags.o)
 .ARM.extab.text.ada__tags__base_address
                0x000000000800f030        0x0 /usr/local/gnat-arm/arm-eabi/lib/gnat/ravenscar-full-stm32f429disco/adalib/libgnat.a(a-tags.o)
 .ARM.extab.text.ada__tags__check_tsd
                0x000000000800f030        0x0 /usr/local/gnat-arm/arm-eabi/lib/gnat/ravenscar-full-stm32f429disco/adalib/libgnat.a(a-tags.o)
 .ARM.extab.text.ada__tags__displace
                0x000000000800f030        0x0 /usr/local/gnat-arm/arm-eabi/lib/gnat/ravenscar-full-stm32f429disco/adalib/libgnat.a(a-tags.o)
 .ARM.extab.text.ada__tags__dt
                0x000000000800f030        0x0 /usr/local/gnat-arm/arm-eabi/lib/gnat/ravenscar-full-stm32f429disco/adalib/libgnat.a(a-tags.o)
 .ARM.extab.text.ada__tags__iw_membership
                0x000000000800f030        0x0 /usr/local/gnat-arm/arm-eabi/lib/gnat/ravenscar-full-stm32f429disco/adalib/libgnat.a(a-tags.o)
 .ARM.extab.text.ada__tags__expanded_name
                0x000000000800f030        0x0 /usr/local/gnat-arm/arm-eabi/lib/gnat/ravenscar-full-stm32f429disco/adalib/libgnat.a(a-tags.o)
 .ARM.extab.text.ada__tags__external_tag
                0x000000000800f030        0x0 /usr/local/gnat-arm/arm-eabi/lib/gnat/ravenscar-full-stm32f429disco/adalib/libgnat.a(a-tags.o)
 .ARM.extab.text.ada__tags__get_entry_index
                0x000000000800f030        0x0 /usr/local/gnat-arm/arm-eabi/lib/gnat/ravenscar-full-stm32f429disco/adalib/libgnat.a(a-tags.o)
 .ARM.extab.text.ada__tags__get_prim_op_kind
                0x000000000800f030        0x0 /usr/local/gnat-arm/arm-eabi/lib/gnat/ravenscar-full-stm32f429disco/adalib/libgnat.a(a-tags.o)
 .ARM.extab.text.ada__tags__get_offset_index
                0x000000000800f030        0x0 /usr/local/gnat-arm/arm-eabi/lib/gnat/ravenscar-full-stm32f429disco/adalib/libgnat.a(a-tags.o)
 .ARM.extab.text.ada__tags__get_tagged_kind
                0x000000000800f030        0x0 /usr/local/gnat-arm/arm-eabi/lib/gnat/ravenscar-full-stm32f429disco/adalib/libgnat.a(a-tags.o)
 .ARM.extab.text.ada__tags__interface_ancestor_tags
                0x000000000800f030        0x0 /usr/local/gnat-arm/arm-eabi/lib/gnat/ravenscar-full-stm32f429disco/adalib/libgnat.a(a-tags.o)
 .ARM.extab.text.ada__tags__internal_tag
                0x000000000800f030        0x0 /usr/local/gnat-arm/arm-eabi/lib/gnat/ravenscar-full-stm32f429disco/adalib/libgnat.a(a-tags.o)
 .ARM.extab.text.ada__tags__is_descendant_at_same_level
                0x000000000800f030        0x0 /usr/local/gnat-arm/arm-eabi/lib/gnat/ravenscar-full-stm32f429disco/adalib/libgnat.a(a-tags.o)
 .ARM.extab.text.ada__tags__descendant_tag
                0x000000000800f030        0x0 /usr/local/gnat-arm/arm-eabi/lib/gnat/ravenscar-full-stm32f429disco/adalib/libgnat.a(a-tags.o)
 .ARM.extab.text.ada__tags__offset_to_top
                0x000000000800f030        0x0 /usr/local/gnat-arm/arm-eabi/lib/gnat/ravenscar-full-stm32f429disco/adalib/libgnat.a(a-tags.o)
 .ARM.extab.text.ada__tags__needs_finalization
                0x000000000800f030        0x0 /usr/local/gnat-arm/arm-eabi/lib/gnat/ravenscar-full-stm32f429disco/adalib/libgnat.a(a-tags.o)
 .ARM.extab.text.ada__tags__parent_size
                0x000000000800f030        0xc /usr/local/gnat-arm/arm-eabi/lib/gnat/ravenscar-full-stm32f429disco/adalib/libgnat.a(a-tags.o)
 .ARM.extab.text.ada__tags__parent_tag
                0x000000000800f03c        0xc /usr/local/gnat-arm/arm-eabi/lib/gnat/ravenscar-full-stm32f429disco/adalib/libgnat.a(a-tags.o)
 .ARM.extab.text.ada__tags__register_interface_offset
                0x000000000800f048        0x0 /usr/local/gnat-arm/arm-eabi/lib/gnat/ravenscar-full-stm32f429disco/adalib/libgnat.a(a-tags.o)
 .ARM.extab.text.ada__tags__register_tag
                0x000000000800f048        0x0 /usr/local/gnat-arm/arm-eabi/lib/gnat/ravenscar-full-stm32f429disco/adalib/libgnat.a(a-tags.o)
 .ARM.extab.text.ada__tags__secondary_tag
                0x000000000800f048        0x0 /usr/local/gnat-arm/arm-eabi/lib/gnat/ravenscar-full-stm32f429disco/adalib/libgnat.a(a-tags.o)
 .ARM.extab.text.ada__tags__set_entry_index
                0x000000000800f048        0x0 /usr/local/gnat-arm/arm-eabi/lib/gnat/ravenscar-full-stm32f429disco/adalib/libgnat.a(a-tags.o)
 .ARM.extab.text.ada__tags__set_dynamic_offset_to_top
                0x000000000800f048        0x0 /usr/local/gnat-arm/arm-eabi/lib/gnat/ravenscar-full-stm32f429disco/adalib/libgnat.a(a-tags.o)
 .ARM.extab.text.ada__tags__set_prim_op_kind
                0x000000000800f048        0x0 /usr/local/gnat-arm/arm-eabi/lib/gnat/ravenscar-full-stm32f429disco/adalib/libgnat.a(a-tags.o)
 .ARM.extab.text.ada__tags__unregister_tag
                0x000000000800f048        0x0 /usr/local/gnat-arm/arm-eabi/lib/gnat/ravenscar-full-stm32f429disco/adalib/libgnat.a(a-tags.o)
 .ARM.extab.text.ada__tags__wide_expanded_name
                0x000000000800f048        0x0 /usr/local/gnat-arm/arm-eabi/lib/gnat/ravenscar-full-stm32f429disco/adalib/libgnat.a(a-tags.o)
 .ARM.extab.text.ada__tags__wide_wide_expanded_name
                0x000000000800f048        0x0 /usr/local/gnat-arm/arm-eabi/lib/gnat/ravenscar-full-stm32f429disco/adalib/libgnat.a(a-tags.o)
 .ARM.extab.text.ada__tags___elabb
                0x000000000800f048        0x0 /usr/local/gnat-arm/arm-eabi/lib/gnat/ravenscar-full-stm32f429disco/adalib/libgnat.a(a-tags.o)
 .ARM.extab.text.gnat__debug_utilities__image__2
                0x000000000800f048        0x0 /usr/local/gnat-arm/arm-eabi/lib/gnat/ravenscar-full-stm32f429disco/adalib/libgnat.a(g-debuti.o)
 .ARM.extab.text.gnat__debug_utilities__image
                0x000000000800f048        0x0 /usr/local/gnat-arm/arm-eabi/lib/gnat/ravenscar-full-stm32f429disco/adalib/libgnat.a(g-debuti.o)
 .ARM.extab.text.gnat__debug_utilities__image_c
                0x000000000800f048        0x0 /usr/local/gnat-arm/arm-eabi/lib/gnat/ravenscar-full-stm32f429disco/adalib/libgnat.a(g-debuti.o)
 .ARM.extab.text.gnat__debug_utilities__value
                0x000000000800f048        0x0 /usr/local/gnat-arm/arm-eabi/lib/gnat/ravenscar-full-stm32f429disco/adalib/libgnat.a(g-debuti.o)
 .ARM.extab.text.read_encoded_value_with_base
                0x000000000800f048        0x0 /usr/local/gnat-arm/arm-eabi/lib/gnat/ravenscar-full-stm32f429disco/adalib/libgnat.a(raise-gcc.o)
 .ARM.extab.text.base_of_encoded_value.part.2
                0x000000000800f048        0x0 /usr/local/gnat-arm/arm-eabi/lib/gnat/ravenscar-full-stm32f429disco/adalib/libgnat.a(raise-gcc.o)
 .ARM.extab.text.__gnat_personality_v0
                0x000000000800f048        0x0 /usr/local/gnat-arm/arm-eabi/lib/gnat/ravenscar-full-stm32f429disco/adalib/libgnat.a(raise-gcc.o)
 .ARM.extab.text.__gnat_cleanupunwind_handler
                0x000000000800f048        0xc /usr/local/gnat-arm/arm-eabi/lib/gnat/ravenscar-full-stm32f429disco/adalib/libgnat.a(raise-gcc.o)
 .ARM.extab.text.__gnat_Unwind_RaiseException
                0x000000000800f054        0x0 /usr/local/gnat-arm/arm-eabi/lib/gnat/ravenscar-full-stm32f429disco/adalib/libgnat.a(raise-gcc.o)
 .ARM.extab.text.__gnat_Unwind_ForcedUnwind
                0x000000000800f054        0x0 /usr/local/gnat-arm/arm-eabi/lib/gnat/ravenscar-full-stm32f429disco/adalib/libgnat.a(raise-gcc.o)
 .ARM.extab.text.system__bb__cpu_primitives__context_switch_trigger__initialize_context_switch
                0x000000000800f054        0x0 /usr/local/gnat-arm/arm-eabi/lib/gnat/ravenscar-full-stm32f429disco/adalib/libgnat.a(s-bcpcst.o)
 .ARM.extab.text.system__bb__cpu_primitives__context_switch_trigger__trigger_context_switch
                0x000000000800f054        0x0 /usr/local/gnat-arm/arm-eabi/lib/gnat/ravenscar-full-stm32f429disco/adalib/libgnat.a(s-bcpcst.o)
 .ARM.extab.text.__gnat_pend_sv_trap
                0x000000000800f054        0x0 /usr/local/gnat-arm/arm-eabi/lib/gnat/ravenscar-full-stm32f429disco/adalib/libgnat.a(s-bcpcst.o)
 .ARM.extab.text.__gnat_debug_raise_exception
                0x000000000800f054        0xc /usr/local/gnat-arm/arm-eabi/lib/gnat/ravenscar-full-stm32f429disco/adalib/libgnat.a(s-excdeb.o)
 .ARM.extab.text.__gnat_unhandled_exception
                0x000000000800f060        0xc /usr/local/gnat-arm/arm-eabi/lib/gnat/ravenscar-full-stm32f429disco/adalib/libgnat.a(s-excdeb.o)
 .ARM.extab.text.__gnat_debug_raise_assert_failure
                0x000000000800f06c        0x0 /usr/local/gnat-arm/arm-eabi/lib/gnat/ravenscar-full-stm32f429disco/adalib/libgnat.a(s-excdeb.o)
 .ARM.extab.text.local_raise
                0x000000000800f06c        0xc /usr/local/gnat-arm/arm-eabi/lib/gnat/ravenscar-full-stm32f429disco/adalib/libgnat.a(s-excdeb.o)
 .ARM.extab.text.system__exceptions__machine__Texception_classBIP
                0x000000000800f078        0x0 /usr/local/gnat-arm/arm-eabi/lib/gnat/ravenscar-full-stm32f429disco/adalib/libgnat.a(s-excmac.o)
 .ARM.extab.text.system__exceptions__machine__uint32_t_arrayIP
                0x000000000800f078        0x0 /usr/local/gnat-arm/arm-eabi/lib/gnat/ravenscar-full-stm32f429disco/adalib/libgnat.a(s-excmac.o)
 .ARM.extab.text.system__exceptions__machine__unwinder_cache_typeIP
                0x000000000800f078        0x0 /usr/local/gnat-arm/arm-eabi/lib/gnat/ravenscar-full-stm32f429disco/adalib/libgnat.a(s-excmac.o)
 .ARM.extab.text.system__exceptions__machine__barrier_cache_typeIP
                0x000000000800f078        0x0 /usr/local/gnat-arm/arm-eabi/lib/gnat/ravenscar-full-stm32f429disco/adalib/libgnat.a(s-excmac.o)
 .ARM.extab.text.system__exceptions__machine__cleanup_cache_typeIP
                0x000000000800f078        0x0 /usr/local/gnat-arm/arm-eabi/lib/gnat/ravenscar-full-stm32f429disco/adalib/libgnat.a(s-excmac.o)
 .ARM.extab.text.system__exceptions__machine__pr_cache_typeIP
                0x000000000800f078        0x0 /usr/local/gnat-arm/arm-eabi/lib/gnat/ravenscar-full-stm32f429disco/adalib/libgnat.a(s-excmac.o)
 .ARM.extab.text.system__exceptions__machine__unwind_control_blockIP
                0x000000000800f078        0x0 /usr/local/gnat-arm/arm-eabi/lib/gnat/ravenscar-full-stm32f429disco/adalib/libgnat.a(s-excmac.o)
 .ARM.extab.text.system__exceptions__machine__gnat_gcc_exceptionIP
                0x000000000800f078        0x0 /usr/local/gnat-arm/arm-eabi/lib/gnat/ravenscar-full-stm32f429disco/adalib/libgnat.a(s-excmac.o)
 .ARM.extab.text.system__exceptions__machine__new_occurrence
                0x000000000800f078        0xc /usr/local/gnat-arm/arm-eabi/lib/gnat/ravenscar-full-stm32f429disco/adalib/libgnat.a(s-excmac.o)
 .ARM.extab.text.system__exception_table__register.part.1
                0x000000000800f084        0x0 /usr/local/gnat-arm/arm-eabi/lib/gnat/ravenscar-full-stm32f429disco/adalib/libgnat.a(s-exctab.o)
 .ARM.extab.text.system__exception_table__exception_data_arrayIP
                0x000000000800f084        0x0 /usr/local/gnat-arm/arm-eabi/lib/gnat/ravenscar-full-stm32f429disco/adalib/libgnat.a(s-exctab.o)
 .ARM.extab.text.system__exception_table__ThtableBIP
                0x000000000800f084        0x0 /usr/local/gnat-arm/arm-eabi/lib/gnat/ravenscar-full-stm32f429disco/adalib/libgnat.a(s-exctab.o)
 .ARM.extab.text.system__exception_table__has_name
                0x000000000800f084        0x0 /usr/local/gnat-arm/arm-eabi/lib/gnat/ravenscar-full-stm32f429disco/adalib/libgnat.a(s-exctab.o)
 .ARM.extab.text.system__exception_table__lookup
                0x000000000800f084        0x0 /usr/local/gnat-arm/arm-eabi/lib/gnat/ravenscar-full-stm32f429disco/adalib/libgnat.a(s-exctab.o)
 .ARM.extab.text.system__exception_table__hash
                0x000000000800f084        0x0 /usr/local/gnat-arm/arm-eabi/lib/gnat/ravenscar-full-stm32f429disco/adalib/libgnat.a(s-exctab.o)
 .ARM.extab.text.system__exception_table__register
                0x000000000800f084        0x0 /usr/local/gnat-arm/arm-eabi/lib/gnat/ravenscar-full-stm32f429disco/adalib/libgnat.a(s-exctab.o)
 .ARM.extab.text.system__exception_table__get_registered_exceptions
                0x000000000800f084        0x0 /usr/local/gnat-arm/arm-eabi/lib/gnat/ravenscar-full-stm32f429disco/adalib/libgnat.a(s-exctab.o)
 .ARM.extab.text.system__exception_table__internal_exception
                0x000000000800f084        0x0 /usr/local/gnat-arm/arm-eabi/lib/gnat/ravenscar-full-stm32f429disco/adalib/libgnat.a(s-exctab.o)
 .ARM.extab.text.system__exception_table__register_exception
                0x000000000800f084        0x0 /usr/local/gnat-arm/arm-eabi/lib/gnat/ravenscar-full-stm32f429disco/adalib/libgnat.a(s-exctab.o)
 .ARM.extab.text.system__exception_table__registered_exceptions_count
                0x000000000800f084        0x0 /usr/local/gnat-arm/arm-eabi/lib/gnat/ravenscar-full-stm32f429disco/adalib/libgnat.a(s-exctab.o)
 .ARM.extab.text.system__exception_table___elabb
                0x000000000800f084        0xc /usr/local/gnat-arm/arm-eabi/lib/gnat/ravenscar-full-stm32f429disco/adalib/libgnat.a(s-exctab.o)
 .ARM.extab.text.system__img_int__set_digits
                0x000000000800f090        0x0 /usr/local/gnat-arm/arm-eabi/lib/gnat/ravenscar-full-stm32f429disco/adalib/libgnat.a(s-imgint.o)
 .ARM.extab.text.system__img_int__set_image_integer
                0x000000000800f090        0x0 /usr/local/gnat-arm/arm-eabi/lib/gnat/ravenscar-full-stm32f429disco/adalib/libgnat.a(s-imgint.o)
 .ARM.extab.text.system__img_int__image_integer
                0x000000000800f090        0x0 /usr/local/gnat-arm/arm-eabi/lib/gnat/ravenscar-full-stm32f429disco/adalib/libgnat.a(s-imgint.o)
 .ARM.extab.text.__gnat_finalize
                0x000000000800f090        0x0 /usr/local/gnat-arm/arm-eabi/lib/gnat/ravenscar-full-stm32f429disco/adalib/libgnat.a(s-init.o)
 .ARM.extab.text.__gnat_initialize
                0x000000000800f090        0x0 /usr/local/gnat-arm/arm-eabi/lib/gnat/ravenscar-full-stm32f429disco/adalib/libgnat.a(s-init.o)
 .ARM.extab.text.__gnat_install_handler
                0x000000000800f090        0x0 /usr/local/gnat-arm/arm-eabi/lib/gnat/ravenscar-full-stm32f429disco/adalib/libgnat.a(s-init.o)
 .ARM.extab.text.__gnat_runtime_initialize
                0x000000000800f090        0x0 /usr/local/gnat-arm/arm-eabi/lib/gnat/ravenscar-full-stm32f429disco/adalib/libgnat.a(s-init.o)
 .ARM.extab.text.__gnat_runtime_finalize
                0x000000000800f090        0x0 /usr/local/gnat-arm/arm-eabi/lib/gnat/ravenscar-full-stm32f429disco/adalib/libgnat.a(s-init.o)
 .ARM.extab.text.system__io__put__2
                0x000000000800f090        0x0 /usr/local/gnat-arm/arm-eabi/lib/gnat/ravenscar-full-stm32f429disco/adalib/libgnat.a(s-io.o)
 .ARM.extab.text.system__io__new_line
                0x000000000800f090        0x0 /usr/local/gnat-arm/arm-eabi/lib/gnat/ravenscar-full-stm32f429disco/adalib/libgnat.a(s-io.o)
 .ARM.extab.text.system__io__put__3
                0x000000000800f090        0x0 /usr/local/gnat-arm/arm-eabi/lib/gnat/ravenscar-full-stm32f429disco/adalib/libgnat.a(s-io.o)
 .ARM.extab.text.system__io__put
                0x000000000800f090        0x0 /usr/local/gnat-arm/arm-eabi/lib/gnat/ravenscar-full-stm32f429disco/adalib/libgnat.a(s-io.o)
 .ARM.extab.text.put_char_stderr
                0x000000000800f090        0x0 /usr/local/gnat-arm/arm-eabi/lib/gnat/ravenscar-full-stm32f429disco/adalib/libgnat.a(s-io.o)
 .ARM.extab.text.system__io__put_line
                0x000000000800f090        0xc /usr/local/gnat-arm/arm-eabi/lib/gnat/ravenscar-full-stm32f429disco/adalib/libgnat.a(s-io.o)
 .ARM.extab.text.system__io__standard_output
                0x000000000800f09c        0x0 /usr/local/gnat-arm/arm-eabi/lib/gnat/ravenscar-full-stm32f429disco/adalib/libgnat.a(s-io.o)
 .ARM.extab.text.system__io__standard_error
                0x000000000800f09c        0x0 /usr/local/gnat-arm/arm-eabi/lib/gnat/ravenscar-full-stm32f429disco/adalib/libgnat.a(s-io.o)
 .ARM.extab.text.system__io__set_output
                0x000000000800f09c        0x0 /usr/local/gnat-arm/arm-eabi/lib/gnat/ravenscar-full-stm32f429disco/adalib/libgnat.a(s-io.o)
 .ARM.extab.text.abort
                0x000000000800f09c        0x0 /usr/local/gnat-arm/arm-eabi/lib/gnat/ravenscar-full-stm32f429disco/adalib/libgnat.a(s-macres.o)
 .ARM.extab.text._exit
                0x000000000800f09c        0x0 /usr/local/gnat-arm/arm-eabi/lib/gnat/ravenscar-full-stm32f429disco/adalib/libgnat.a(s-macres.o)
 .ARM.extab.text.system__machine_reset__stop
                0x000000000800f09c        0x0 /usr/local/gnat-arm/arm-eabi/lib/gnat/ravenscar-full-stm32f429disco/adalib/libgnat.a(s-macres.o)
 .ARM.extab.text.__gnat_malloc
                0x000000000800f09c        0x0 /usr/local/gnat-arm/arm-eabi/lib/gnat/ravenscar-full-stm32f429disco/adalib/libgnat.a(s-memory.o)
 .ARM.extab.text.__gnat_free
                0x000000000800f09c        0x0 /usr/local/gnat-arm/arm-eabi/lib/gnat/ravenscar-full-stm32f429disco/adalib/libgnat.a(s-memory.o)
 .ARM.extab.text.__gnat_realloc
                0x000000000800f09c        0x0 /usr/local/gnat-arm/arm-eabi/lib/gnat/ravenscar-full-stm32f429disco/adalib/libgnat.a(s-memory.o)
 .ARM.extab.text.system__multiprocessors__spin_locks__spin_lockIP
                0x000000000800f09c        0x0 /usr/local/gnat-arm/arm-eabi/lib/gnat/ravenscar-full-stm32f429disco/adalib/libgnat.a(s-musplo.o)
 .ARM.extab.text.system__multiprocessors__spin_locks__lock
                0x000000000800f09c        0x0 /usr/local/gnat-arm/arm-eabi/lib/gnat/ravenscar-full-stm32f429disco/adalib/libgnat.a(s-musplo.o)
 .ARM.extab.text.system__multiprocessors__spin_locks__locked
                0x000000000800f09c        0x0 /usr/local/gnat-arm/arm-eabi/lib/gnat/ravenscar-full-stm32f429disco/adalib/libgnat.a(s-musplo.o)
 .ARM.extab.text.system__multiprocessors__spin_locks__try_lock
                0x000000000800f09c        0x0 /usr/local/gnat-arm/arm-eabi/lib/gnat/ravenscar-full-stm32f429disco/adalib/libgnat.a(s-musplo.o)
 .ARM.extab.text.system__multiprocessors__spin_locks__unlock
                0x000000000800f09c        0x0 /usr/local/gnat-arm/arm-eabi/lib/gnat/ravenscar-full-stm32f429disco/adalib/libgnat.a(s-musplo.o)
 .ARM.extab.text.system__parameters__adjust_storage_size
                0x000000000800f09c        0x0 /usr/local/gnat-arm/arm-eabi/lib/gnat/ravenscar-full-stm32f429disco/adalib/libgnat.a(s-parame.o)
 .ARM.extab.text.system__secondary_stack__memoryIP
                0x000000000800f09c        0x0 /usr/local/gnat-arm/arm-eabi/lib/gnat/ravenscar-full-stm32f429disco/adalib/libgnat.a(s-secsta.o)
 .ARM.extab.text.system__secondary_stack__ss_stackIP
                0x000000000800f09c        0x0 /usr/local/gnat-arm/arm-eabi/lib/gnat/ravenscar-full-stm32f429disco/adalib/libgnat.a(s-secsta.o)
 .ARM.extab.text.system__secondary_stack__ss_allocate
                0x000000000800f09c        0x0 /usr/local/gnat-arm/arm-eabi/lib/gnat/ravenscar-full-stm32f429disco/adalib/libgnat.a(s-secsta.o)
 .ARM.extab.text.system__secondary_stack__ss_get_max
                0x000000000800f09c        0xc /usr/local/gnat-arm/arm-eabi/lib/gnat/ravenscar-full-stm32f429disco/adalib/libgnat.a(s-secsta.o)
 .ARM.extab.text.system__secondary_stack__ss_init
                0x000000000800f0a8        0x0 /usr/local/gnat-arm/arm-eabi/lib/gnat/ravenscar-full-stm32f429disco/adalib/libgnat.a(s-secsta.o)
 .ARM.extab.text.system__secondary_stack__ss_mark
                0x000000000800f0a8        0xc /usr/local/gnat-arm/arm-eabi/lib/gnat/ravenscar-full-stm32f429disco/adalib/libgnat.a(s-secsta.o)
 .ARM.extab.text.system__secondary_stack__ss_release
                0x000000000800f0b4        0x0 /usr/local/gnat-arm/arm-eabi/lib/gnat/ravenscar-full-stm32f429disco/adalib/libgnat.a(s-secsta.o)
 .ARM.extab.text.system__standard_library__exception_dataIP
                0x000000000800f0b4        0x0 /usr/local/gnat-arm/arm-eabi/lib/gnat/ravenscar-full-stm32f429disco/adalib/libgnat.a(s-stalib.o)
 .ARM.extab.text.system__standard_library__abort_undefer_direct
                0x000000000800f0b4        0x0 /usr/local/gnat-arm/arm-eabi/lib/gnat/ravenscar-full-stm32f429disco/adalib/libgnat.a(s-stalib.o)
 .ARM.extab.text.system__standard_library__adafinal
                0x000000000800f0b4        0x0 /usr/local/gnat-arm/arm-eabi/lib/gnat/ravenscar-full-stm32f429disco/adalib/libgnat.a(s-stalib.o)
 .ARM.extab.text.__gnat_break_start
                0x000000000800f0b4        0x0 /usr/local/gnat-arm/arm-eabi/lib/gnat/ravenscar-full-stm32f429disco/adalib/libgnat.a(s-stalib.o)
 .ARM.extab.text.system__text_io__initialize
                0x000000000800f0b4        0x0 /usr/local/gnat-arm/arm-eabi/lib/gnat/ravenscar-full-stm32f429disco/adalib/libgnat.a(s-textio.o)
 .ARM.extab.text.system__text_io__is_tx_ready
                0x000000000800f0b4        0x0 /usr/local/gnat-arm/arm-eabi/lib/gnat/ravenscar-full-stm32f429disco/adalib/libgnat.a(s-textio.o)
 .ARM.extab.text.system__text_io__is_rx_ready
                0x000000000800f0b4        0x0 /usr/local/gnat-arm/arm-eabi/lib/gnat/ravenscar-full-stm32f429disco/adalib/libgnat.a(s-textio.o)
 .ARM.extab.text.system__text_io__get
                0x000000000800f0b4        0x0 /usr/local/gnat-arm/arm-eabi/lib/gnat/ravenscar-full-stm32f429disco/adalib/libgnat.a(s-textio.o)
 .ARM.extab.text.system__text_io__put
                0x000000000800f0b4        0x0 /usr/local/gnat-arm/arm-eabi/lib/gnat/ravenscar-full-stm32f429disco/adalib/libgnat.a(s-textio.o)
 .ARM.extab.text.system__text_io__use_cr_lf_for_new_line
                0x000000000800f0b4        0x0 /usr/local/gnat-arm/arm-eabi/lib/gnat/ravenscar-full-stm32f429disco/adalib/libgnat.a(s-textio.o)
 .ARM.extab.text.system__traceback__backtrace_callback
                0x000000000800f0b4        0x0 /usr/local/gnat-arm/arm-eabi/lib/gnat/ravenscar-full-stm32f429disco/adalib/libgnat.a(s-traceb.o)
 .ARM.extab.text.system__traceback__unwind_context_typeIP
                0x000000000800f0b4        0x0 /usr/local/gnat-arm/arm-eabi/lib/gnat/ravenscar-full-stm32f429disco/adalib/libgnat.a(s-traceb.o)
 .ARM.extab.text.system__traceback__callback_params_typeIP
                0x000000000800f0b4        0x0 /usr/local/gnat-arm/arm-eabi/lib/gnat/ravenscar-full-stm32f429disco/adalib/libgnat.a(s-traceb.o)
 .ARM.extab.text.system__traceback__call_chain
                0x000000000800f0b4        0x0 /usr/local/gnat-arm/arm-eabi/lib/gnat/ravenscar-full-stm32f429disco/adalib/libgnat.a(s-traceb.o)
 .ARM.extab.text.system__traceback_entries__tracebacks_arrayIP
                0x000000000800f0b4        0x0 /usr/local/gnat-arm/arm-eabi/lib/gnat/ravenscar-full-stm32f429disco/adalib/libgnat.a(s-traent.o)
 .ARM.extab.text.system__traceback_entries__pc_for
                0x000000000800f0b4        0x0 /usr/local/gnat-arm/arm-eabi/lib/gnat/ravenscar-full-stm32f429disco/adalib/libgnat.a(s-traent.o)
 .ARM.extab.text.system__traceback_entries__tb_entry_for
                0x000000000800f0b4        0x0 /usr/local/gnat-arm/arm-eabi/lib/gnat/ravenscar-full-stm32f429disco/adalib/libgnat.a(s-traent.o)
 .ARM.extab.text.system__val_uns__scan_raw_unsigned
                0x000000000800f0b4        0x0 /usr/local/gnat-arm/arm-eabi/lib/gnat/ravenscar-full-stm32f429disco/adalib/libgnat.a(s-valuns.o)
 .ARM.extab.text.system__val_uns__scan_unsigned
                0x000000000800f0b4        0x0 /usr/local/gnat-arm/arm-eabi/lib/gnat/ravenscar-full-stm32f429disco/adalib/libgnat.a(s-valuns.o)
 .ARM.extab.text.system__val_uns__value_unsigned
                0x000000000800f0b4        0x0 /usr/local/gnat-arm/arm-eabi/lib/gnat/ravenscar-full-stm32f429disco/adalib/libgnat.a(s-valuns.o)
 .ARM.extab.text.system__val_util__bad_value
                0x000000000800f0b4        0x0 /usr/local/gnat-arm/arm-eabi/lib/gnat/ravenscar-full-stm32f429disco/adalib/libgnat.a(s-valuti.o)
 .ARM.extab.text.system__val_util__normalize_string
                0x000000000800f0b4        0x0 /usr/local/gnat-arm/arm-eabi/lib/gnat/ravenscar-full-stm32f429disco/adalib/libgnat.a(s-valuti.o)
 .ARM.extab.text.system__val_util__scan_plus_sign
                0x000000000800f0b4        0x0 /usr/local/gnat-arm/arm-eabi/lib/gnat/ravenscar-full-stm32f429disco/adalib/libgnat.a(s-valuti.o)
 .ARM.extab.text.system__val_util__scan_sign
                0x000000000800f0b4        0x0 /usr/local/gnat-arm/arm-eabi/lib/gnat/ravenscar-full-stm32f429disco/adalib/libgnat.a(s-valuti.o)
 .ARM.extab.text.system__val_util__scan_trailing_blanks
                0x000000000800f0b4        0x0 /usr/local/gnat-arm/arm-eabi/lib/gnat/ravenscar-full-stm32f429disco/adalib/libgnat.a(s-valuti.o)
 .ARM.extab.text.system__val_util__scan_underscore
                0x000000000800f0b4        0x0 /usr/local/gnat-arm/arm-eabi/lib/gnat/ravenscar-full-stm32f429disco/adalib/libgnat.a(s-valuti.o)
 .ARM.extab.text.system__val_util__scan_exponent
                0x000000000800f0b4        0x0 /usr/local/gnat-arm/arm-eabi/lib/gnat/ravenscar-full-stm32f429disco/adalib/libgnat.a(s-valuti.o)
 .ARM.extab.text.system__wch_con__get_wc_encoding_method
                0x000000000800f0b4        0xc /usr/local/gnat-arm/arm-eabi/lib/gnat/ravenscar-full-stm32f429disco/adalib/libgnat.a(s-wchcon.o)
 .ARM.extab.text.system__wch_con__get_wc_encoding_method__2
                0x000000000800f0c0        0xc /usr/local/gnat-arm/arm-eabi/lib/gnat/ravenscar-full-stm32f429disco/adalib/libgnat.a(s-wchcon.o)
 .ARM.extab.text.system__wch_con__is_start_of_encoding
                0x000000000800f0cc        0x0 /usr/local/gnat-arm/arm-eabi/lib/gnat/ravenscar-full-stm32f429disco/adalib/libgnat.a(s-wchcon.o)
 .ARM.extab.text.system__wch_stw__get_next_code__in_char.5652
                0x000000000800f0cc        0xc /usr/local/gnat-arm/arm-eabi/lib/gnat/ravenscar-full-stm32f429disco/adalib/libgnat.a(s-wchstw.o)
 .ARM.extab.text.system__wch_stw__get_next_code__get_utf_32__get_hex.5664
                0x000000000800f0d8        0xc /usr/local/gnat-arm/arm-eabi/lib/gnat/ravenscar-full-stm32f429disco/adalib/libgnat.a(s-wchstw.o)
 .ARM.extab.text.system__wch_stw__get_next_code
                0x000000000800f0e4        0x0 /usr/local/gnat-arm/arm-eabi/lib/gnat/ravenscar-full-stm32f429disco/adalib/libgnat.a(s-wchstw.o)
 .ARM.extab.text.system__wch_stw__string_to_wide_string
                0x000000000800f0e4        0x0 /usr/local/gnat-arm/arm-eabi/lib/gnat/ravenscar-full-stm32f429disco/adalib/libgnat.a(s-wchstw.o)
 .ARM.extab.text.system__wch_stw__string_to_wide_wide_string
                0x000000000800f0e4        0x0 /usr/local/gnat-arm/arm-eabi/lib/gnat/ravenscar-full-stm32f429disco/adalib/libgnat.a(s-wchstw.o)
 .ARM.extab.text.system__case_util__to_lower
                0x000000000800f0e4        0x0 /usr/local/gnat-arm/arm-eabi/lib/gnat/ravenscar-full-stm32f429disco/adalib/libgnat.a(s-casuti.o)
 .ARM.extab.text.system__case_util__to_lower__2
                0x000000000800f0e4        0x0 /usr/local/gnat-arm/arm-eabi/lib/gnat/ravenscar-full-stm32f429disco/adalib/libgnat.a(s-casuti.o)
 .ARM.extab.text.system__case_util__to_lower__3
                0x000000000800f0e4        0x0 /usr/local/gnat-arm/arm-eabi/lib/gnat/ravenscar-full-stm32f429disco/adalib/libgnat.a(s-casuti.o)
 .ARM.extab.text.system__case_util__to_mixed
                0x000000000800f0e4        0x0 /usr/local/gnat-arm/arm-eabi/lib/gnat/ravenscar-full-stm32f429disco/adalib/libgnat.a(s-casuti.o)
 .ARM.extab.text.system__case_util__to_mixed__2
                0x000000000800f0e4        0x0 /usr/local/gnat-arm/arm-eabi/lib/gnat/ravenscar-full-stm32f429disco/adalib/libgnat.a(s-casuti.o)
 .ARM.extab.text.system__case_util__to_upper
                0x000000000800f0e4        0x0 /usr/local/gnat-arm/arm-eabi/lib/gnat/ravenscar-full-stm32f429disco/adalib/libgnat.a(s-casuti.o)
 .ARM.extab.text.system__case_util__to_upper__2
                0x000000000800f0e4        0x0 /usr/local/gnat-arm/arm-eabi/lib/gnat/ravenscar-full-stm32f429disco/adalib/libgnat.a(s-casuti.o)
 .ARM.extab.text.system__case_util__to_upper__3
                0x000000000800f0e4        0x0 /usr/local/gnat-arm/arm-eabi/lib/gnat/ravenscar-full-stm32f429disco/adalib/libgnat.a(s-casuti.o)
 .ARM.extab.text.system__semihosting__TbufferBIP
                0x000000000800f0e4        0x0 /usr/local/gnat-arm/arm-eabi/lib/gnat/ravenscar-full-stm32f429disco/adalib/libgnat.a(s-semiho.o)
 .ARM.extab.text.system__semihosting__put
                0x000000000800f0e4        0x0 /usr/local/gnat-arm/arm-eabi/lib/gnat/ravenscar-full-stm32f429disco/adalib/libgnat.a(s-semiho.o)
 .ARM.extab.text.system__semihosting__put__2
                0x000000000800f0e4        0x0 /usr/local/gnat-arm/arm-eabi/lib/gnat/ravenscar-full-stm32f429disco/adalib/libgnat.a(s-semiho.o)
 .ARM.extab.text.system__semihosting__get
                0x000000000800f0e4        0x0 /usr/local/gnat-arm/arm-eabi/lib/gnat/ravenscar-full-stm32f429disco/adalib/libgnat.a(s-semiho.o)
 .ARM.extab.text.system__wch_jis__euc_to_jis
                0x000000000800f0e4        0xc /usr/local/gnat-arm/arm-eabi/lib/gnat/ravenscar-full-stm32f429disco/adalib/libgnat.a(s-wchjis.o)
 .ARM.extab.text.system__wch_jis__jis_to_euc
                0x000000000800f0f0        0xc /usr/local/gnat-arm/arm-eabi/lib/gnat/ravenscar-full-stm32f429disco/adalib/libgnat.a(s-wchjis.o)
 .ARM.extab.text.system__wch_jis__jis_to_shift_jis
                0x000000000800f0fc        0x0 /usr/local/gnat-arm/arm-eabi/lib/gnat/ravenscar-full-stm32f429disco/adalib/libgnat.a(s-wchjis.o)
 .ARM.extab.text.system__wch_jis__shift_jis_to_jis
                0x000000000800f0fc        0xc /usr/local/gnat-arm/arm-eabi/lib/gnat/ravenscar-full-stm32f429disco/adalib/libgnat.a(s-wchjis.o)
 .ARM.extab.text._ada_setup_pll
                0x000000000800f108        0x0 /usr/local/gnat-arm/arm-eabi/lib/gnat/ravenscar-full-stm32f429disco/adalib/libgnat.a(setup_pll.o)
 .ARM.extab.text.system__bb__mcu_parameters__is_pwr_stabilized
                0x000000000800f108        0x0 /usr/local/gnat-arm/arm-eabi/lib/gnat/ravenscar-full-stm32f429disco/adalib/libgnat.a(s-bbmcpa.o)
 .ARM.extab.text.system__bb__mcu_parameters__pwr_initialize
                0x000000000800f108        0x0 /usr/local/gnat-arm/arm-eabi/lib/gnat/ravenscar-full-stm32f429disco/adalib/libgnat.a(s-bbmcpa.o)
 .ARM.extab.text.system__bb__mcu_parameters__pwr_overdrive_enable
                0x000000000800f108        0x0 /usr/local/gnat-arm/arm-eabi/lib/gnat/ravenscar-full-stm32f429disco/adalib/libgnat.a(s-bbmcpa.o)
 .ARM.extab     0x000000000800f108        0x0 /usr/local/gnat-arm/bin/../lib/gcc/arm-eabi/7.3.1/thumb/v7e-m/fpv4-sp/hard/libgcc.a(_udivmoddi4.o)
 .ARM.extab     0x000000000800f108        0x0 /usr/local/gnat-arm/bin/../lib/gcc/arm-eabi/7.3.1/thumb/v7e-m/fpv4-sp/hard/libgcc.a(unwind-arm.o)
 .ARM.extab     0x000000000800f108       0x18 /usr/local/gnat-arm/bin/../lib/gcc/arm-eabi/7.3.1/thumb/v7e-m/fpv4-sp/hard/libgcc.a(pr-support.o)

.ARM.exidx      0x000000000800f120     0x1030
                0x000000000800f120                PROVIDE (__exidx_start, .)
 *(.ARM.exidx* .gnu.linkonce.armexidx.*)
 .ARM.exidx     0x000000000800f120        0x8 unit01.o
 .ARM.exidx     0x000000000800f128       0x20 b__unit01.o
                                         0x28 (size before relaxing)
 .ARM.exidx     0x000000000800f148        0x8 /home/aquox/Scrivania/Arm/edf-ravenscar-arm/build/s-multip.o
 .ARM.exidx     0x000000000800f150       0x98 /home/aquox/Scrivania/Arm/edf-ravenscar-arm/build/s-bbbosu.o
                                         0xa8 (size before relaxing)
 .ARM.exidx     0x000000000800f1e8       0x70 /home/aquox/Scrivania/Arm/edf-ravenscar-arm/build/s-bbtiev.o
 .ARM.exidx     0x000000000800f258       0xe0 /home/aquox/Scrivania/Arm/edf-ravenscar-arm/build/s-bbthqu.o
 .ARM.exidx     0x000000000800f338        0x8 /home/aquox/Scrivania/Arm/edf-ravenscar-arm/build/s-bbprot.o
                                         0x10 (size before relaxing)
 .ARM.exidx     0x000000000800f340       0xa8 /home/aquox/Scrivania/Arm/edf-ravenscar-arm/build/s-bbthre.o
 .ARM.exidx     0x000000000800f3e8       0x38 /home/aquox/Scrivania/Arm/edf-ravenscar-arm/build/s-bbinte.o
 .ARM.exidx     0x000000000800f420       0x70 /home/aquox/Scrivania/Arm/edf-ravenscar-arm/build/s-bbcppr.o
                                         0x80 (size before relaxing)
 .ARM.exidx     0x000000000800f490       0x18 /home/aquox/Scrivania/Arm/edf-ravenscar-arm/build/a-elchha.o
 .ARM.exidx     0x000000000800f4a8        0x8 /home/aquox/Scrivania/Arm/edf-ravenscar-arm/build/s-taspri.o
 .ARM.exidx     0x000000000800f4b0        0x8 /home/aquox/Scrivania/Arm/edf-ravenscar-arm/build/s-tasdeb.o
 .ARM.exidx     0x000000000800f4b8       0x48 /home/aquox/Scrivania/Arm/edf-ravenscar-arm/build/s-taskin.o
 .ARM.exidx     0x000000000800f500       0x30 /home/aquox/Scrivania/Arm/edf-ravenscar-arm/build/s-soflin.o
                                         0x48 (size before relaxing)
 .ARM.exidx     0x000000000800f530       0xe8 /home/aquox/Scrivania/Arm/edf-ravenscar-arm/build/s-bbtime.o
 .ARM.exidx     0x000000000800f618       0x40 /home/aquox/Scrivania/Arm/edf-ravenscar-arm/build/s-mufalo.o
 .ARM.exidx     0x000000000800f658       0xd0 /home/aquox/Scrivania/Arm/edf-ravenscar-arm/build/s-taprop.o
 .ARM.exidx     0x000000000800f728       0xc0 /home/aquox/Scrivania/Arm/edf-ravenscar-arm/build/a-reatim.o
 .ARM.exidx     0x000000000800f7e8       0x10 /home/aquox/Scrivania/Arm/edf-ravenscar-arm/build/a-retide.o
 .ARM.exidx     0x000000000800f7f8       0x60 /home/aquox/Scrivania/Arm/edf-ravenscar-arm/build/s-tarest.o
 .ARM.exidx     0x000000000800f858        0x8 /home/aquox/Scrivania/Arm/edf-ravenscar-arm/build/system_time.o
 .ARM.exidx     0x000000000800f860       0x20 /home/aquox/Scrivania/Arm/edf-ravenscar-arm/build/print_task.o
 .ARM.exidx     0x000000000800f880       0x30 /home/aquox/Scrivania/Arm/edf-ravenscar-arm/build/cyclic_tasks.o
 .ARM.exidx.text.ada__exceptions__exception_occurrenceIP
                0x000000000800f8b0        0x8 /usr/local/gnat-arm/arm-eabi/lib/gnat/ravenscar-full-stm32f429disco/adalib/libgnat.a(a-except.o)
 .ARM.exidx.text.ada__exceptions__exception_data__append_info_addressXn
                0x000000000800f8b8        0x8 /usr/local/gnat-arm/arm-eabi/lib/gnat/ravenscar-full-stm32f429disco/adalib/libgnat.a(a-except.o)
 .ARM.exidx.text.ada__exceptions__exception_data__append_info_basic_exception_informationXn
                0x000000000800f8c0        0x8 /usr/local/gnat-arm/arm-eabi/lib/gnat/ravenscar-full-stm32f429disco/adalib/libgnat.a(a-except.o)
 .ARM.exidx.text.ada__exceptions__exception_data__append_info_characterXn
                0x000000000800f8c8        0x8 /usr/local/gnat-arm/arm-eabi/lib/gnat/ravenscar-full-stm32f429disco/adalib/libgnat.a(a-except.o)
 .ARM.exidx.text.__gnat_append_info_e_msg
                0x000000000800f8d0        0x8 /usr/local/gnat-arm/arm-eabi/lib/gnat/ravenscar-full-stm32f429disco/adalib/libgnat.a(a-except.o)
 .ARM.exidx.text.ada__exceptions__exception_data__append_info_exception_nameXn
                0x000000000800f8d8        0x0 /usr/local/gnat-arm/arm-eabi/lib/gnat/ravenscar-full-stm32f429disco/adalib/libgnat.a(a-except.o)
                                          0x8 (size before relaxing)
 .ARM.exidx.text.ada__exceptions__exception_data__append_info_exception_name__2Xn
                0x000000000800f8d8        0x8 /usr/local/gnat-arm/arm-eabi/lib/gnat/ravenscar-full-stm32f429disco/adalib/libgnat.a(a-except.o)
 .ARM.exidx.text.ada__exceptions__exception_data__exception_info_maxlengthXn
                0x000000000800f8e0        0x8 /usr/local/gnat-arm/arm-eabi/lib/gnat/ravenscar-full-stm32f429disco/adalib/libgnat.a(a-except.o)
 .ARM.exidx.text.ada__exceptions__exception_data__append_info_natXn
                0x000000000800f8e8        0x8 /usr/local/gnat-arm/arm-eabi/lib/gnat/ravenscar-full-stm32f429disco/adalib/libgnat.a(a-except.o)
 .ARM.exidx.text.ada__exceptions__exception_data__append_info_nlXn
                0x000000000800f8f0        0x8 /usr/local/gnat-arm/arm-eabi/lib/gnat/ravenscar-full-stm32f429disco/adalib/libgnat.a(a-except.o)
 .ARM.exidx.text.ada__exceptions__exception_data__append_info_stringXn
                0x000000000800f8f8        0x8 /usr/local/gnat-arm/arm-eabi/lib/gnat/ravenscar-full-stm32f429disco/adalib/libgnat.a(a-except.o)
 .ARM.exidx.text.__gnat_append_info_u_e_info
                0x000000000800f900        0x8 /usr/local/gnat-arm/arm-eabi/lib/gnat/ravenscar-full-stm32f429disco/adalib/libgnat.a(a-except.o)
 .ARM.exidx.text.ada__exceptions__exception_data__append_info_untailored_exception_tracebackXn
                0x000000000800f908        0x8 /usr/local/gnat-arm/arm-eabi/lib/gnat/ravenscar-full-stm32f429disco/adalib/libgnat.a(a-except.o)
 .ARM.exidx.text.ada__exceptions__exception_data__basic_exception_info_maxlengthXn
                0x000000000800f910        0x8 /usr/local/gnat-arm/arm-eabi/lib/gnat/ravenscar-full-stm32f429disco/adalib/libgnat.a(a-except.o)
 .ARM.exidx.text.ada__exceptions__exception_data__exception_informationXn
                0x000000000800f918        0x8 /usr/local/gnat-arm/arm-eabi/lib/gnat/ravenscar-full-stm32f429disco/adalib/libgnat.a(a-except.o)
 .ARM.exidx.text.__gnat_exception_msg_len
                0x000000000800f920        0x8 /usr/local/gnat-arm/arm-eabi/lib/gnat/ravenscar-full-stm32f429disco/adalib/libgnat.a(a-except.o)
 .ARM.exidx.text.ada__exceptions__exception_data__exception_name_lengthXn
                0x000000000800f928        0x8 /usr/local/gnat-arm/arm-eabi/lib/gnat/ravenscar-full-stm32f429disco/adalib/libgnat.a(a-except.o)
 .ARM.exidx.text.ada__exceptions__exception_data__exception_name_length__2Xn
                0x000000000800f930        0x8 /usr/local/gnat-arm/arm-eabi/lib/gnat/ravenscar-full-stm32f429disco/adalib/libgnat.a(a-except.o)
 .ARM.exidx.text.ada__exceptions__exception_data__untailored_exception_tracebackXn
                0x000000000800f938        0x8 /usr/local/gnat-arm/arm-eabi/lib/gnat/ravenscar-full-stm32f429disco/adalib/libgnat.a(a-except.o)
 .ARM.exidx.text.ada__exceptions__exception_data__untailored_exception_informationXn
                0x000000000800f940        0x0 /usr/local/gnat-arm/arm-eabi/lib/gnat/ravenscar-full-stm32f429disco/adalib/libgnat.a(a-except.o)
                                          0x8 (size before relaxing)
 .ARM.exidx.text.ada__exceptions__exception_data__set_exception_c_msg__append_number.6680
                0x000000000800f940        0x8 /usr/local/gnat-arm/arm-eabi/lib/gnat/ravenscar-full-stm32f429disco/adalib/libgnat.a(a-except.o)
 .ARM.exidx.text.ada__exceptions__exception_data__set_exception_c_msgXn
                0x000000000800f948        0x8 /usr/local/gnat-arm/arm-eabi/lib/gnat/ravenscar-full-stm32f429disco/adalib/libgnat.a(a-except.o)
 .ARM.exidx.text.ada__exceptions__exception_data__set_exception_msgXn
                0x000000000800f950        0x8 /usr/local/gnat-arm/arm-eabi/lib/gnat/ravenscar-full-stm32f429disco/adalib/libgnat.a(a-except.o)
 .ARM.exidx.text.ada__exceptions__exception_data__tailored_exception_tracebackXn
                0x000000000800f958        0x8 /usr/local/gnat-arm/arm-eabi/lib/gnat/ravenscar-full-stm32f429disco/adalib/libgnat.a(a-except.o)
 .ARM.exidx.text.ada__exceptions__exception_data__untailored_exception_traceback_maxlengthXn
                0x000000000800f960        0x8 /usr/local/gnat-arm/arm-eabi/lib/gnat/ravenscar-full-stm32f429disco/adalib/libgnat.a(a-except.o)
 .ARM.exidx.text.ada__exceptions__exception_propagation__allocate_occurrenceXn
                0x000000000800f968        0x8 /usr/local/gnat-arm/arm-eabi/lib/gnat/ravenscar-full-stm32f429disco/adalib/libgnat.a(a-except.o)
 .ARM.exidx.text.ada__exceptions__exception_propagation__gnat_gcc_exception_cleanupXn
                0x000000000800f970        0x8 /usr/local/gnat-arm/arm-eabi/lib/gnat/ravenscar-full-stm32f429disco/adalib/libgnat.a(a-except.o)
 .ARM.exidx.text.ada__exceptions__exception_propagation__set_foreign_occurrenceXn
                0x000000000800f978        0x8 /usr/local/gnat-arm/arm-eabi/lib/gnat/ravenscar-full-stm32f429disco/adalib/libgnat.a(a-except.o)
 .ARM.exidx.text.__gnat_setup_current_excep
                0x000000000800f980        0x8 /usr/local/gnat-arm/arm-eabi/lib/gnat/ravenscar-full-stm32f429disco/adalib/libgnat.a(a-except.o)
 .ARM.exidx.text.__gnat_begin_handler
                0x000000000800f988        0x8 /usr/local/gnat-arm/arm-eabi/lib/gnat/ravenscar-full-stm32f429disco/adalib/libgnat.a(a-except.o)
 .ARM.exidx.text.__gnat_end_handler
                0x000000000800f990        0x8 /usr/local/gnat-arm/arm-eabi/lib/gnat/ravenscar-full-stm32f429disco/adalib/libgnat.a(a-except.o)
 .ARM.exidx.text.__gnat_reraise_zcx
                0x000000000800f998        0x8 /usr/local/gnat-arm/arm-eabi/lib/gnat/ravenscar-full-stm32f429disco/adalib/libgnat.a(a-except.o)
 .ARM.exidx.text.ada__exceptions__exception_propagation__propagate_gcc_exceptionXn
                0x000000000800f9a0        0x8 /usr/local/gnat-arm/arm-eabi/lib/gnat/ravenscar-full-stm32f429disco/adalib/libgnat.a(a-except.o)
 .ARM.exidx.text.ada__exceptions__exception_propagation__propagate_exceptionXn
                0x000000000800f9a8        0x8 /usr/local/gnat-arm/arm-eabi/lib/gnat/ravenscar-full-stm32f429disco/adalib/libgnat.a(a-except.o)
 .ARM.exidx.text.__gnat_set_exception_parameter
                0x000000000800f9b0        0x8 /usr/local/gnat-arm/arm-eabi/lib/gnat/ravenscar-full-stm32f429disco/adalib/libgnat.a(a-except.o)
 .ARM.exidx.text.__gnat_unhandled_except_handler
                0x000000000800f9b8        0x8 /usr/local/gnat-arm/arm-eabi/lib/gnat/ravenscar-full-stm32f429disco/adalib/libgnat.a(a-except.o)
 .ARM.exidx.text.__gnat_eid_for
                0x000000000800f9c0        0x8 /usr/local/gnat-arm/arm-eabi/lib/gnat/ravenscar-full-stm32f429disco/adalib/libgnat.a(a-except.o)
 .ARM.exidx.text.__gnat_foreign_data_for
                0x000000000800f9c8        0x8 /usr/local/gnat-arm/arm-eabi/lib/gnat/ravenscar-full-stm32f429disco/adalib/libgnat.a(a-except.o)
 .ARM.exidx.text.__gnat_is_handled_by_others
                0x000000000800f9d0        0x0 /usr/local/gnat-arm/arm-eabi/lib/gnat/ravenscar-full-stm32f429disco/adalib/libgnat.a(a-except.o)
                                          0x8 (size before relaxing)
 .ARM.exidx.text.__gnat_language_for
                0x000000000800f9d0        0x0 /usr/local/gnat-arm/arm-eabi/lib/gnat/ravenscar-full-stm32f429disco/adalib/libgnat.a(a-except.o)
                                          0x8 (size before relaxing)
 .ARM.exidx.text.ada__exceptions__exception_traces__notify_exception__B281b___finalizerXn.6941
                0x000000000800f9d0        0x8 /usr/local/gnat-arm/arm-eabi/lib/gnat/ravenscar-full-stm32f429disco/adalib/libgnat.a(a-except.o)
 .ARM.exidx.text.ada__exceptions__exception_traces__notify_exceptionXn
                0x000000000800f9d8        0x8 /usr/local/gnat-arm/arm-eabi/lib/gnat/ravenscar-full-stm32f429disco/adalib/libgnat.a(a-except.o)
 .ARM.exidx.text.__gnat_notify_handled_exception
                0x000000000800f9e0        0x8 /usr/local/gnat-arm/arm-eabi/lib/gnat/ravenscar-full-stm32f429disco/adalib/libgnat.a(a-except.o)
 .ARM.exidx.text.__gnat_notify_unhandled_exception
                0x000000000800f9e8        0x8 /usr/local/gnat-arm/arm-eabi/lib/gnat/ravenscar-full-stm32f429disco/adalib/libgnat.a(a-except.o)
 .ARM.exidx.text.ada__exceptions__exception_traces__unhandled_exception_terminateXn
                0x000000000800f9f0        0x8 /usr/local/gnat-arm/arm-eabi/lib/gnat/ravenscar-full-stm32f429disco/adalib/libgnat.a(a-except.o)
 .ARM.exidx.text.ada__exceptions__stream_attributes__eid_to_stringXn
                0x000000000800f9f8        0x8 /usr/local/gnat-arm/arm-eabi/lib/gnat/ravenscar-full-stm32f429disco/adalib/libgnat.a(a-except.o)
 .ARM.exidx.text.ada__exceptions__stream_attributes__eo_to_stringXn
                0x000000000800fa00        0x0 /usr/local/gnat-arm/arm-eabi/lib/gnat/ravenscar-full-stm32f429disco/adalib/libgnat.a(a-except.o)
                                          0x8 (size before relaxing)
 .ARM.exidx.text.ada__exceptions__stream_attributes__string_to_eidXn
                0x000000000800fa00        0x8 /usr/local/gnat-arm/arm-eabi/lib/gnat/ravenscar-full-stm32f429disco/adalib/libgnat.a(a-except.o)
 .ARM.exidx.text.ada__exceptions__stream_attributes__string_to_eo__bad_eo.6986
                0x000000000800fa08        0x8 /usr/local/gnat-arm/arm-eabi/lib/gnat/ravenscar-full-stm32f429disco/adalib/libgnat.a(a-except.o)
 .ARM.exidx.text.ada__exceptions__stream_attributes__string_to_eoXn
                0x000000000800fa10        0x8 /usr/local/gnat-arm/arm-eabi/lib/gnat/ravenscar-full-stm32f429disco/adalib/libgnat.a(a-except.o)
 .ARM.exidx.text.ada__exceptions__stream_attributes__string_to_eo__next_string.6988
                0x000000000800fa18        0x8 /usr/local/gnat-arm/arm-eabi/lib/gnat/ravenscar-full-stm32f429disco/adalib/libgnat.a(a-except.o)
 .ARM.exidx.text.ada__exceptions__poll
                0x000000000800fa20        0x8 /usr/local/gnat-arm/arm-eabi/lib/gnat/ravenscar-full-stm32f429disco/adalib/libgnat.a(a-except.o)
 .ARM.exidx.text.ada__exceptions__code_address_for_aaa
                0x000000000800fa28        0x0 /usr/local/gnat-arm/arm-eabi/lib/gnat/ravenscar-full-stm32f429disco/adalib/libgnat.a(a-except.o)
                                          0x8 (size before relaxing)
 .ARM.exidx.text.ada__exceptions__call_chain
                0x000000000800fa28        0x8 /usr/local/gnat-arm/arm-eabi/lib/gnat/ravenscar-full-stm32f429disco/adalib/libgnat.a(a-except.o)
 .ARM.exidx.text.ada__exceptions__eid_to_string
                0x000000000800fa30        0x8 /usr/local/gnat-arm/arm-eabi/lib/gnat/ravenscar-full-stm32f429disco/adalib/libgnat.a(a-except.o)
 .ARM.exidx.text.ada__exceptions__eo_to_string
                0x000000000800fa38        0x0 /usr/local/gnat-arm/arm-eabi/lib/gnat/ravenscar-full-stm32f429disco/adalib/libgnat.a(a-except.o)
                                          0x8 (size before relaxing)
 .ARM.exidx.text.ada__exceptions__exception_identity
                0x000000000800fa38        0x8 /usr/local/gnat-arm/arm-eabi/lib/gnat/ravenscar-full-stm32f429disco/adalib/libgnat.a(a-except.o)
 .ARM.exidx.text.ada__exceptions__exception_information
                0x000000000800fa40        0x8 /usr/local/gnat-arm/arm-eabi/lib/gnat/ravenscar-full-stm32f429disco/adalib/libgnat.a(a-except.o)
 .ARM.exidx.text.ada__exceptions__exception_message
                0x000000000800fa48        0x8 /usr/local/gnat-arm/arm-eabi/lib/gnat/ravenscar-full-stm32f429disco/adalib/libgnat.a(a-except.o)
 .ARM.exidx.text.ada__exceptions__exception_name
                0x000000000800fa50        0x0 /usr/local/gnat-arm/arm-eabi/lib/gnat/ravenscar-full-stm32f429disco/adalib/libgnat.a(a-except.o)
                                          0x8 (size before relaxing)
 .ARM.exidx.text.ada__exceptions__exception_name__2
                0x000000000800fa50        0x8 /usr/local/gnat-arm/arm-eabi/lib/gnat/ravenscar-full-stm32f429disco/adalib/libgnat.a(a-except.o)
 .ARM.exidx.text.ada__exceptions__exception_name_simple
                0x000000000800fa58        0x8 /usr/local/gnat-arm/arm-eabi/lib/gnat/ravenscar-full-stm32f429disco/adalib/libgnat.a(a-except.o)
 .ARM.exidx.text.__gnat_get_exception_machine_occurrence
                0x000000000800fa60        0x8 /usr/local/gnat-arm/arm-eabi/lib/gnat/ravenscar-full-stm32f429disco/adalib/libgnat.a(a-except.o)
 .ARM.exidx.text.ada__exceptions__image
                0x000000000800fa68        0x8 /usr/local/gnat-arm/arm-eabi/lib/gnat/ravenscar-full-stm32f429disco/adalib/libgnat.a(a-except.o)
 .ARM.exidx.text.__gnat_raise_constraint_error
                0x000000000800fa70        0x8 /usr/local/gnat-arm/arm-eabi/lib/gnat/ravenscar-full-stm32f429disco/adalib/libgnat.a(a-except.o)
 .ARM.exidx.text.__gnat_raise_constraint_error_msg
                0x000000000800fa78        0x0 /usr/local/gnat-arm/arm-eabi/lib/gnat/ravenscar-full-stm32f429disco/adalib/libgnat.a(a-except.o)
                                          0x8 (size before relaxing)
 .ARM.exidx.text.ada__exceptions__complete_occurrence
                0x000000000800fa78        0x8 /usr/local/gnat-arm/arm-eabi/lib/gnat/ravenscar-full-stm32f429disco/adalib/libgnat.a(a-except.o)
 .ARM.exidx.text.ada__exceptions__complete_and_propagate_occurrence
                0x000000000800fa80        0x8 /usr/local/gnat-arm/arm-eabi/lib/gnat/ravenscar-full-stm32f429disco/adalib/libgnat.a(a-except.o)
 .ARM.exidx.text.ada__exceptions__raise_exception
                0x000000000800fa88        0x8 /usr/local/gnat-arm/arm-eabi/lib/gnat/ravenscar-full-stm32f429disco/adalib/libgnat.a(a-except.o)
 .ARM.exidx.text.__gnat_raise_exception
                0x000000000800fa90        0x8 /usr/local/gnat-arm/arm-eabi/lib/gnat/ravenscar-full-stm32f429disco/adalib/libgnat.a(a-except.o)
 .ARM.exidx.text.ada__exceptions__raise_exception_no_defer
                0x000000000800fa98        0x0 /usr/local/gnat-arm/arm-eabi/lib/gnat/ravenscar-full-stm32f429disco/adalib/libgnat.a(a-except.o)
                                          0x8 (size before relaxing)
 .ARM.exidx.text.ada__exceptions__raise_from_controlled_operation___finalizer.7202
                0x000000000800fa98        0x8 /usr/local/gnat-arm/arm-eabi/lib/gnat/ravenscar-full-stm32f429disco/adalib/libgnat.a(a-except.o)
 .ARM.exidx.text.__gnat_raise_from_controlled_operation
                0x000000000800faa0        0x8 /usr/local/gnat-arm/arm-eabi/lib/gnat/ravenscar-full-stm32f429disco/adalib/libgnat.a(a-except.o)
 .ARM.exidx.text.ada__exceptions__raise_from_controlled_operation__B_3___finalizer.7237
                0x000000000800faa8        0x8 /usr/local/gnat-arm/arm-eabi/lib/gnat/ravenscar-full-stm32f429disco/adalib/libgnat.a(a-except.o)
 .ARM.exidx.text.ada__exceptions__create_occurrence_from_signal_handler
                0x000000000800fab0        0x8 /usr/local/gnat-arm/arm-eabi/lib/gnat/ravenscar-full-stm32f429disco/adalib/libgnat.a(a-except.o)
 .ARM.exidx.text.__gnat_create_machine_occurrence_from_signal_handler
                0x000000000800fab8        0x8 /usr/local/gnat-arm/arm-eabi/lib/gnat/ravenscar-full-stm32f429disco/adalib/libgnat.a(a-except.o)
 .ARM.exidx.text.ada__exceptions__raise_from_signal_handler
                0x000000000800fac0        0x8 /usr/local/gnat-arm/arm-eabi/lib/gnat/ravenscar-full-stm32f429disco/adalib/libgnat.a(a-except.o)
 .ARM.exidx.text.__gnat_raise_program_error
                0x000000000800fac8        0x8 /usr/local/gnat-arm/arm-eabi/lib/gnat/ravenscar-full-stm32f429disco/adalib/libgnat.a(a-except.o)
 .ARM.exidx.text.__gnat_raise_program_error_msg
                0x000000000800fad0        0x0 /usr/local/gnat-arm/arm-eabi/lib/gnat/ravenscar-full-stm32f429disco/adalib/libgnat.a(a-except.o)
                                          0x8 (size before relaxing)
 .ARM.exidx.text.__gnat_raise_storage_error
                0x000000000800fad0        0x0 /usr/local/gnat-arm/arm-eabi/lib/gnat/ravenscar-full-stm32f429disco/adalib/libgnat.a(a-except.o)
                                          0x8 (size before relaxing)
 .ARM.exidx.text.__gnat_raise_storage_error_msg
                0x000000000800fad0        0x0 /usr/local/gnat-arm/arm-eabi/lib/gnat/ravenscar-full-stm32f429disco/adalib/libgnat.a(a-except.o)
                                          0x8 (size before relaxing)
 .ARM.exidx.text.ada__exceptions__raise_with_location_and_msg
                0x000000000800fad0        0x8 /usr/local/gnat-arm/arm-eabi/lib/gnat/ravenscar-full-stm32f429disco/adalib/libgnat.a(a-except.o)
 .ARM.exidx.text.__gnat_raise_with_msg
                0x000000000800fad8        0x8 /usr/local/gnat-arm/arm-eabi/lib/gnat/ravenscar-full-stm32f429disco/adalib/libgnat.a(a-except.o)
 .ARM.exidx.text.__gnat_rcheck_CE_Access_Check
                0x000000000800fae0        0x8 /usr/local/gnat-arm/arm-eabi/lib/gnat/ravenscar-full-stm32f429disco/adalib/libgnat.a(a-except.o)
 .ARM.exidx.text.__gnat_rcheck_CE_Null_Access_Parameter
                0x000000000800fae8        0x8 /usr/local/gnat-arm/arm-eabi/lib/gnat/ravenscar-full-stm32f429disco/adalib/libgnat.a(a-except.o)
 .ARM.exidx.text.__gnat_rcheck_CE_Discriminant_Check
                0x000000000800faf0        0x8 /usr/local/gnat-arm/arm-eabi/lib/gnat/ravenscar-full-stm32f429disco/adalib/libgnat.a(a-except.o)
 .ARM.exidx.text.__gnat_rcheck_CE_Divide_By_Zero
                0x000000000800faf8        0x8 /usr/local/gnat-arm/arm-eabi/lib/gnat/ravenscar-full-stm32f429disco/adalib/libgnat.a(a-except.o)
 .ARM.exidx.text.__gnat_rcheck_CE_Explicit_Raise
                0x000000000800fb00        0x8 /usr/local/gnat-arm/arm-eabi/lib/gnat/ravenscar-full-stm32f429disco/adalib/libgnat.a(a-except.o)
 .ARM.exidx.text.__gnat_rcheck_CE_Index_Check
                0x000000000800fb08        0x8 /usr/local/gnat-arm/arm-eabi/lib/gnat/ravenscar-full-stm32f429disco/adalib/libgnat.a(a-except.o)
 .ARM.exidx.text.__gnat_rcheck_CE_Invalid_Data
                0x000000000800fb10        0x8 /usr/local/gnat-arm/arm-eabi/lib/gnat/ravenscar-full-stm32f429disco/adalib/libgnat.a(a-except.o)
 .ARM.exidx.text.__gnat_rcheck_CE_Length_Check
                0x000000000800fb18        0x8 /usr/local/gnat-arm/arm-eabi/lib/gnat/ravenscar-full-stm32f429disco/adalib/libgnat.a(a-except.o)
 .ARM.exidx.text.__gnat_rcheck_CE_Null_Exception_Id
                0x000000000800fb20        0x8 /usr/local/gnat-arm/arm-eabi/lib/gnat/ravenscar-full-stm32f429disco/adalib/libgnat.a(a-except.o)
 .ARM.exidx.text.__gnat_rcheck_CE_Null_Not_Allowed
                0x000000000800fb28        0x8 /usr/local/gnat-arm/arm-eabi/lib/gnat/ravenscar-full-stm32f429disco/adalib/libgnat.a(a-except.o)
 .ARM.exidx.text.__gnat_rcheck_CE_Overflow_Check
                0x000000000800fb30        0x8 /usr/local/gnat-arm/arm-eabi/lib/gnat/ravenscar-full-stm32f429disco/adalib/libgnat.a(a-except.o)
 .ARM.exidx.text.__gnat_rcheck_CE_Partition_Check
                0x000000000800fb38        0x8 /usr/local/gnat-arm/arm-eabi/lib/gnat/ravenscar-full-stm32f429disco/adalib/libgnat.a(a-except.o)
 .ARM.exidx.text.__gnat_rcheck_CE_Range_Check
                0x000000000800fb40        0x8 /usr/local/gnat-arm/arm-eabi/lib/gnat/ravenscar-full-stm32f429disco/adalib/libgnat.a(a-except.o)
 .ARM.exidx.text.__gnat_rcheck_CE_Tag_Check
                0x000000000800fb48        0x8 /usr/local/gnat-arm/arm-eabi/lib/gnat/ravenscar-full-stm32f429disco/adalib/libgnat.a(a-except.o)
 .ARM.exidx.text.__gnat_rcheck_PE_Access_Before_Elaboration
                0x000000000800fb50        0x8 /usr/local/gnat-arm/arm-eabi/lib/gnat/ravenscar-full-stm32f429disco/adalib/libgnat.a(a-except.o)
 .ARM.exidx.text.__gnat_rcheck_PE_Accessibility_Check
                0x000000000800fb58        0x8 /usr/local/gnat-arm/arm-eabi/lib/gnat/ravenscar-full-stm32f429disco/adalib/libgnat.a(a-except.o)
 .ARM.exidx.text.__gnat_rcheck_PE_Address_Of_Intrinsic
                0x000000000800fb60        0x8 /usr/local/gnat-arm/arm-eabi/lib/gnat/ravenscar-full-stm32f429disco/adalib/libgnat.a(a-except.o)
 .ARM.exidx.text.__gnat_rcheck_PE_Aliased_Parameters
                0x000000000800fb68        0x8 /usr/local/gnat-arm/arm-eabi/lib/gnat/ravenscar-full-stm32f429disco/adalib/libgnat.a(a-except.o)
 .ARM.exidx.text.__gnat_rcheck_PE_All_Guards_Closed
                0x000000000800fb70        0x8 /usr/local/gnat-arm/arm-eabi/lib/gnat/ravenscar-full-stm32f429disco/adalib/libgnat.a(a-except.o)
 .ARM.exidx.text.__gnat_rcheck_PE_Bad_Predicated_Generic_Type
                0x000000000800fb78        0x8 /usr/local/gnat-arm/arm-eabi/lib/gnat/ravenscar-full-stm32f429disco/adalib/libgnat.a(a-except.o)
 .ARM.exidx.text.__gnat_rcheck_PE_Build_In_Place_Mismatch
                0x000000000800fb80        0x8 /usr/local/gnat-arm/arm-eabi/lib/gnat/ravenscar-full-stm32f429disco/adalib/libgnat.a(a-except.o)
 .ARM.exidx.text.__gnat_rcheck_PE_Current_Task_In_Entry_Body
                0x000000000800fb88        0x8 /usr/local/gnat-arm/arm-eabi/lib/gnat/ravenscar-full-stm32f429disco/adalib/libgnat.a(a-except.o)
 .ARM.exidx.text.__gnat_rcheck_PE_Duplicated_Entry_Address
                0x000000000800fb90        0x8 /usr/local/gnat-arm/arm-eabi/lib/gnat/ravenscar-full-stm32f429disco/adalib/libgnat.a(a-except.o)
 .ARM.exidx.text.__gnat_rcheck_PE_Explicit_Raise
                0x000000000800fb98        0x8 /usr/local/gnat-arm/arm-eabi/lib/gnat/ravenscar-full-stm32f429disco/adalib/libgnat.a(a-except.o)
 .ARM.exidx.text.__gnat_rcheck_PE_Implicit_Return
                0x000000000800fba0        0x8 /usr/local/gnat-arm/arm-eabi/lib/gnat/ravenscar-full-stm32f429disco/adalib/libgnat.a(a-except.o)
 .ARM.exidx.text.__gnat_rcheck_PE_Misaligned_Address_Value
                0x000000000800fba8        0x8 /usr/local/gnat-arm/arm-eabi/lib/gnat/ravenscar-full-stm32f429disco/adalib/libgnat.a(a-except.o)
 .ARM.exidx.text.__gnat_rcheck_PE_Missing_Return
                0x000000000800fbb0        0x8 /usr/local/gnat-arm/arm-eabi/lib/gnat/ravenscar-full-stm32f429disco/adalib/libgnat.a(a-except.o)
 .ARM.exidx.text.__gnat_rcheck_PE_Non_Transportable_Actual
                0x000000000800fbb8        0x8 /usr/local/gnat-arm/arm-eabi/lib/gnat/ravenscar-full-stm32f429disco/adalib/libgnat.a(a-except.o)
 .ARM.exidx.text.__gnat_rcheck_PE_Overlaid_Controlled_Object
                0x000000000800fbc0        0x8 /usr/local/gnat-arm/arm-eabi/lib/gnat/ravenscar-full-stm32f429disco/adalib/libgnat.a(a-except.o)
 .ARM.exidx.text.__gnat_rcheck_PE_Potentially_Blocking_Operation
                0x000000000800fbc8        0x8 /usr/local/gnat-arm/arm-eabi/lib/gnat/ravenscar-full-stm32f429disco/adalib/libgnat.a(a-except.o)
 .ARM.exidx.text.__gnat_rcheck_PE_Stream_Operation_Not_Allowed
                0x000000000800fbd0        0x8 /usr/local/gnat-arm/arm-eabi/lib/gnat/ravenscar-full-stm32f429disco/adalib/libgnat.a(a-except.o)
 .ARM.exidx.text.__gnat_rcheck_PE_Stubbed_Subprogram_Called
                0x000000000800fbd8        0x8 /usr/local/gnat-arm/arm-eabi/lib/gnat/ravenscar-full-stm32f429disco/adalib/libgnat.a(a-except.o)
 .ARM.exidx.text.__gnat_rcheck_PE_Unchecked_Union_Restriction
                0x000000000800fbe0        0x8 /usr/local/gnat-arm/arm-eabi/lib/gnat/ravenscar-full-stm32f429disco/adalib/libgnat.a(a-except.o)
 .ARM.exidx.text.__gnat_rcheck_SE_Empty_Storage_Pool
                0x000000000800fbe8        0x8 /usr/local/gnat-arm/arm-eabi/lib/gnat/ravenscar-full-stm32f429disco/adalib/libgnat.a(a-except.o)
 .ARM.exidx.text.__gnat_rcheck_SE_Explicit_Raise
                0x000000000800fbf0        0x8 /usr/local/gnat-arm/arm-eabi/lib/gnat/ravenscar-full-stm32f429disco/adalib/libgnat.a(a-except.o)
 .ARM.exidx.text.__gnat_rcheck_SE_Infinite_Recursion
                0x000000000800fbf8        0x8 /usr/local/gnat-arm/arm-eabi/lib/gnat/ravenscar-full-stm32f429disco/adalib/libgnat.a(a-except.o)
 .ARM.exidx.text.__gnat_rcheck_SE_Object_Too_Large
                0x000000000800fc00        0x8 /usr/local/gnat-arm/arm-eabi/lib/gnat/ravenscar-full-stm32f429disco/adalib/libgnat.a(a-except.o)
 .ARM.exidx.text.__gnat_rcheck_CE_Access_Check_ext
                0x000000000800fc08        0x8 /usr/local/gnat-arm/arm-eabi/lib/gnat/ravenscar-full-stm32f429disco/adalib/libgnat.a(a-except.o)
 .ARM.exidx.text.ada__exceptions__rcheck_ce_index_check_ext___finalizer.7309
                0x000000000800fc10        0x8 /usr/local/gnat-arm/arm-eabi/lib/gnat/ravenscar-full-stm32f429disco/adalib/libgnat.a(a-except.o)
 .ARM.exidx.text.__gnat_rcheck_CE_Index_Check_ext
                0x000000000800fc18        0x8 /usr/local/gnat-arm/arm-eabi/lib/gnat/ravenscar-full-stm32f429disco/adalib/libgnat.a(a-except.o)
 .ARM.exidx.text.ada__exceptions__rcheck_ce_invalid_data_ext___finalizer.7384
                0x000000000800fc20        0x8 /usr/local/gnat-arm/arm-eabi/lib/gnat/ravenscar-full-stm32f429disco/adalib/libgnat.a(a-except.o)
 .ARM.exidx.text.__gnat_rcheck_CE_Invalid_Data_ext
                0x000000000800fc28        0x8 /usr/local/gnat-arm/arm-eabi/lib/gnat/ravenscar-full-stm32f429disco/adalib/libgnat.a(a-except.o)
 .ARM.exidx.text.ada__exceptions__rcheck_ce_range_check_ext___finalizer.7459
                0x000000000800fc30        0x8 /usr/local/gnat-arm/arm-eabi/lib/gnat/ravenscar-full-stm32f429disco/adalib/libgnat.a(a-except.o)
 .ARM.exidx.text.__gnat_rcheck_CE_Range_Check_ext
                0x000000000800fc38        0x8 /usr/local/gnat-arm/arm-eabi/lib/gnat/ravenscar-full-stm32f429disco/adalib/libgnat.a(a-except.o)
 .ARM.exidx.text.__gnat_rcheck_PE_Finalize_Raised_Exception
                0x000000000800fc40        0x8 /usr/local/gnat-arm/arm-eabi/lib/gnat/ravenscar-full-stm32f429disco/adalib/libgnat.a(a-except.o)
 .ARM.exidx.text.__gnat_reraise
                0x000000000800fc48        0x8 /usr/local/gnat-arm/arm-eabi/lib/gnat/ravenscar-full-stm32f429disco/adalib/libgnat.a(a-except.o)
 .ARM.exidx.text.__gnat_reraise_library_exception_if_any
                0x000000000800fc50        0x8 /usr/local/gnat-arm/arm-eabi/lib/gnat/ravenscar-full-stm32f429disco/adalib/libgnat.a(a-except.o)
 .ARM.exidx.text.ada__exceptions__reraise_occurrence
                0x000000000800fc58        0x8 /usr/local/gnat-arm/arm-eabi/lib/gnat/ravenscar-full-stm32f429disco/adalib/libgnat.a(a-except.o)
 .ARM.exidx.text.ada__exceptions__reraise_occurrence_always
                0x000000000800fc60        0x8 /usr/local/gnat-arm/arm-eabi/lib/gnat/ravenscar-full-stm32f429disco/adalib/libgnat.a(a-except.o)
 .ARM.exidx.text.ada__exceptions__reraise_occurrence_no_defer
                0x000000000800fc68        0x8 /usr/local/gnat-arm/arm-eabi/lib/gnat/ravenscar-full-stm32f429disco/adalib/libgnat.a(a-except.o)
 .ARM.exidx.text.ada__exceptions__save_occurrence
                0x000000000800fc70        0x8 /usr/local/gnat-arm/arm-eabi/lib/gnat/ravenscar-full-stm32f429disco/adalib/libgnat.a(a-except.o)
 .ARM.exidx.text.ada__exceptions__save_occurrence__2
                0x000000000800fc78        0x8 /usr/local/gnat-arm/arm-eabi/lib/gnat/ravenscar-full-stm32f429disco/adalib/libgnat.a(a-except.o)
 .ARM.exidx.text.ada__exceptions__string_to_eid
                0x000000000800fc80        0x8 /usr/local/gnat-arm/arm-eabi/lib/gnat/ravenscar-full-stm32f429disco/adalib/libgnat.a(a-except.o)
 .ARM.exidx.text.ada__exceptions__string_to_eo
                0x000000000800fc88        0x8 /usr/local/gnat-arm/arm-eabi/lib/gnat/ravenscar-full-stm32f429disco/adalib/libgnat.a(a-except.o)
 .ARM.exidx.text.__gnat_to_stderr_char
                0x000000000800fc90        0x8 /usr/local/gnat-arm/arm-eabi/lib/gnat/ravenscar-full-stm32f429disco/adalib/libgnat.a(a-except.o)
 .ARM.exidx.text.__gnat_to_stderr
                0x000000000800fc98        0x8 /usr/local/gnat-arm/arm-eabi/lib/gnat/ravenscar-full-stm32f429disco/adalib/libgnat.a(a-except.o)
 .ARM.exidx.text.__gnat_transfer_occurrence
                0x000000000800fca0        0x8 /usr/local/gnat-arm/arm-eabi/lib/gnat/ravenscar-full-stm32f429disco/adalib/libgnat.a(a-except.o)
 .ARM.exidx.text.ada__exceptions__triggered_by_abort
                0x000000000800fca8        0x8 /usr/local/gnat-arm/arm-eabi/lib/gnat/ravenscar-full-stm32f429disco/adalib/libgnat.a(a-except.o)
 .ARM.exidx.text.ada__exceptions__wide_exception_name
                0x000000000800fcb0        0x8 /usr/local/gnat-arm/arm-eabi/lib/gnat/ravenscar-full-stm32f429disco/adalib/libgnat.a(a-except.o)
 .ARM.exidx.text.ada__exceptions__wide_exception_name__2
                0x000000000800fcb8        0x0 /usr/local/gnat-arm/arm-eabi/lib/gnat/ravenscar-full-stm32f429disco/adalib/libgnat.a(a-except.o)
                                          0x8 (size before relaxing)
 .ARM.exidx.text.ada__exceptions__wide_wide_exception_name
                0x000000000800fcb8        0x0 /usr/local/gnat-arm/arm-eabi/lib/gnat/ravenscar-full-stm32f429disco/adalib/libgnat.a(a-except.o)
                                          0x8 (size before relaxing)
 .ARM.exidx.text.ada__exceptions__wide_wide_exception_name__2
                0x000000000800fcb8        0x0 /usr/local/gnat-arm/arm-eabi/lib/gnat/ravenscar-full-stm32f429disco/adalib/libgnat.a(a-except.o)
                                          0x8 (size before relaxing)
 .ARM.exidx.text.ada__exceptions__code_address_for_zzz
                0x000000000800fcb8        0x8 /usr/local/gnat-arm/arm-eabi/lib/gnat/ravenscar-full-stm32f429disco/adalib/libgnat.a(a-except.o)
 .ARM.exidx.text.ada__tags__iw_membership__2
                0x000000000800fcc0        0x8 /usr/local/gnat-arm/arm-eabi/lib/gnat/ravenscar-full-stm32f429disco/adalib/libgnat.a(a-tags.o)
 .ARM.exidx.text.ada__tags__tag_arrayIP
                0x000000000800fcc8        0x8 /usr/local/gnat-arm/arm-eabi/lib/gnat/ravenscar-full-stm32f429disco/adalib/libgnat.a(a-tags.o)
 .ARM.exidx.text.ada__tags__interface_data_elementIP
                0x000000000800fcd0        0x0 /usr/local/gnat-arm/arm-eabi/lib/gnat/ravenscar-full-stm32f429disco/adalib/libgnat.a(a-tags.o)
                                          0x8 (size before relaxing)
 .ARM.exidx.text.ada__tags__interfaces_arrayIP
                0x000000000800fcd0        0x0 /usr/local/gnat-arm/arm-eabi/lib/gnat/ravenscar-full-stm32f429disco/adalib/libgnat.a(a-tags.o)
                                          0x8 (size before relaxing)
 .ARM.exidx.text.ada__tags__interface_dataIP
                0x000000000800fcd0        0x0 /usr/local/gnat-arm/arm-eabi/lib/gnat/ravenscar-full-stm32f429disco/adalib/libgnat.a(a-tags.o)
                                          0x8 (size before relaxing)
 .ARM.exidx.text.ada__tags__select_specific_data_elementIP
                0x000000000800fcd0        0x0 /usr/local/gnat-arm/arm-eabi/lib/gnat/ravenscar-full-stm32f429disco/adalib/libgnat.a(a-tags.o)
                                          0x8 (size before relaxing)
 .ARM.exidx.text.ada__tags__select_specific_data_arrayIP
                0x000000000800fcd0        0x0 /usr/local/gnat-arm/arm-eabi/lib/gnat/ravenscar-full-stm32f429disco/adalib/libgnat.a(a-tags.o)
                                          0x8 (size before relaxing)
 .ARM.exidx.text.ada__tags__select_specific_dataIP
                0x000000000800fcd0        0x0 /usr/local/gnat-arm/arm-eabi/lib/gnat/ravenscar-full-stm32f429disco/adalib/libgnat.a(a-tags.o)
                                          0x8 (size before relaxing)
 .ARM.exidx.text.ada__tags__address_arrayIP
                0x000000000800fcd0        0x0 /usr/local/gnat-arm/arm-eabi/lib/gnat/ravenscar-full-stm32f429disco/adalib/libgnat.a(a-tags.o)
                                          0x8 (size before relaxing)
 .ARM.exidx.text.ada__tags__tag_tableIP
                0x000000000800fcd0        0x0 /usr/local/gnat-arm/arm-eabi/lib/gnat/ravenscar-full-stm32f429disco/adalib/libgnat.a(a-tags.o)
                                          0x8 (size before relaxing)
 .ARM.exidx.text.ada__tags__type_specific_dataIP
                0x000000000800fcd0        0x0 /usr/local/gnat-arm/arm-eabi/lib/gnat/ravenscar-full-stm32f429disco/adalib/libgnat.a(a-tags.o)
                                          0x8 (size before relaxing)
 .ARM.exidx.text.ada__tags__dispatch_table_wrapperIP
                0x000000000800fcd0        0x0 /usr/local/gnat-arm/arm-eabi/lib/gnat/ravenscar-full-stm32f429disco/adalib/libgnat.a(a-tags.o)
                                          0x8 (size before relaxing)
 .ARM.exidx.text.ada__tags__no_dispatch_table_wrapperIP
                0x000000000800fcd0        0x0 /usr/local/gnat-arm/arm-eabi/lib/gnat/ravenscar-full-stm32f429disco/adalib/libgnat.a(a-tags.o)
                                          0x8 (size before relaxing)
 .ARM.exidx.text.ada__tags__object_specific_data_arrayIP
                0x000000000800fcd0        0x0 /usr/local/gnat-arm/arm-eabi/lib/gnat/ravenscar-full-stm32f429disco/adalib/libgnat.a(a-tags.o)
                                          0x8 (size before relaxing)
 .ARM.exidx.text.ada__tags__object_specific_dataIP
                0x000000000800fcd0        0x0 /usr/local/gnat-arm/arm-eabi/lib/gnat/ravenscar-full-stm32f429disco/adalib/libgnat.a(a-tags.o)
                                          0x8 (size before relaxing)
 .ARM.exidx.text.ada__tags__external_tag_htable__TtableBIPXn
                0x000000000800fcd0        0x0 /usr/local/gnat-arm/arm-eabi/lib/gnat/ravenscar-full-stm32f429disco/adalib/libgnat.a(a-tags.o)
                                          0x8 (size before relaxing)
 .ARM.exidx.text.ada__tags__external_tag_htable__get_firstXn
                0x000000000800fcd0        0x0 /usr/local/gnat-arm/arm-eabi/lib/gnat/ravenscar-full-stm32f429disco/adalib/libgnat.a(a-tags.o)
                                          0x8 (size before relaxing)
 .ARM.exidx.text.ada__tags__external_tag_htable__get_nextXn
                0x000000000800fcd0        0x8 /usr/local/gnat-arm/arm-eabi/lib/gnat/ravenscar-full-stm32f429disco/adalib/libgnat.a(a-tags.o)
 .ARM.exidx.text.ada__tags__external_tag_htable__get_non_nullXn
                0x000000000800fcd8        0x8 /usr/local/gnat-arm/arm-eabi/lib/gnat/ravenscar-full-stm32f429disco/adalib/libgnat.a(a-tags.o)
 .ARM.exidx.text.ada__tags__external_tag_htable__resetXn
                0x000000000800fce0        0x0 /usr/local/gnat-arm/arm-eabi/lib/gnat/ravenscar-full-stm32f429disco/adalib/libgnat.a(a-tags.o)
                                          0x8 (size before relaxing)
 .ARM.exidx.text.ada__tags__htable_subprograms__equalXn
                0x000000000800fce0        0x8 /usr/local/gnat-arm/arm-eabi/lib/gnat/ravenscar-full-stm32f429disco/adalib/libgnat.a(a-tags.o)
 .ARM.exidx.text.ada__tags__htable_subprograms__get_ht_linkXn
                0x000000000800fce8        0x0 /usr/local/gnat-arm/arm-eabi/lib/gnat/ravenscar-full-stm32f429disco/adalib/libgnat.a(a-tags.o)
                                          0x8 (size before relaxing)
 .ARM.exidx.text.ada__tags__htable_subprograms__hashXn
                0x000000000800fce8        0x8 /usr/local/gnat-arm/arm-eabi/lib/gnat/ravenscar-full-stm32f429disco/adalib/libgnat.a(a-tags.o)
 .ARM.exidx.text.ada__tags__external_tag_htable__getXn
                0x000000000800fcf0        0x8 /usr/local/gnat-arm/arm-eabi/lib/gnat/ravenscar-full-stm32f429disco/adalib/libgnat.a(a-tags.o)
 .ARM.exidx.text.ada__tags__external_tag_htable__presentXn
                0x000000000800fcf8        0x8 /usr/local/gnat-arm/arm-eabi/lib/gnat/ravenscar-full-stm32f429disco/adalib/libgnat.a(a-tags.o)
 .ARM.exidx.text.ada__tags__external_tag_htable__removeXn
                0x000000000800fd00        0x8 /usr/local/gnat-arm/arm-eabi/lib/gnat/ravenscar-full-stm32f429disco/adalib/libgnat.a(a-tags.o)
 .ARM.exidx.text.ada__tags__external_tag_htable__setXn
                0x000000000800fd08        0x8 /usr/local/gnat-arm/arm-eabi/lib/gnat/ravenscar-full-stm32f429disco/adalib/libgnat.a(a-tags.o)
 .ARM.exidx.text.ada__tags__external_tag_htable__set_if_not_presentXn
                0x000000000800fd10        0x8 /usr/local/gnat-arm/arm-eabi/lib/gnat/ravenscar-full-stm32f429disco/adalib/libgnat.a(a-tags.o)
 .ARM.exidx.text.ada__tags__htable_subprograms__set_ht_linkXn
                0x000000000800fd18        0x8 /usr/local/gnat-arm/arm-eabi/lib/gnat/ravenscar-full-stm32f429disco/adalib/libgnat.a(a-tags.o)
 .ARM.exidx.text.ada__tags__is_abstract
                0x000000000800fd20        0x8 /usr/local/gnat-arm/arm-eabi/lib/gnat/ravenscar-full-stm32f429disco/adalib/libgnat.a(a-tags.o)
 .ARM.exidx.text.ada__tags__base_address
                0x000000000800fd28        0x8 /usr/local/gnat-arm/arm-eabi/lib/gnat/ravenscar-full-stm32f429disco/adalib/libgnat.a(a-tags.o)
 .ARM.exidx.text.ada__tags__check_tsd
                0x000000000800fd30        0x8 /usr/local/gnat-arm/arm-eabi/lib/gnat/ravenscar-full-stm32f429disco/adalib/libgnat.a(a-tags.o)
 .ARM.exidx.text.ada__tags__displace
                0x000000000800fd38        0x8 /usr/local/gnat-arm/arm-eabi/lib/gnat/ravenscar-full-stm32f429disco/adalib/libgnat.a(a-tags.o)
 .ARM.exidx.text.ada__tags__dt
                0x000000000800fd40        0x8 /usr/local/gnat-arm/arm-eabi/lib/gnat/ravenscar-full-stm32f429disco/adalib/libgnat.a(a-tags.o)
 .ARM.exidx.text.ada__tags__iw_membership
                0x000000000800fd48        0x8 /usr/local/gnat-arm/arm-eabi/lib/gnat/ravenscar-full-stm32f429disco/adalib/libgnat.a(a-tags.o)
 .ARM.exidx.text.ada__tags__expanded_name
                0x000000000800fd50        0x8 /usr/local/gnat-arm/arm-eabi/lib/gnat/ravenscar-full-stm32f429disco/adalib/libgnat.a(a-tags.o)
 .ARM.exidx.text.ada__tags__external_tag
                0x000000000800fd58        0x0 /usr/local/gnat-arm/arm-eabi/lib/gnat/ravenscar-full-stm32f429disco/adalib/libgnat.a(a-tags.o)
                                          0x8 (size before relaxing)
 .ARM.exidx.text.ada__tags__get_entry_index
                0x000000000800fd58        0x8 /usr/local/gnat-arm/arm-eabi/lib/gnat/ravenscar-full-stm32f429disco/adalib/libgnat.a(a-tags.o)
 .ARM.exidx.text.ada__tags__get_prim_op_kind
                0x000000000800fd60        0x0 /usr/local/gnat-arm/arm-eabi/lib/gnat/ravenscar-full-stm32f429disco/adalib/libgnat.a(a-tags.o)
                                          0x8 (size before relaxing)
 .ARM.exidx.text.ada__tags__get_offset_index
                0x000000000800fd60        0x0 /usr/local/gnat-arm/arm-eabi/lib/gnat/ravenscar-full-stm32f429disco/adalib/libgnat.a(a-tags.o)
                                          0x8 (size before relaxing)
 .ARM.exidx.text.ada__tags__get_tagged_kind
                0x000000000800fd60        0x0 /usr/local/gnat-arm/arm-eabi/lib/gnat/ravenscar-full-stm32f429disco/adalib/libgnat.a(a-tags.o)
                                          0x8 (size before relaxing)
 .ARM.exidx.text.ada__tags__interface_ancestor_tags
                0x000000000800fd60        0x8 /usr/local/gnat-arm/arm-eabi/lib/gnat/ravenscar-full-stm32f429disco/adalib/libgnat.a(a-tags.o)
 .ARM.exidx.text.ada__tags__internal_tag
                0x000000000800fd68        0x8 /usr/local/gnat-arm/arm-eabi/lib/gnat/ravenscar-full-stm32f429disco/adalib/libgnat.a(a-tags.o)
 .ARM.exidx.text.ada__tags__is_descendant_at_same_level
                0x000000000800fd70        0x8 /usr/local/gnat-arm/arm-eabi/lib/gnat/ravenscar-full-stm32f429disco/adalib/libgnat.a(a-tags.o)
 .ARM.exidx.text.ada__tags__descendant_tag
                0x000000000800fd78        0x8 /usr/local/gnat-arm/arm-eabi/lib/gnat/ravenscar-full-stm32f429disco/adalib/libgnat.a(a-tags.o)
 .ARM.exidx.text.ada__tags__offset_to_top
                0x000000000800fd80        0x8 /usr/local/gnat-arm/arm-eabi/lib/gnat/ravenscar-full-stm32f429disco/adalib/libgnat.a(a-tags.o)
 .ARM.exidx.text.ada__tags__needs_finalization
                0x000000000800fd88        0x0 /usr/local/gnat-arm/arm-eabi/lib/gnat/ravenscar-full-stm32f429disco/adalib/libgnat.a(a-tags.o)
                                          0x8 (size before relaxing)
 .ARM.exidx.text.ada__tags__parent_size
                0x000000000800fd88        0x8 /usr/local/gnat-arm/arm-eabi/lib/gnat/ravenscar-full-stm32f429disco/adalib/libgnat.a(a-tags.o)
 .ARM.exidx.text.ada__tags__parent_tag
                0x000000000800fd90        0x8 /usr/local/gnat-arm/arm-eabi/lib/gnat/ravenscar-full-stm32f429disco/adalib/libgnat.a(a-tags.o)
 .ARM.exidx.text.ada__tags__register_interface_offset
                0x000000000800fd98        0x8 /usr/local/gnat-arm/arm-eabi/lib/gnat/ravenscar-full-stm32f429disco/adalib/libgnat.a(a-tags.o)
 .ARM.exidx.text.ada__tags__register_tag
                0x000000000800fda0        0x8 /usr/local/gnat-arm/arm-eabi/lib/gnat/ravenscar-full-stm32f429disco/adalib/libgnat.a(a-tags.o)
 .ARM.exidx.text.ada__tags__secondary_tag
                0x000000000800fda8        0x8 /usr/local/gnat-arm/arm-eabi/lib/gnat/ravenscar-full-stm32f429disco/adalib/libgnat.a(a-tags.o)
 .ARM.exidx.text.ada__tags__set_entry_index
                0x000000000800fdb0        0x8 /usr/local/gnat-arm/arm-eabi/lib/gnat/ravenscar-full-stm32f429disco/adalib/libgnat.a(a-tags.o)
 .ARM.exidx.text.ada__tags__set_dynamic_offset_to_top
                0x000000000800fdb8        0x8 /usr/local/gnat-arm/arm-eabi/lib/gnat/ravenscar-full-stm32f429disco/adalib/libgnat.a(a-tags.o)
 .ARM.exidx.text.ada__tags__set_prim_op_kind
                0x000000000800fdc0        0x8 /usr/local/gnat-arm/arm-eabi/lib/gnat/ravenscar-full-stm32f429disco/adalib/libgnat.a(a-tags.o)
 .ARM.exidx.text.ada__tags__unregister_tag
                0x000000000800fdc8        0x0 /usr/local/gnat-arm/arm-eabi/lib/gnat/ravenscar-full-stm32f429disco/adalib/libgnat.a(a-tags.o)
                                          0x8 (size before relaxing)
 .ARM.exidx.text.ada__tags__wide_expanded_name
                0x000000000800fdc8        0x8 /usr/local/gnat-arm/arm-eabi/lib/gnat/ravenscar-full-stm32f429disco/adalib/libgnat.a(a-tags.o)
 .ARM.exidx.text.ada__tags__wide_wide_expanded_name
                0x000000000800fdd0        0x0 /usr/local/gnat-arm/arm-eabi/lib/gnat/ravenscar-full-stm32f429disco/adalib/libgnat.a(a-tags.o)
                                          0x8 (size before relaxing)
 .ARM.exidx.text.ada__tags___elabb
                0x000000000800fdd0        0x8 /usr/local/gnat-arm/arm-eabi/lib/gnat/ravenscar-full-stm32f429disco/adalib/libgnat.a(a-tags.o)
 .ARM.exidx.text.gnat__debug_utilities__image__2
                0x000000000800fdd8        0x0 /usr/local/gnat-arm/arm-eabi/lib/gnat/ravenscar-full-stm32f429disco/adalib/libgnat.a(g-debuti.o)
                                          0x8 (size before relaxing)
 .ARM.exidx.text.gnat__debug_utilities__image
                0x000000000800fdd8        0x8 /usr/local/gnat-arm/arm-eabi/lib/gnat/ravenscar-full-stm32f429disco/adalib/libgnat.a(g-debuti.o)
 .ARM.exidx.text.gnat__debug_utilities__image_c
                0x000000000800fde0        0x8 /usr/local/gnat-arm/arm-eabi/lib/gnat/ravenscar-full-stm32f429disco/adalib/libgnat.a(g-debuti.o)
 .ARM.exidx.text.gnat__debug_utilities__value
                0x000000000800fde8       0x10 /usr/local/gnat-arm/arm-eabi/lib/gnat/ravenscar-full-stm32f429disco/adalib/libgnat.a(g-debuti.o)
                                          0x8 (size before relaxing)
 .ARM.exidx.text.read_encoded_value_with_base
                0x000000000800fdf8        0x0 /usr/local/gnat-arm/arm-eabi/lib/gnat/ravenscar-full-stm32f429disco/adalib/libgnat.a(raise-gcc.o)
                                          0x8 (size before relaxing)
 .ARM.exidx.text.base_of_encoded_value.part.2
                0x000000000800fdf8        0x0 /usr/local/gnat-arm/arm-eabi/lib/gnat/ravenscar-full-stm32f429disco/adalib/libgnat.a(raise-gcc.o)
                                          0x8 (size before relaxing)
 .ARM.exidx.text.__gnat_personality_v0
                0x000000000800fdf8        0x8 /usr/local/gnat-arm/arm-eabi/lib/gnat/ravenscar-full-stm32f429disco/adalib/libgnat.a(raise-gcc.o)
 .ARM.exidx.text.__gnat_cleanupunwind_handler
                0x000000000800fe00        0x8 /usr/local/gnat-arm/arm-eabi/lib/gnat/ravenscar-full-stm32f429disco/adalib/libgnat.a(raise-gcc.o)
 .ARM.exidx.text.__gnat_Unwind_RaiseException
                0x000000000800fe08        0x8 /usr/local/gnat-arm/arm-eabi/lib/gnat/ravenscar-full-stm32f429disco/adalib/libgnat.a(raise-gcc.o)
 .ARM.exidx.text.__gnat_Unwind_ForcedUnwind
                0x000000000800fe10        0x0 /usr/local/gnat-arm/arm-eabi/lib/gnat/ravenscar-full-stm32f429disco/adalib/libgnat.a(raise-gcc.o)
                                          0x8 (size before relaxing)
 .ARM.exidx.text.system__bb__cpu_primitives__context_switch_trigger__initialize_context_switch
                0x000000000800fe10        0x0 /usr/local/gnat-arm/arm-eabi/lib/gnat/ravenscar-full-stm32f429disco/adalib/libgnat.a(s-bcpcst.o)
                                          0x8 (size before relaxing)
 .ARM.exidx.text.system__bb__cpu_primitives__context_switch_trigger__trigger_context_switch
                0x000000000800fe10        0x8 /usr/local/gnat-arm/arm-eabi/lib/gnat/ravenscar-full-stm32f429disco/adalib/libgnat.a(s-bcpcst.o)
 .ARM.exidx.text.__gnat_pend_sv_trap
                0x000000000800fe18        0x0 /usr/local/gnat-arm/arm-eabi/lib/gnat/ravenscar-full-stm32f429disco/adalib/libgnat.a(s-bcpcst.o)
                                          0x8 (size before relaxing)
 .ARM.exidx.text.__gnat_debug_raise_exception
                0x000000000800fe18        0x8 /usr/local/gnat-arm/arm-eabi/lib/gnat/ravenscar-full-stm32f429disco/adalib/libgnat.a(s-excdeb.o)
 .ARM.exidx.text.__gnat_unhandled_exception
                0x000000000800fe20        0x8 /usr/local/gnat-arm/arm-eabi/lib/gnat/ravenscar-full-stm32f429disco/adalib/libgnat.a(s-excdeb.o)
 .ARM.exidx.text.__gnat_debug_raise_assert_failure
                0x000000000800fe28        0x8 /usr/local/gnat-arm/arm-eabi/lib/gnat/ravenscar-full-stm32f429disco/adalib/libgnat.a(s-excdeb.o)
 .ARM.exidx.text.local_raise
                0x000000000800fe30        0x8 /usr/local/gnat-arm/arm-eabi/lib/gnat/ravenscar-full-stm32f429disco/adalib/libgnat.a(s-excdeb.o)
 .ARM.exidx.text.system__exceptions__machine__Texception_classBIP
                0x000000000800fe38        0x8 /usr/local/gnat-arm/arm-eabi/lib/gnat/ravenscar-full-stm32f429disco/adalib/libgnat.a(s-excmac.o)
 .ARM.exidx.text.system__exceptions__machine__uint32_t_arrayIP
                0x000000000800fe40        0x0 /usr/local/gnat-arm/arm-eabi/lib/gnat/ravenscar-full-stm32f429disco/adalib/libgnat.a(s-excmac.o)
                                          0x8 (size before relaxing)
 .ARM.exidx.text.system__exceptions__machine__unwinder_cache_typeIP
                0x000000000800fe40        0x0 /usr/local/gnat-arm/arm-eabi/lib/gnat/ravenscar-full-stm32f429disco/adalib/libgnat.a(s-excmac.o)
                                          0x8 (size before relaxing)
 .ARM.exidx.text.system__exceptions__machine__barrier_cache_typeIP
                0x000000000800fe40        0x0 /usr/local/gnat-arm/arm-eabi/lib/gnat/ravenscar-full-stm32f429disco/adalib/libgnat.a(s-excmac.o)
                                          0x8 (size before relaxing)
 .ARM.exidx.text.system__exceptions__machine__cleanup_cache_typeIP
                0x000000000800fe40        0x0 /usr/local/gnat-arm/arm-eabi/lib/gnat/ravenscar-full-stm32f429disco/adalib/libgnat.a(s-excmac.o)
                                          0x8 (size before relaxing)
 .ARM.exidx.text.system__exceptions__machine__pr_cache_typeIP
                0x000000000800fe40        0x0 /usr/local/gnat-arm/arm-eabi/lib/gnat/ravenscar-full-stm32f429disco/adalib/libgnat.a(s-excmac.o)
                                          0x8 (size before relaxing)
 .ARM.exidx.text.system__exceptions__machine__unwind_control_blockIP
                0x000000000800fe40        0x0 /usr/local/gnat-arm/arm-eabi/lib/gnat/ravenscar-full-stm32f429disco/adalib/libgnat.a(s-excmac.o)
                                          0x8 (size before relaxing)
 .ARM.exidx.text.system__exceptions__machine__gnat_gcc_exceptionIP
                0x000000000800fe40        0x8 /usr/local/gnat-arm/arm-eabi/lib/gnat/ravenscar-full-stm32f429disco/adalib/libgnat.a(s-excmac.o)
 .ARM.exidx.text.system__exceptions__machine__new_occurrence
                0x000000000800fe48        0x8 /usr/local/gnat-arm/arm-eabi/lib/gnat/ravenscar-full-stm32f429disco/adalib/libgnat.a(s-excmac.o)
 .ARM.exidx.text.system__exception_table__register.part.1
                0x000000000800fe50        0x8 /usr/local/gnat-arm/arm-eabi/lib/gnat/ravenscar-full-stm32f429disco/adalib/libgnat.a(s-exctab.o)
 .ARM.exidx.text.system__exception_table__exception_data_arrayIP
                0x000000000800fe58        0x8 /usr/local/gnat-arm/arm-eabi/lib/gnat/ravenscar-full-stm32f429disco/adalib/libgnat.a(s-exctab.o)
 .ARM.exidx.text.system__exception_table__ThtableBIP
                0x000000000800fe60        0x0 /usr/local/gnat-arm/arm-eabi/lib/gnat/ravenscar-full-stm32f429disco/adalib/libgnat.a(s-exctab.o)
                                          0x8 (size before relaxing)
 .ARM.exidx.text.system__exception_table__has_name
                0x000000000800fe60        0x8 /usr/local/gnat-arm/arm-eabi/lib/gnat/ravenscar-full-stm32f429disco/adalib/libgnat.a(s-exctab.o)
 .ARM.exidx.text.system__exception_table__lookup
                0x000000000800fe68        0x8 /usr/local/gnat-arm/arm-eabi/lib/gnat/ravenscar-full-stm32f429disco/adalib/libgnat.a(s-exctab.o)
 .ARM.exidx.text.system__exception_table__hash
                0x000000000800fe70        0x8 /usr/local/gnat-arm/arm-eabi/lib/gnat/ravenscar-full-stm32f429disco/adalib/libgnat.a(s-exctab.o)
 .ARM.exidx.text.system__exception_table__register
                0x000000000800fe78        0x8 /usr/local/gnat-arm/arm-eabi/lib/gnat/ravenscar-full-stm32f429disco/adalib/libgnat.a(s-exctab.o)
 .ARM.exidx.text.system__exception_table__get_registered_exceptions
                0x000000000800fe80        0x8 /usr/local/gnat-arm/arm-eabi/lib/gnat/ravenscar-full-stm32f429disco/adalib/libgnat.a(s-exctab.o)
 .ARM.exidx.text.system__exception_table__internal_exception
                0x000000000800fe88        0x8 /usr/local/gnat-arm/arm-eabi/lib/gnat/ravenscar-full-stm32f429disco/adalib/libgnat.a(s-exctab.o)
 .ARM.exidx.text.system__exception_table__register_exception
                0x000000000800fe90        0x8 /usr/local/gnat-arm/arm-eabi/lib/gnat/ravenscar-full-stm32f429disco/adalib/libgnat.a(s-exctab.o)
 .ARM.exidx.text.system__exception_table__registered_exceptions_count
                0x000000000800fe98        0x8 /usr/local/gnat-arm/arm-eabi/lib/gnat/ravenscar-full-stm32f429disco/adalib/libgnat.a(s-exctab.o)
 .ARM.exidx.text.system__exception_table___elabb
                0x000000000800fea0        0x8 /usr/local/gnat-arm/arm-eabi/lib/gnat/ravenscar-full-stm32f429disco/adalib/libgnat.a(s-exctab.o)
 .ARM.exidx.text.system__img_int__set_digits
                0x000000000800fea8        0x8 /usr/local/gnat-arm/arm-eabi/lib/gnat/ravenscar-full-stm32f429disco/adalib/libgnat.a(s-imgint.o)
 .ARM.exidx.text.system__img_int__set_image_integer
                0x000000000800feb0        0x0 /usr/local/gnat-arm/arm-eabi/lib/gnat/ravenscar-full-stm32f429disco/adalib/libgnat.a(s-imgint.o)
                                          0x8 (size before relaxing)
 .ARM.exidx.text.system__img_int__image_integer
                0x000000000800feb0        0x0 /usr/local/gnat-arm/arm-eabi/lib/gnat/ravenscar-full-stm32f429disco/adalib/libgnat.a(s-imgint.o)
                                          0x8 (size before relaxing)
 .ARM.exidx.text.__gnat_finalize
                0x000000000800feb0        0x0 /usr/local/gnat-arm/arm-eabi/lib/gnat/ravenscar-full-stm32f429disco/adalib/libgnat.a(s-init.o)
                                          0x8 (size before relaxing)
 .ARM.exidx.text.__gnat_initialize
                0x000000000800feb0        0x0 /usr/local/gnat-arm/arm-eabi/lib/gnat/ravenscar-full-stm32f429disco/adalib/libgnat.a(s-init.o)
                                          0x8 (size before relaxing)
 .ARM.exidx.text.__gnat_install_handler
                0x000000000800feb0        0x8 /usr/local/gnat-arm/arm-eabi/lib/gnat/ravenscar-full-stm32f429disco/adalib/libgnat.a(s-init.o)
 .ARM.exidx.text.__gnat_runtime_initialize
                0x000000000800feb8        0x0 /usr/local/gnat-arm/arm-eabi/lib/gnat/ravenscar-full-stm32f429disco/adalib/libgnat.a(s-init.o)
                                          0x8 (size before relaxing)
 .ARM.exidx.text.__gnat_runtime_finalize
                0x000000000800feb8        0x8 /usr/local/gnat-arm/arm-eabi/lib/gnat/ravenscar-full-stm32f429disco/adalib/libgnat.a(s-init.o)
 .ARM.exidx.text.system__io__put__2
                0x000000000800fec0        0x8 /usr/local/gnat-arm/arm-eabi/lib/gnat/ravenscar-full-stm32f429disco/adalib/libgnat.a(s-io.o)
 .ARM.exidx.text.system__io__new_line
                0x000000000800fec8        0x8 /usr/local/gnat-arm/arm-eabi/lib/gnat/ravenscar-full-stm32f429disco/adalib/libgnat.a(s-io.o)
 .ARM.exidx.text.system__io__put__3
                0x000000000800fed0        0x0 /usr/local/gnat-arm/arm-eabi/lib/gnat/ravenscar-full-stm32f429disco/adalib/libgnat.a(s-io.o)
                                          0x8 (size before relaxing)
 .ARM.exidx.text.system__io__put
                0x000000000800fed0        0x8 /usr/local/gnat-arm/arm-eabi/lib/gnat/ravenscar-full-stm32f429disco/adalib/libgnat.a(s-io.o)
 .ARM.exidx.text.put_char_stderr
                0x000000000800fed8        0x8 /usr/local/gnat-arm/arm-eabi/lib/gnat/ravenscar-full-stm32f429disco/adalib/libgnat.a(s-io.o)
 .ARM.exidx.text.system__io__put_line
                0x000000000800fee0        0x8 /usr/local/gnat-arm/arm-eabi/lib/gnat/ravenscar-full-stm32f429disco/adalib/libgnat.a(s-io.o)
 .ARM.exidx.text.system__io__standard_output
                0x000000000800fee8        0x8 /usr/local/gnat-arm/arm-eabi/lib/gnat/ravenscar-full-stm32f429disco/adalib/libgnat.a(s-io.o)
 .ARM.exidx.text.system__io__standard_error
                0x000000000800fef0        0x0 /usr/local/gnat-arm/arm-eabi/lib/gnat/ravenscar-full-stm32f429disco/adalib/libgnat.a(s-io.o)
                                          0x8 (size before relaxing)
 .ARM.exidx.text.system__io__set_output
                0x000000000800fef0        0x0 /usr/local/gnat-arm/arm-eabi/lib/gnat/ravenscar-full-stm32f429disco/adalib/libgnat.a(s-io.o)
                                          0x8 (size before relaxing)
 .ARM.exidx.text.abort
                0x000000000800fef0        0x8 /usr/local/gnat-arm/arm-eabi/lib/gnat/ravenscar-full-stm32f429disco/adalib/libgnat.a(s-macres.o)
 .ARM.exidx.text._exit
                0x000000000800fef8        0x0 /usr/local/gnat-arm/arm-eabi/lib/gnat/ravenscar-full-stm32f429disco/adalib/libgnat.a(s-macres.o)
                                          0x8 (size before relaxing)
 .ARM.exidx.text.system__machine_reset__stop
                0x000000000800fef8        0x0 /usr/local/gnat-arm/arm-eabi/lib/gnat/ravenscar-full-stm32f429disco/adalib/libgnat.a(s-macres.o)
                                          0x8 (size before relaxing)
 .ARM.exidx.text.__gnat_malloc
                0x000000000800fef8        0x8 /usr/local/gnat-arm/arm-eabi/lib/gnat/ravenscar-full-stm32f429disco/adalib/libgnat.a(s-memory.o)
 .ARM.exidx.text.__gnat_free
                0x000000000800ff00        0x0 /usr/local/gnat-arm/arm-eabi/lib/gnat/ravenscar-full-stm32f429disco/adalib/libgnat.a(s-memory.o)
                                          0x8 (size before relaxing)
 .ARM.exidx.text.__gnat_realloc
                0x000000000800ff00        0x8 /usr/local/gnat-arm/arm-eabi/lib/gnat/ravenscar-full-stm32f429disco/adalib/libgnat.a(s-memory.o)
 .ARM.exidx.text.system__multiprocessors__spin_locks__spin_lockIP
                0x000000000800ff08        0x8 /usr/local/gnat-arm/arm-eabi/lib/gnat/ravenscar-full-stm32f429disco/adalib/libgnat.a(s-musplo.o)
 .ARM.exidx.text.system__multiprocessors__spin_locks__lock
                0x000000000800ff10        0x0 /usr/local/gnat-arm/arm-eabi/lib/gnat/ravenscar-full-stm32f429disco/adalib/libgnat.a(s-musplo.o)
                                          0x8 (size before relaxing)
 .ARM.exidx.text.system__multiprocessors__spin_locks__locked
                0x000000000800ff10        0x0 /usr/local/gnat-arm/arm-eabi/lib/gnat/ravenscar-full-stm32f429disco/adalib/libgnat.a(s-musplo.o)
                                          0x8 (size before relaxing)
 .ARM.exidx.text.system__multiprocessors__spin_locks__try_lock
                0x000000000800ff10        0x0 /usr/local/gnat-arm/arm-eabi/lib/gnat/ravenscar-full-stm32f429disco/adalib/libgnat.a(s-musplo.o)
                                          0x8 (size before relaxing)
 .ARM.exidx.text.system__multiprocessors__spin_locks__unlock
                0x000000000800ff10        0x0 /usr/local/gnat-arm/arm-eabi/lib/gnat/ravenscar-full-stm32f429disco/adalib/libgnat.a(s-musplo.o)
                                          0x8 (size before relaxing)
 .ARM.exidx.text.system__parameters__adjust_storage_size
                0x000000000800ff10        0x8 /usr/local/gnat-arm/arm-eabi/lib/gnat/ravenscar-full-stm32f429disco/adalib/libgnat.a(s-parame.o)
 .ARM.exidx.text.system__secondary_stack__memoryIP
                0x000000000800ff18        0x0 /usr/local/gnat-arm/arm-eabi/lib/gnat/ravenscar-full-stm32f429disco/adalib/libgnat.a(s-secsta.o)
                                          0x8 (size before relaxing)
 .ARM.exidx.text.system__secondary_stack__ss_stackIP
                0x000000000800ff18        0x0 /usr/local/gnat-arm/arm-eabi/lib/gnat/ravenscar-full-stm32f429disco/adalib/libgnat.a(s-secsta.o)
                                          0x8 (size before relaxing)
 .ARM.exidx.text.system__secondary_stack__ss_allocate
                0x000000000800ff18        0x8 /usr/local/gnat-arm/arm-eabi/lib/gnat/ravenscar-full-stm32f429disco/adalib/libgnat.a(s-secsta.o)
 .ARM.exidx.text.system__secondary_stack__ss_get_max
                0x000000000800ff20        0x8 /usr/local/gnat-arm/arm-eabi/lib/gnat/ravenscar-full-stm32f429disco/adalib/libgnat.a(s-secsta.o)
 .ARM.exidx.text.system__secondary_stack__ss_init
                0x000000000800ff28        0x8 /usr/local/gnat-arm/arm-eabi/lib/gnat/ravenscar-full-stm32f429disco/adalib/libgnat.a(s-secsta.o)
 .ARM.exidx.text.system__secondary_stack__ss_mark
                0x000000000800ff30        0x8 /usr/local/gnat-arm/arm-eabi/lib/gnat/ravenscar-full-stm32f429disco/adalib/libgnat.a(s-secsta.o)
 .ARM.exidx.text.system__secondary_stack__ss_release
                0x000000000800ff38        0x8 /usr/local/gnat-arm/arm-eabi/lib/gnat/ravenscar-full-stm32f429disco/adalib/libgnat.a(s-secsta.o)
 .ARM.exidx.text.system__standard_library__exception_dataIP
                0x000000000800ff40        0x8 /usr/local/gnat-arm/arm-eabi/lib/gnat/ravenscar-full-stm32f429disco/adalib/libgnat.a(s-stalib.o)
 .ARM.exidx.text.system__standard_library__abort_undefer_direct
                0x000000000800ff48        0x8 /usr/local/gnat-arm/arm-eabi/lib/gnat/ravenscar-full-stm32f429disco/adalib/libgnat.a(s-stalib.o)
 .ARM.exidx.text.system__standard_library__adafinal
                0x000000000800ff50        0x0 /usr/local/gnat-arm/arm-eabi/lib/gnat/ravenscar-full-stm32f429disco/adalib/libgnat.a(s-stalib.o)
                                          0x8 (size before relaxing)
 .ARM.exidx.text.__gnat_break_start
                0x000000000800ff50        0x8 /usr/local/gnat-arm/arm-eabi/lib/gnat/ravenscar-full-stm32f429disco/adalib/libgnat.a(s-stalib.o)
 .ARM.exidx.text.system__text_io__initialize
                0x000000000800ff58        0x0 /usr/local/gnat-arm/arm-eabi/lib/gnat/ravenscar-full-stm32f429disco/adalib/libgnat.a(s-textio.o)
                                          0x8 (size before relaxing)
 .ARM.exidx.text.system__text_io__is_tx_ready
                0x000000000800ff58        0x0 /usr/local/gnat-arm/arm-eabi/lib/gnat/ravenscar-full-stm32f429disco/adalib/libgnat.a(s-textio.o)
                                          0x8 (size before relaxing)
 .ARM.exidx.text.system__text_io__is_rx_ready
                0x000000000800ff58        0x0 /usr/local/gnat-arm/arm-eabi/lib/gnat/ravenscar-full-stm32f429disco/adalib/libgnat.a(s-textio.o)
                                          0x8 (size before relaxing)
 .ARM.exidx.text.system__text_io__get
                0x000000000800ff58        0x8 /usr/local/gnat-arm/arm-eabi/lib/gnat/ravenscar-full-stm32f429disco/adalib/libgnat.a(s-textio.o)
 .ARM.exidx.text.system__text_io__put
                0x000000000800ff60        0x0 /usr/local/gnat-arm/arm-eabi/lib/gnat/ravenscar-full-stm32f429disco/adalib/libgnat.a(s-textio.o)
                                          0x8 (size before relaxing)
 .ARM.exidx.text.system__text_io__use_cr_lf_for_new_line
                0x000000000800ff60        0x8 /usr/local/gnat-arm/arm-eabi/lib/gnat/ravenscar-full-stm32f429disco/adalib/libgnat.a(s-textio.o)
 .ARM.exidx.text.system__traceback__backtrace_callback
                0x000000000800ff68        0x8 /usr/local/gnat-arm/arm-eabi/lib/gnat/ravenscar-full-stm32f429disco/adalib/libgnat.a(s-traceb.o)
 .ARM.exidx.text.system__traceback__unwind_context_typeIP
                0x000000000800ff70        0x8 /usr/local/gnat-arm/arm-eabi/lib/gnat/ravenscar-full-stm32f429disco/adalib/libgnat.a(s-traceb.o)
 .ARM.exidx.text.system__traceback__callback_params_typeIP
                0x000000000800ff78        0x0 /usr/local/gnat-arm/arm-eabi/lib/gnat/ravenscar-full-stm32f429disco/adalib/libgnat.a(s-traceb.o)
                                          0x8 (size before relaxing)
 .ARM.exidx.text.system__traceback__call_chain
                0x000000000800ff78        0x8 /usr/local/gnat-arm/arm-eabi/lib/gnat/ravenscar-full-stm32f429disco/adalib/libgnat.a(s-traceb.o)
 .ARM.exidx.text.system__traceback_entries__tracebacks_arrayIP
                0x000000000800ff80        0x8 /usr/local/gnat-arm/arm-eabi/lib/gnat/ravenscar-full-stm32f429disco/adalib/libgnat.a(s-traent.o)
 .ARM.exidx.text.system__traceback_entries__pc_for
                0x000000000800ff88        0x0 /usr/local/gnat-arm/arm-eabi/lib/gnat/ravenscar-full-stm32f429disco/adalib/libgnat.a(s-traent.o)
                                          0x8 (size before relaxing)
 .ARM.exidx.text.system__traceback_entries__tb_entry_for
                0x000000000800ff88        0x0 /usr/local/gnat-arm/arm-eabi/lib/gnat/ravenscar-full-stm32f429disco/adalib/libgnat.a(s-traent.o)
                                          0x8 (size before relaxing)
 .ARM.exidx.text.system__val_uns__scan_raw_unsigned
                0x000000000800ff88        0x8 /usr/local/gnat-arm/arm-eabi/lib/gnat/ravenscar-full-stm32f429disco/adalib/libgnat.a(s-valuns.o)
 .ARM.exidx.text.system__val_uns__scan_unsigned
                0x000000000800ff90        0x8 /usr/local/gnat-arm/arm-eabi/lib/gnat/ravenscar-full-stm32f429disco/adalib/libgnat.a(s-valuns.o)
 .ARM.exidx.text.system__val_uns__value_unsigned
                0x000000000800ff98        0x8 /usr/local/gnat-arm/arm-eabi/lib/gnat/ravenscar-full-stm32f429disco/adalib/libgnat.a(s-valuns.o)
 .ARM.exidx.text.system__val_util__bad_value
                0x000000000800ffa0        0x8 /usr/local/gnat-arm/arm-eabi/lib/gnat/ravenscar-full-stm32f429disco/adalib/libgnat.a(s-valuti.o)
 .ARM.exidx.text.system__val_util__normalize_string
                0x000000000800ffa8        0x8 /usr/local/gnat-arm/arm-eabi/lib/gnat/ravenscar-full-stm32f429disco/adalib/libgnat.a(s-valuti.o)
 .ARM.exidx.text.system__val_util__scan_plus_sign
                0x000000000800ffb0        0x8 /usr/local/gnat-arm/arm-eabi/lib/gnat/ravenscar-full-stm32f429disco/adalib/libgnat.a(s-valuti.o)
 .ARM.exidx.text.system__val_util__scan_sign
                0x000000000800ffb8        0x0 /usr/local/gnat-arm/arm-eabi/lib/gnat/ravenscar-full-stm32f429disco/adalib/libgnat.a(s-valuti.o)
                                          0x8 (size before relaxing)
 .ARM.exidx.text.system__val_util__scan_trailing_blanks
                0x000000000800ffb8        0x8 /usr/local/gnat-arm/arm-eabi/lib/gnat/ravenscar-full-stm32f429disco/adalib/libgnat.a(s-valuti.o)
 .ARM.exidx.text.system__val_util__scan_underscore
                0x000000000800ffc0        0x8 /usr/local/gnat-arm/arm-eabi/lib/gnat/ravenscar-full-stm32f429disco/adalib/libgnat.a(s-valuti.o)
 .ARM.exidx.text.system__val_util__scan_exponent
                0x000000000800ffc8        0x8 /usr/local/gnat-arm/arm-eabi/lib/gnat/ravenscar-full-stm32f429disco/adalib/libgnat.a(s-valuti.o)
 .ARM.exidx.text.system__wch_con__get_wc_encoding_method
                0x000000000800ffd0        0x8 /usr/local/gnat-arm/arm-eabi/lib/gnat/ravenscar-full-stm32f429disco/adalib/libgnat.a(s-wchcon.o)
 .ARM.exidx.text.system__wch_con__get_wc_encoding_method__2
                0x000000000800ffd8        0x8 /usr/local/gnat-arm/arm-eabi/lib/gnat/ravenscar-full-stm32f429disco/adalib/libgnat.a(s-wchcon.o)
 .ARM.exidx.text.system__wch_con__is_start_of_encoding
                0x000000000800ffe0        0x8 /usr/local/gnat-arm/arm-eabi/lib/gnat/ravenscar-full-stm32f429disco/adalib/libgnat.a(s-wchcon.o)
 .ARM.exidx.text.system__wch_stw__get_next_code__in_char.5652
                0x000000000800ffe8        0x8 /usr/local/gnat-arm/arm-eabi/lib/gnat/ravenscar-full-stm32f429disco/adalib/libgnat.a(s-wchstw.o)
 .ARM.exidx.text.system__wch_stw__get_next_code__get_utf_32__get_hex.5664
                0x000000000800fff0        0x8 /usr/local/gnat-arm/arm-eabi/lib/gnat/ravenscar-full-stm32f429disco/adalib/libgnat.a(s-wchstw.o)
 .ARM.exidx.text.system__wch_stw__get_next_code
                0x000000000800fff8        0x8 /usr/local/gnat-arm/arm-eabi/lib/gnat/ravenscar-full-stm32f429disco/adalib/libgnat.a(s-wchstw.o)
 .ARM.exidx.text.system__wch_stw__string_to_wide_string
                0x0000000008010000        0x8 /usr/local/gnat-arm/arm-eabi/lib/gnat/ravenscar-full-stm32f429disco/adalib/libgnat.a(s-wchstw.o)
 .ARM.exidx.text.system__wch_stw__string_to_wide_wide_string
                0x0000000008010008       0x10 /usr/local/gnat-arm/arm-eabi/lib/gnat/ravenscar-full-stm32f429disco/adalib/libgnat.a(s-wchstw.o)
                                          0x8 (size before relaxing)
 .ARM.exidx.text.system__case_util__to_lower
                0x0000000008010018        0x0 /usr/local/gnat-arm/arm-eabi/lib/gnat/ravenscar-full-stm32f429disco/adalib/libgnat.a(s-casuti.o)
                                          0x8 (size before relaxing)
 .ARM.exidx.text.system__case_util__to_lower__2
                0x0000000008010018        0x0 /usr/local/gnat-arm/arm-eabi/lib/gnat/ravenscar-full-stm32f429disco/adalib/libgnat.a(s-casuti.o)
                                          0x8 (size before relaxing)
 .ARM.exidx.text.system__case_util__to_lower__3
                0x0000000008010018        0x8 /usr/local/gnat-arm/arm-eabi/lib/gnat/ravenscar-full-stm32f429disco/adalib/libgnat.a(s-casuti.o)
 .ARM.exidx.text.system__case_util__to_mixed
                0x0000000008010020        0x8 /usr/local/gnat-arm/arm-eabi/lib/gnat/ravenscar-full-stm32f429disco/adalib/libgnat.a(s-casuti.o)
 .ARM.exidx.text.system__case_util__to_mixed__2
                0x0000000008010028        0x8 /usr/local/gnat-arm/arm-eabi/lib/gnat/ravenscar-full-stm32f429disco/adalib/libgnat.a(s-casuti.o)
 .ARM.exidx.text.system__case_util__to_upper
                0x0000000008010030        0x8 /usr/local/gnat-arm/arm-eabi/lib/gnat/ravenscar-full-stm32f429disco/adalib/libgnat.a(s-casuti.o)
 .ARM.exidx.text.system__case_util__to_upper__2
                0x0000000008010038        0x0 /usr/local/gnat-arm/arm-eabi/lib/gnat/ravenscar-full-stm32f429disco/adalib/libgnat.a(s-casuti.o)
                                          0x8 (size before relaxing)
 .ARM.exidx.text.system__case_util__to_upper__3
                0x0000000008010038        0x8 /usr/local/gnat-arm/arm-eabi/lib/gnat/ravenscar-full-stm32f429disco/adalib/libgnat.a(s-casuti.o)
 .ARM.exidx.text.system__semihosting__TbufferBIP
                0x0000000008010040        0x8 /usr/local/gnat-arm/arm-eabi/lib/gnat/ravenscar-full-stm32f429disco/adalib/libgnat.a(s-semiho.o)
 .ARM.exidx.text.system__semihosting__put
                0x0000000008010048        0x8 /usr/local/gnat-arm/arm-eabi/lib/gnat/ravenscar-full-stm32f429disco/adalib/libgnat.a(s-semiho.o)
 .ARM.exidx.text.system__semihosting__put__2
                0x0000000008010050        0x8 /usr/local/gnat-arm/arm-eabi/lib/gnat/ravenscar-full-stm32f429disco/adalib/libgnat.a(s-semiho.o)
 .ARM.exidx.text.system__semihosting__get
                0x0000000008010058        0x8 /usr/local/gnat-arm/arm-eabi/lib/gnat/ravenscar-full-stm32f429disco/adalib/libgnat.a(s-semiho.o)
 .ARM.exidx.text.system__wch_jis__euc_to_jis
                0x0000000008010060        0x8 /usr/local/gnat-arm/arm-eabi/lib/gnat/ravenscar-full-stm32f429disco/adalib/libgnat.a(s-wchjis.o)
 .ARM.exidx.text.system__wch_jis__jis_to_euc
                0x0000000008010068        0x8 /usr/local/gnat-arm/arm-eabi/lib/gnat/ravenscar-full-stm32f429disco/adalib/libgnat.a(s-wchjis.o)
 .ARM.exidx.text.system__wch_jis__jis_to_shift_jis
                0x0000000008010070        0x8 /usr/local/gnat-arm/arm-eabi/lib/gnat/ravenscar-full-stm32f429disco/adalib/libgnat.a(s-wchjis.o)
 .ARM.exidx.text.system__wch_jis__shift_jis_to_jis
                0x0000000008010078        0x8 /usr/local/gnat-arm/arm-eabi/lib/gnat/ravenscar-full-stm32f429disco/adalib/libgnat.a(s-wchjis.o)
 .ARM.exidx.text._ada_setup_pll
                0x0000000008010080       0x10 /usr/local/gnat-arm/arm-eabi/lib/gnat/ravenscar-full-stm32f429disco/adalib/libgnat.a(setup_pll.o)
                                          0x8 (size before relaxing)
 .ARM.exidx.text.system__bb__mcu_parameters__is_pwr_stabilized
                0x0000000008010090        0x8 /usr/local/gnat-arm/arm-eabi/lib/gnat/ravenscar-full-stm32f429disco/adalib/libgnat.a(s-bbmcpa.o)
 .ARM.exidx.text.system__bb__mcu_parameters__pwr_initialize
                0x0000000008010098        0x0 /usr/local/gnat-arm/arm-eabi/lib/gnat/ravenscar-full-stm32f429disco/adalib/libgnat.a(s-bbmcpa.o)
                                          0x8 (size before relaxing)
 .ARM.exidx.text.system__bb__mcu_parameters__pwr_overdrive_enable
                0x0000000008010098        0x8 /usr/local/gnat-arm/arm-eabi/lib/gnat/ravenscar-full-stm32f429disco/adalib/libgnat.a(s-bbmcpa.o)
 .ARM.exidx     0x00000000080100a0        0x0 /usr/local/gnat-arm/bin/../lib/gcc/arm-eabi/7.3.1/thumb/v7e-m/fpv4-sp/hard/libgcc.a(_udivmoddi4.o)
                                          0x8 (size before relaxing)
 .ARM.exidx     0x00000000080100a0       0x78 /usr/local/gnat-arm/bin/../lib/gcc/arm-eabi/7.3.1/thumb/v7e-m/fpv4-sp/hard/libgcc.a(unwind-arm.o)
                                         0xd8 (size before relaxing)
 .ARM.exidx     0x0000000008010118       0x38 /usr/local/gnat-arm/bin/../lib/gcc/arm-eabi/7.3.1/thumb/v7e-m/fpv4-sp/hard/libgcc.a(pr-support.o)
                                         0x48 (size before relaxing)
                0x0000000008010150                PROVIDE (__exidx_end, .)

.rodata         0x0000000008010150     0x1848
 *(.lit)
 *(.rodata .rodata.* .gnu.linkonce.r*)
 .rodata        0x0000000008010150       0x45 b__unit01.o
                0x0000000008010158                __gnat_version
                0x0000000008010184                __gnat_ada_main_program_name
 *fill*         0x0000000008010195        0x3 
 .rodata        0x0000000008010198       0x66 /home/aquox/Scrivania/Arm/edf-ravenscar-arm/build/system.o
                0x0000000008010198                system__nameS
                0x00000000080101a8                system__nameN
                0x00000000080101aa                system__system_name
                0x00000000080101ac                system__bit_orderS
                0x00000000080101cc                system__bit_orderN
                0x00000000080101d0                system__default_bit_order
                0x00000000080101d4                system__max_interrupt_priority
                0x00000000080101d8                system__max_priority
                0x00000000080101dc                system__default_priority
                0x00000000080101e0                system__null_address
                0x00000000080101e4                system__atomic_sync_default
                0x00000000080101e5                system__backend_divide_checks
                0x00000000080101e6                system__backend_overflow_checks
                0x00000000080101e7                system__command_line_args
                0x00000000080101e8                system__configurable_run_time
                0x00000000080101e9                system__denorm
                0x00000000080101ea                system__duration_32_bits
                0x00000000080101eb                system__exit_status_supported
                0x00000000080101ec                system__fractional_fixed_ops
                0x00000000080101ed                system__frontend_layout
                0x00000000080101ee                system__machine_overflows
                0x00000000080101ef                system__machine_rounds
                0x00000000080101f0                system__preallocated_stacks
                0x00000000080101f1                system__signed_zeros
                0x00000000080101f2                system__stack_check_default
                0x00000000080101f3                system__stack_check_probes
                0x00000000080101f4                system__stack_check_limits
                0x00000000080101f5                system__support_aggregates
                0x00000000080101f6                system__support_composite_assign
                0x00000000080101f7                system__support_composite_compare
                0x00000000080101f8                system__support_long_shifts
                0x00000000080101f9                system__always_compatible_rep
                0x00000000080101fa                system__suppress_standard_library
                0x00000000080101fb                system__use_ada_main_program_name
                0x00000000080101fc                system__frontend_exceptions
                0x00000000080101fd                system__zcx_by_default
 *fill*         0x00000000080101fe        0x2 
 .rodata        0x0000000008010200        0xe /home/aquox/Scrivania/Arm/edf-ravenscar-arm/build/s-bbpara.o
                0x0000000008010200                system__bb__parameters__ahb_pre
                0x0000000008010204                system__bb__parameters__apb1_pre
                0x0000000008010208                system__bb__parameters__apb2_pre
                0x0000000008010209                system__bb__parameters__has_fpu
                0x000000000801020a                system__bb__parameters__has_vtor
                0x000000000801020b                system__bb__parameters__has_os_extensions
                0x000000000801020c                system__bb__parameters__is_armv6m
                0x000000000801020d                system__bb__parameters__multiprocessor
 .rodata        0x000000000801020e        0x1 /home/aquox/Scrivania/Arm/edf-ravenscar-arm/build/s-multip.o
                0x000000000801020e                system__multiprocessors__not_a_specific_cpu
 *fill*         0x000000000801020f        0x1 
 .rodata        0x0000000008010210       0x28 /home/aquox/Scrivania/Arm/edf-ravenscar-arm/build/s-bbbosu.o
                0x000000000801021d                system__bb__board_support__sys_tick_vector
                0x000000000801021e                system__bb__board_support__interrupt_request_vector
                0x0000000008010220                system__bb__board_support__alarm_interrupt_id
                0x0000000008010224                system__bb__board_support__tick_period
                0x0000000008010228                system__bb__board_support__nvic_iser0
                0x000000000801022c                system__bb__board_support(int,  *)
                0x0000000008010230                system__bb__board_support(int, char, short, long double)
                0x0000000008010234                system__bb__board_support__syst
 .rodata        0x0000000008010238       0x18 /home/aquox/Scrivania/Arm/edf-ravenscar-arm/build/s-bbdead.o
                0x0000000008010238                system__bb__deadlines__default_relative_deadline
                0x0000000008010240                system__bb__deadlines__unspecified_relative_deadline
                0x0000000008010248                system__bb__deadlines__default_absolute_deadline
 .rodata        0x0000000008010250       0xbc /home/aquox/Scrivania/Arm/edf-ravenscar-arm/build/s-bbtiev.o
                0x0000000008010260                system__bb__timing_events__timing_eventP
                0x0000000008010264                system__bb__timing_events__timing_eventY
                0x0000000008010268                system__bb__timing_events__timing_eventE12s
                0x0000000008010290                system__bb__timing_events__timing_eventB16s
                0x00000000080102bc                system__bb__timing_events__timing_eventR14s___UNC
                0x00000000080102e8                system__bb__timing_events__timing_eventR14s
                0x00000000080102ec                system__bb__timing_events__timing_eventT
 .rodata        0x000000000801030c       0x30 /home/aquox/Scrivania/Arm/edf-ravenscar-arm/build/s-bbthqu.o
 .rodata        0x000000000801033c        0xd /home/aquox/Scrivania/Arm/edf-ravenscar-arm/build/s-bbprot.o
 *fill*         0x0000000008010349        0x3 
 .rodata        0x000000000801034c       0x30 /home/aquox/Scrivania/Arm/edf-ravenscar-arm/build/s-bbthre.o
                0x000000000801035c                system__bb__threads__null_thread_id
                0x0000000008010360                system__bb__threads__thread_statesS
                0x0000000008010378                system__bb__threads__thread_statesN
 .rodata        0x000000000801037c       0x14 /home/aquox/Scrivania/Arm/edf-ravenscar-arm/build/s-bbinte.o
                0x000000000801038c                system__bb__interrupts__no_interrupt
 .rodata        0x0000000008010390      0x1d8 /home/aquox/Scrivania/Arm/edf-ravenscar-arm/build/s-bbcppr.o
                0x000000000801053c                system__bb__cpu_primitives__nl
                0x000000000801053e                system__bb__cpu_primitives__has_vtor
                0x000000000801053f                system__bb__cpu_primitives__has_os_extensions
                0x0000000008010540                system__bb__cpu_primitives__is_armv6m
                0x0000000008010541                system__bb__cpu_primitives__reset_vector
                0x0000000008010542                system__bb__cpu_primitives__nmi_vector
                0x0000000008010543                system__bb__cpu_primitives__hard_fault_vector
                0x0000000008010544                system__bb__cpu_primitives__bus_fault_vector
                0x0000000008010545                system__bb__cpu_primitives__usage_fault_vector
                0x0000000008010546                system__bb__cpu_primitives__sv_call_vector
                0x0000000008010547                system__bb__cpu_primitives__pend_sv_vector
                0x0000000008010548                system__bb__cpu_primitives__sys_tick_vector
                0x0000000008010549                system__bb__cpu_primitives__interrupt_request_vector
                0x000000000801054a                system__bb__cpu_primitives__sp_process
                0x000000000801054c                system__bb__cpu_primitives__vtor
                0x0000000008010550                system__bb__cpu_primitives__aircr
                0x0000000008010554                system__bb__cpu_primitives(char, char, long double)
                0x0000000008010558                system__bb__cpu_primitives__shpr1
                0x000000000801055c                system__bb__cpu_primitives__shpr2
                0x0000000008010560                system__bb__cpu_primitives__shpr3
                0x0000000008010564                system__bb__cpu_primitives__shcsr
 .rodata        0x0000000008010568        0xc /home/aquox/Scrivania/Arm/edf-ravenscar-arm/build/s-osinte.o
                0x0000000008010568                system__os_interface__no_interrupt
                0x000000000801056c                system__os_interface__null_thread_id
                0x0000000008010570                system__os_interface__lwp_self
 .rodata        0x0000000008010574       0x94 /home/aquox/Scrivania/Arm/edf-ravenscar-arm/build/a-elchha.o
 .rodata        0x0000000008010608        0xd /home/aquox/Scrivania/Arm/edf-ravenscar-arm/build/s-tasdeb.o
 *fill*         0x0000000008010615        0x3 
 .rodata        0x0000000008010618      0x1f4 /home/aquox/Scrivania/Arm/edf-ravenscar-arm/build/s-taskin.o
                0x000000000801066c                system__tasking__null_task
                0x0000000008010670                system__tasking__idle_priority
                0x0000000008010674                system__tasking__library_task_level
                0x0000000008010678                system__tasking__task_statesS
                0x00000000080107a8                system__tasking__task_statesN
                0x00000000080107cc                system__tasking__call_modesS
                0x0000000008010804                system__tasking__call_modesN
 .rodata        0x000000000801080c       0x24 /home/aquox/Scrivania/Arm/edf-ravenscar-arm/build/s-soflin.o
                0x0000000008010824                system__soft_links__abort_defer
                0x0000000008010828                system__soft_links__abort_undefer
                0x000000000801082c                system__soft_links__get_current_excep
 .rodata        0x0000000008010830       0x54 /home/aquox/Scrivania/Arm/edf-ravenscar-arm/build/s-bbtime.o
                0x0000000008010840                system__bb__time__initial_composite_execution_time
                0x0000000008010848                system__bb__time__time_first
                0x0000000008010850                system__bb__time__time_last
                0x0000000008010858                system__bb__time__time_span_first
                0x0000000008010860                system__bb__time__time_span_last
                0x0000000008010868                system__bb__time__time_span_zero
                0x0000000008010870                system__bb__time__time_span_unit
                0x0000000008010878                system__bb__time__update_in_progress
                0x000000000801087c                system__bb__time__periods_in_epoch
                0x0000000008010880                system__bb__time__duration_units
 .rodata        0x0000000008010884        0xe /home/aquox/Scrivania/Arm/edf-ravenscar-arm/build/s-mufalo.o
                0x0000000008010891                system__multiprocessors__fair_locks__multiprocessor
 *fill*         0x0000000008010892        0x2 
 .rodata        0x0000000008010894       0x14 /home/aquox/Scrivania/Arm/edf-ravenscar-arm/build/s-taprop.o
                0x00000000080108a4                system__task_primitives__operations__idle_stack_size
 .rodata        0x00000000080108a8       0x4c /home/aquox/Scrivania/Arm/edf-ravenscar-arm/build/a-reatim.o
                0x00000000080108b8                ada__real_time__time_first
                0x00000000080108c0                ada__real_time__time_last
                0x00000000080108c8                ada__real_time__time_span_first
                0x00000000080108d0                ada__real_time__time_span_last
                0x00000000080108d8                ada__real_time__time_span_zero
                0x00000000080108e0                ada__real_time__time_span_unit
                0x00000000080108e8                ada__real_time__tick
                0x00000000080108f0                ada__real_time__duration_units
 .rodata        0x00000000080108f4        0xd /home/aquox/Scrivania/Arm/edf-ravenscar-arm/build/a-retide.o
 *fill*         0x0000000008010901        0x3 
 .rodata        0x0000000008010904       0x6c /home/aquox/Scrivania/Arm/edf-ravenscar-arm/build/s-tarest.o
 .rodata        0x0000000008010970        0xf /home/aquox/Scrivania/Arm/edf-ravenscar-arm/build/print_task.o
 *fill*         0x000000000801097f        0x1 
 .rodata        0x0000000008010980       0x28 /home/aquox/Scrivania/Arm/edf-ravenscar-arm/build/cyclic_tasks.o
 .rodata.ada__exceptions__exception_data__append_info_basic_exception_informationXn.str1.4
                0x00000000080109a8        0x4 /usr/local/gnat-arm/arm-eabi/lib/gnat/ravenscar-full-stm32f429disco/adalib/libgnat.a(a-except.o)
 .rodata        0x00000000080109ac      0x22c /usr/local/gnat-arm/arm-eabi/lib/gnat/ravenscar-full-stm32f429disco/adalib/libgnat.a(a-except.o)
 .rodata.__gnat_setup_current_excep.str1.4
                0x0000000008010bd8        0x8 /usr/local/gnat-arm/arm-eabi/lib/gnat/ravenscar-full-stm32f429disco/adalib/libgnat.a(a-except.o)
 .rodata.ada__exceptions__exception_traces__notify_exceptionXn.str1.4
                0x0000000008010be0       0x1d /usr/local/gnat-arm/arm-eabi/lib/gnat/ravenscar-full-stm32f429disco/adalib/libgnat.a(a-except.o)
 *fill*         0x0000000008010bfd        0x3 
 .rodata.ada__exceptions__stream_attributes__string_to_eo__bad_eo.6986.str1.4
                0x0000000008010c00       0x29 /usr/local/gnat-arm/arm-eabi/lib/gnat/ravenscar-full-stm32f429disco/adalib/libgnat.a(a-except.o)
 *fill*         0x0000000008010c29        0x3 
 .rodata.ada__exceptions__stream_attributes__string_to_eoXn.str1.4
                0x0000000008010c2c       0x28 /usr/local/gnat-arm/arm-eabi/lib/gnat/ravenscar-full-stm32f429disco/adalib/libgnat.a(a-except.o)
                                         0x30 (size before relaxing)
 .rodata.__gnat_raise_from_controlled_operation.str1.4
                0x0000000008010c54       0x1b /usr/local/gnat-arm/arm-eabi/lib/gnat/ravenscar-full-stm32f429disco/adalib/libgnat.a(a-except.o)
 *fill*         0x0000000008010c6f        0x1 
 .rodata.__gnat_rcheck_CE_Index_Check_ext.str1.4
                0x0000000008010c70       0x2b /usr/local/gnat-arm/arm-eabi/lib/gnat/ravenscar-full-stm32f429disco/adalib/libgnat.a(a-except.o)
 *fill*         0x0000000008010c9b        0x1 
 .rodata.__gnat_rcheck_CE_Invalid_Data_ext.str1.4
                0x0000000008010c9c       0x17 /usr/local/gnat-arm/arm-eabi/lib/gnat/ravenscar-full-stm32f429disco/adalib/libgnat.a(a-except.o)
 *fill*         0x0000000008010cb3        0x1 
 .rodata.__gnat_rcheck_CE_Range_Check_ext.str1.4
                0x0000000008010cb4       0x13 /usr/local/gnat-arm/arm-eabi/lib/gnat/ravenscar-full-stm32f429disco/adalib/libgnat.a(a-except.o)
 *fill*         0x0000000008010cc7        0x1 
 .rodata.__gnat_reraise_library_exception_if_any.str1.4
                0x0000000008010cc8       0x21 /usr/local/gnat-arm/arm-eabi/lib/gnat/ravenscar-full-stm32f429disco/adalib/libgnat.a(a-except.o)
 *fill*         0x0000000008010ce9        0x3 
 .rodata.ada__exceptions__null_loc
                0x0000000008010cec        0x4 /usr/local/gnat-arm/arm-eabi/lib/gnat/ravenscar-full-stm32f429disco/adalib/libgnat.a(a-except.o)
                0x0000000008010cec                ada__exceptions__null_loc
 .rodata.ada__exceptions__null_id
                0x0000000008010cf0        0x4 /usr/local/gnat-arm/arm-eabi/lib/gnat/ravenscar-full-stm32f429disco/adalib/libgnat.a(a-except.o)
                0x0000000008010cf0                ada__exceptions__null_id
 .rodata.ada__exceptions__null_occurrence
                0x0000000008010cf4      0x1a8 /usr/local/gnat-arm/arm-eabi/lib/gnat/ravenscar-full-stm32f429disco/adalib/libgnat.a(a-except.o)
                0x0000000008010cf4                ada__exceptions__null_occurrence
 .rodata.ada__exceptions__rmsg_00
                0x0000000008010e9c       0x14 /usr/local/gnat-arm/arm-eabi/lib/gnat/ravenscar-full-stm32f429disco/adalib/libgnat.a(a-except.o)
                0x0000000008010e9c                ada__exceptions__rmsg_00
 .rodata.ada__exceptions__rmsg_01
                0x0000000008010eb0       0x19 /usr/local/gnat-arm/arm-eabi/lib/gnat/ravenscar-full-stm32f429disco/adalib/libgnat.a(a-except.o)
                0x0000000008010eb0                ada__exceptions__rmsg_01
 *fill*         0x0000000008010ec9        0x3 
 .rodata.ada__exceptions__rmsg_02
                0x0000000008010ecc       0x1a /usr/local/gnat-arm/arm-eabi/lib/gnat/ravenscar-full-stm32f429disco/adalib/libgnat.a(a-except.o)
                0x0000000008010ecc                ada__exceptions__rmsg_02
 *fill*         0x0000000008010ee6        0x2 
 .rodata.ada__exceptions__rmsg_03
                0x0000000008010ee8        0xf /usr/local/gnat-arm/arm-eabi/lib/gnat/ravenscar-full-stm32f429disco/adalib/libgnat.a(a-except.o)
                0x0000000008010ee8                ada__exceptions__rmsg_03
 *fill*         0x0000000008010ef7        0x1 
 .rodata.ada__exceptions__rmsg_04
                0x0000000008010ef8        0xf /usr/local/gnat-arm/arm-eabi/lib/gnat/ravenscar-full-stm32f429disco/adalib/libgnat.a(a-except.o)
                0x0000000008010ef8                ada__exceptions__rmsg_04
 *fill*         0x0000000008010f07        0x1 
 .rodata.ada__exceptions__rmsg_05
                0x0000000008010f08       0x13 /usr/local/gnat-arm/arm-eabi/lib/gnat/ravenscar-full-stm32f429disco/adalib/libgnat.a(a-except.o)
                0x0000000008010f08                ada__exceptions__rmsg_05
 *fill*         0x0000000008010f1b        0x1 
 .rodata.ada__exceptions__rmsg_06
                0x0000000008010f1c        0xd /usr/local/gnat-arm/arm-eabi/lib/gnat/ravenscar-full-stm32f429disco/adalib/libgnat.a(a-except.o)
                0x0000000008010f1c                ada__exceptions__rmsg_06
 *fill*         0x0000000008010f29        0x3 
 .rodata.ada__exceptions__rmsg_07
                0x0000000008010f2c       0x14 /usr/local/gnat-arm/arm-eabi/lib/gnat/ravenscar-full-stm32f429disco/adalib/libgnat.a(a-except.o)
                0x0000000008010f2c                ada__exceptions__rmsg_07
 .rodata.ada__exceptions__rmsg_08
                0x0000000008010f40       0x12 /usr/local/gnat-arm/arm-eabi/lib/gnat/ravenscar-full-stm32f429disco/adalib/libgnat.a(a-except.o)
                0x0000000008010f40                ada__exceptions__rmsg_08
 *fill*         0x0000000008010f52        0x2 
 .rodata.ada__exceptions__rmsg_09
                0x0000000008010f54       0x1c /usr/local/gnat-arm/arm-eabi/lib/gnat/ravenscar-full-stm32f429disco/adalib/libgnat.a(a-except.o)
                0x0000000008010f54                ada__exceptions__rmsg_09
 .rodata.ada__exceptions__rmsg_10
                0x0000000008010f70       0x16 /usr/local/gnat-arm/arm-eabi/lib/gnat/ravenscar-full-stm32f429disco/adalib/libgnat.a(a-except.o)
                0x0000000008010f70                ada__exceptions__rmsg_10
 *fill*         0x0000000008010f86        0x2 
 .rodata.ada__exceptions__rmsg_11
                0x0000000008010f88       0x17 /usr/local/gnat-arm/arm-eabi/lib/gnat/ravenscar-full-stm32f429disco/adalib/libgnat.a(a-except.o)
                0x0000000008010f88                ada__exceptions__rmsg_11
 *fill*         0x0000000008010f9f        0x1 
 .rodata.ada__exceptions__rmsg_12
                0x0000000008010fa0       0x13 /usr/local/gnat-arm/arm-eabi/lib/gnat/ravenscar-full-stm32f429disco/adalib/libgnat.a(a-except.o)
                0x0000000008010fa0                ada__exceptions__rmsg_12
 *fill*         0x0000000008010fb3        0x1 
 .rodata.ada__exceptions__rmsg_13
                0x0000000008010fb4       0x11 /usr/local/gnat-arm/arm-eabi/lib/gnat/ravenscar-full-stm32f429disco/adalib/libgnat.a(a-except.o)
                0x0000000008010fb4                ada__exceptions__rmsg_13
 *fill*         0x0000000008010fc5        0x3 
 .rodata.ada__exceptions__rmsg_14
                0x0000000008010fc8       0x1a /usr/local/gnat-arm/arm-eabi/lib/gnat/ravenscar-full-stm32f429disco/adalib/libgnat.a(a-except.o)
                0x0000000008010fc8                ada__exceptions__rmsg_14
 *fill*         0x0000000008010fe2        0x2 
 .rodata.ada__exceptions__rmsg_15
                0x0000000008010fe4       0x1b /usr/local/gnat-arm/arm-eabi/lib/gnat/ravenscar-full-stm32f429disco/adalib/libgnat.a(a-except.o)
                0x0000000008010fe4                ada__exceptions__rmsg_15
 *fill*         0x0000000008010fff        0x1 
 .rodata.ada__exceptions__rmsg_16
                0x0000000008011000       0x30 /usr/local/gnat-arm/arm-eabi/lib/gnat/ravenscar-full-stm32f429disco/adalib/libgnat.a(a-except.o)
                0x0000000008011000                ada__exceptions__rmsg_16
 .rodata.ada__exceptions__rmsg_17
                0x0000000008011030       0x13 /usr/local/gnat-arm/arm-eabi/lib/gnat/ravenscar-full-stm32f429disco/adalib/libgnat.a(a-except.o)
                0x0000000008011030                ada__exceptions__rmsg_17
 *fill*         0x0000000008011043        0x1 
 .rodata.ada__exceptions__rmsg_18
                0x0000000008011044       0x12 /usr/local/gnat-arm/arm-eabi/lib/gnat/ravenscar-full-stm32f429disco/adalib/libgnat.a(a-except.o)
                0x0000000008011044                ada__exceptions__rmsg_18
 *fill*         0x0000000008011056        0x2 
 .rodata.ada__exceptions__rmsg_19
                0x0000000008011058       0x2f /usr/local/gnat-arm/arm-eabi/lib/gnat/ravenscar-full-stm32f429disco/adalib/libgnat.a(a-except.o)
                0x0000000008011058                ada__exceptions__rmsg_19
 *fill*         0x0000000008011087        0x1 
 .rodata.ada__exceptions__rmsg_20
                0x0000000008011088       0x26 /usr/local/gnat-arm/arm-eabi/lib/gnat/ravenscar-full-stm32f429disco/adalib/libgnat.a(a-except.o)
                0x0000000008011088                ada__exceptions__rmsg_20
 *fill*         0x00000000080110ae        0x2 
 .rodata.ada__exceptions__rmsg_21
                0x00000000080110b0       0x19 /usr/local/gnat-arm/arm-eabi/lib/gnat/ravenscar-full-stm32f429disco/adalib/libgnat.a(a-except.o)
                0x00000000080110b0                ada__exceptions__rmsg_21
 *fill*         0x00000000080110c9        0x3 
 .rodata.ada__exceptions__rmsg_22
                0x00000000080110cc        0xf /usr/local/gnat-arm/arm-eabi/lib/gnat/ravenscar-full-stm32f429disco/adalib/libgnat.a(a-except.o)
                0x00000000080110cc                ada__exceptions__rmsg_22
 *fill*         0x00000000080110db        0x1 
 .rodata.ada__exceptions__rmsg_23
                0x00000000080110dc       0x21 /usr/local/gnat-arm/arm-eabi/lib/gnat/ravenscar-full-stm32f429disco/adalib/libgnat.a(a-except.o)
                0x00000000080110dc                ada__exceptions__rmsg_23
 *fill*         0x00000000080110fd        0x3 
 .rodata.ada__exceptions__rmsg_24
                0x0000000008011100       0x1f /usr/local/gnat-arm/arm-eabi/lib/gnat/ravenscar-full-stm32f429disco/adalib/libgnat.a(a-except.o)
                0x0000000008011100                ada__exceptions__rmsg_24
 *fill*         0x000000000801111f        0x1 
 .rodata.ada__exceptions__rmsg_25
                0x0000000008011120       0x19 /usr/local/gnat-arm/arm-eabi/lib/gnat/ravenscar-full-stm32f429disco/adalib/libgnat.a(a-except.o)
                0x0000000008011120                ada__exceptions__rmsg_25
 *fill*         0x0000000008011139        0x3 
 .rodata.ada__exceptions__rmsg_26
                0x000000000801113c        0xf /usr/local/gnat-arm/arm-eabi/lib/gnat/ravenscar-full-stm32f429disco/adalib/libgnat.a(a-except.o)
                0x000000000801113c                ada__exceptions__rmsg_26
 *fill*         0x000000000801114b        0x1 
 .rodata.ada__exceptions__rmsg_27
                0x000000000801114c       0x1b /usr/local/gnat-arm/arm-eabi/lib/gnat/ravenscar-full-stm32f429disco/adalib/libgnat.a(a-except.o)
                0x000000000801114c                ada__exceptions__rmsg_27
 *fill*         0x0000000008011167        0x1 
 .rodata.ada__exceptions__rmsg_28
                0x0000000008011168       0x1f /usr/local/gnat-arm/arm-eabi/lib/gnat/ravenscar-full-stm32f429disco/adalib/libgnat.a(a-except.o)
                0x0000000008011168                ada__exceptions__rmsg_28
 *fill*         0x0000000008011187        0x1 
 .rodata.ada__exceptions__rmsg_29
                0x0000000008011188       0x1a /usr/local/gnat-arm/arm-eabi/lib/gnat/ravenscar-full-stm32f429disco/adalib/libgnat.a(a-except.o)
                0x0000000008011188                ada__exceptions__rmsg_29
 *fill*         0x00000000080111a2        0x2 
 .rodata.ada__exceptions__rmsg_30
                0x00000000080111a4       0x1c /usr/local/gnat-arm/arm-eabi/lib/gnat/ravenscar-full-stm32f429disco/adalib/libgnat.a(a-except.o)
                0x00000000080111a4                ada__exceptions__rmsg_30
 .rodata.ada__exceptions__rmsg_31
                0x00000000080111c0       0x33 /usr/local/gnat-arm/arm-eabi/lib/gnat/ravenscar-full-stm32f429disco/adalib/libgnat.a(a-except.o)
                0x00000000080111c0                ada__exceptions__rmsg_31
 *fill*         0x00000000080111f3        0x1 
 .rodata.ada__exceptions__rmsg_32
                0x00000000080111f4       0x13 /usr/local/gnat-arm/arm-eabi/lib/gnat/ravenscar-full-stm32f429disco/adalib/libgnat.a(a-except.o)
                0x00000000080111f4                ada__exceptions__rmsg_32
 *fill*         0x0000000008011207        0x1 
 .rodata.ada__exceptions__rmsg_33
                0x0000000008011208        0xf /usr/local/gnat-arm/arm-eabi/lib/gnat/ravenscar-full-stm32f429disco/adalib/libgnat.a(a-except.o)
                0x0000000008011208                ada__exceptions__rmsg_33
 *fill*         0x0000000008011217        0x1 
 .rodata.ada__exceptions__rmsg_34
                0x0000000008011218       0x13 /usr/local/gnat-arm/arm-eabi/lib/gnat/ravenscar-full-stm32f429disco/adalib/libgnat.a(a-except.o)
                0x0000000008011218                ada__exceptions__rmsg_34
 *fill*         0x000000000801122b        0x1 
 .rodata.ada__exceptions__rmsg_35
                0x000000000801122c       0x11 /usr/local/gnat-arm/arm-eabi/lib/gnat/ravenscar-full-stm32f429disco/adalib/libgnat.a(a-except.o)
                0x000000000801122c                ada__exceptions__rmsg_35
 *fill*         0x000000000801123d        0x3 
 .rodata.ada__exceptions__rmsg_36
                0x0000000008011240       0x1d /usr/local/gnat-arm/arm-eabi/lib/gnat/ravenscar-full-stm32f429disco/adalib/libgnat.a(a-except.o)
                0x0000000008011240                ada__exceptions__rmsg_36
 *fill*         0x000000000801125d        0x3 
 .rodata.ada__exceptions__rmsg_37
                0x0000000008011260       0x18 /usr/local/gnat-arm/arm-eabi/lib/gnat/ravenscar-full-stm32f429disco/adalib/libgnat.a(a-except.o)
                0x0000000008011260                ada__exceptions__rmsg_37
 .rodata.ada__exceptions__counter
                0x0000000008011278        0x4 /usr/local/gnat-arm/arm-eabi/lib/gnat/ravenscar-full-stm32f429disco/adalib/libgnat.a(a-except.o)
                0x0000000008011278                ada__exceptions__counter
 .rodata.ada__exceptions__exception_data__bei_name_headerXn
                0x000000000801127c        0x8 /usr/local/gnat-arm/arm-eabi/lib/gnat/ravenscar-full-stm32f429disco/adalib/libgnat.a(a-except.o)
                0x000000000801127c                ada__exceptions__exception_data__bei_name_headerXn
 .rodata.ada__exceptions__exception_data__bei_msg_headerXn
                0x0000000008011284        0x4 /usr/local/gnat-arm/arm-eabi/lib/gnat/ravenscar-full-stm32f429disco/adalib/libgnat.a(a-except.o)
                0x0000000008011284                ada__exceptions__exception_data__bei_msg_headerXn
 .rodata.ada__exceptions__exception_data__bei_pid_headerXn
                0x0000000008011288        0x8 /usr/local/gnat-arm/arm-eabi/lib/gnat/ravenscar-full-stm32f429disco/adalib/libgnat.a(a-except.o)
                0x0000000008011288                ada__exceptions__exception_data__bei_pid_headerXn
 .rodata.ada__exceptions__exception_data__betb_headerXn
                0x0000000008011290       0x1f /usr/local/gnat-arm/arm-eabi/lib/gnat/ravenscar-full-stm32f429disco/adalib/libgnat.a(a-except.o)
                0x0000000008011290                ada__exceptions__exception_data__betb_headerXn
 *fill*         0x00000000080112af        0x1 
 .rodata.ada__exceptions__exception_data__ldad_headerXn
                0x00000000080112b0        0xe /usr/local/gnat-arm/arm-eabi/lib/gnat/ravenscar-full-stm32f429disco/adalib/libgnat.a(a-except.o)
                0x00000000080112b0                ada__exceptions__exception_data__ldad_headerXn
 .rodata.__gnat_others_value
                0x00000000080112be        0x1 /usr/local/gnat-arm/arm-eabi/lib/gnat/ravenscar-full-stm32f429disco/adalib/libgnat.a(a-except.o)
                0x00000000080112be                __gnat_others_value
 .rodata.__gnat_all_others_value
                0x00000000080112bf        0x1 /usr/local/gnat-arm/arm-eabi/lib/gnat/ravenscar-full-stm32f429disco/adalib/libgnat.a(a-except.o)
                0x00000000080112bf                __gnat_all_others_value
 .rodata.__gnat_unhandled_others_value
                0x00000000080112c0        0x1 /usr/local/gnat-arm/arm-eabi/lib/gnat/ravenscar-full-stm32f429disco/adalib/libgnat.a(a-except.o)
                0x00000000080112c0                __gnat_unhandled_others_value
 *fill*         0x00000000080112c1        0x3 
 .rodata.ada__exceptions__exception_traces__nlineXn
                0x00000000080112c4        0x1 /usr/local/gnat-arm/arm-eabi/lib/gnat/ravenscar-full-stm32f429disco/adalib/libgnat.a(a-except.o)
                0x00000000080112c4                ada__exceptions__exception_traces__nlineXn
 *fill*         0x00000000080112c5        0x3 
 .rodata.h.6498
                0x00000000080112c8       0x10 /usr/local/gnat-arm/arm-eabi/lib/gnat/ravenscar-full-stm32f429disco/adalib/libgnat.a(a-except.o)
 .rodata.prefix.7209
                0x00000000080112d8       0x17 /usr/local/gnat-arm/arm-eabi/lib/gnat/ravenscar-full-stm32f429disco/adalib/libgnat.a(a-except.o)
 *fill*         0x00000000080112ef        0x1 
 .rodata        0x00000000080112f0       0x24 /usr/local/gnat-arm/arm-eabi/lib/gnat/ravenscar-full-stm32f429disco/adalib/libgnat.a(a-tags.o)
 .rodata.ada__tags__R4s
                0x0000000008011314        0x4 /usr/local/gnat-arm/arm-eabi/lib/gnat/ravenscar-full-stm32f429disco/adalib/libgnat.a(a-tags.o)
                0x0000000008011314                ada__tags__R4s
 .rodata.ada__tags__check_tsd.str1.4
                0x0000000008011318       0x1a /usr/local/gnat-arm/arm-eabi/lib/gnat/ravenscar-full-stm32f429disco/adalib/libgnat.a(a-tags.o)
 *fill*         0x0000000008011332        0x2 
 .rodata.ada__tags__descendant_tag.str1.4
                0x0000000008011334        0xf /usr/local/gnat-arm/arm-eabi/lib/gnat/ravenscar-full-stm32f429disco/adalib/libgnat.a(a-tags.o)
 *fill*         0x0000000008011343        0x1 
 .rodata.ada__tags__displace.str1.4
                0x0000000008011344       0x30 /usr/local/gnat-arm/arm-eabi/lib/gnat/ravenscar-full-stm32f429disco/adalib/libgnat.a(a-tags.o)
 .rodata.ada__tags__dt_offset_to_top_offset
                0x0000000008011374        0x4 /usr/local/gnat-arm/arm-eabi/lib/gnat/ravenscar-full-stm32f429disco/adalib/libgnat.a(a-tags.o)
                0x0000000008011374                ada__tags__dt_offset_to_top_offset
 .rodata.ada__tags__dt_offset_to_top_size
                0x0000000008011378        0x4 /usr/local/gnat-arm/arm-eabi/lib/gnat/ravenscar-full-stm32f429disco/adalib/libgnat.a(a-tags.o)
                0x0000000008011378                ada__tags__dt_offset_to_top_size
 .rodata.ada__tags__dt_predef_prims_offset
                0x000000000801137c        0x4 /usr/local/gnat-arm/arm-eabi/lib/gnat/ravenscar-full-stm32f429disco/adalib/libgnat.a(a-tags.o)
                0x000000000801137c                ada__tags__dt_predef_prims_offset
 .rodata.ada__tags__dt_predef_prims_size
                0x0000000008011380        0x4 /usr/local/gnat-arm/arm-eabi/lib/gnat/ravenscar-full-stm32f429disco/adalib/libgnat.a(a-tags.o)
                0x0000000008011380                ada__tags__dt_predef_prims_size
 .rodata.ada__tags__dt_typeinfo_ptr_size
                0x0000000008011384        0x4 /usr/local/gnat-arm/arm-eabi/lib/gnat/ravenscar-full-stm32f429disco/adalib/libgnat.a(a-tags.o)
                0x0000000008011384                ada__tags__dt_typeinfo_ptr_size
 .rodata.ada__tags__expanded_name.str1.4
                0x0000000008011388        0xf /usr/local/gnat-arm/arm-eabi/lib/gnat/ravenscar-full-stm32f429disco/adalib/libgnat.a(a-tags.o)
 *fill*         0x0000000008011397        0x1 
 .rodata.ada__tags__external_tag.str1.4
                0x0000000008011398        0xf /usr/local/gnat-arm/arm-eabi/lib/gnat/ravenscar-full-stm32f429disco/adalib/libgnat.a(a-tags.o)
 *fill*         0x00000000080113a7        0x1 
 .rodata.ada__tags__external_tag_htable__null_ptrXn
                0x00000000080113a8        0x4 /usr/local/gnat-arm/arm-eabi/lib/gnat/ravenscar-full-stm32f429disco/adalib/libgnat.a(a-tags.o)
                0x00000000080113a8                ada__tags__external_tag_htable__null_ptrXn
 .rodata.ada__tags__internal_tag.str1.4
                0x00000000080113ac       0x3a /usr/local/gnat-arm/arm-eabi/lib/gnat/ravenscar-full-stm32f429disco/adalib/libgnat.a(a-tags.o)
 *fill*         0x00000000080113e6        0x2 
 .rodata.ada__tags__is_abstract.str1.4
                0x00000000080113e8        0xf /usr/local/gnat-arm/arm-eabi/lib/gnat/ravenscar-full-stm32f429disco/adalib/libgnat.a(a-tags.o)
 *fill*         0x00000000080113f7        0x1 
 .rodata.ada__tags__max_predef_prims
                0x00000000080113f8        0x4 /usr/local/gnat-arm/arm-eabi/lib/gnat/ravenscar-full-stm32f429disco/adalib/libgnat.a(a-tags.o)
                0x00000000080113f8                ada__tags__max_predef_prims
 .rodata.ada__tags__no_tag
                0x00000000080113fc        0x4 /usr/local/gnat-arm/arm-eabi/lib/gnat/ravenscar-full-stm32f429disco/adalib/libgnat.a(a-tags.o)
                0x00000000080113fc                ada__tags__no_tag
 .rodata.ada__tags__parent_tag.str1.4
                0x0000000008011400        0xf /usr/local/gnat-arm/arm-eabi/lib/gnat/ravenscar-full-stm32f429disco/adalib/libgnat.a(a-tags.o)
 *fill*         0x000000000801140f        0x1 
 .rodata.ada__tags__prim_op_kindN
                0x0000000008011410       0x12 /usr/local/gnat-arm/arm-eabi/lib/gnat/ravenscar-full-stm32f429disco/adalib/libgnat.a(a-tags.o)
                0x0000000008011410                ada__tags__prim_op_kindN
 *fill*         0x0000000008011422        0x2 
 .rodata.ada__tags__prim_op_kindS
                0x0000000008011424       0x8a /usr/local/gnat-arm/arm-eabi/lib/gnat/ravenscar-full-stm32f429disco/adalib/libgnat.a(a-tags.o)
                0x0000000008011424                ada__tags__prim_op_kindS
 *fill*         0x00000000080114ae        0x2 
 .rodata.ada__tags__secondary_tag.str1.4
                0x00000000080114b0       0x35 /usr/local/gnat-arm/arm-eabi/lib/gnat/ravenscar-full-stm32f429disco/adalib/libgnat.a(a-tags.o)
 *fill*         0x00000000080114e5        0x3 
 .rodata.ada__tags__signature_kindN
                0x00000000080114e8        0x4 /usr/local/gnat-arm/arm-eabi/lib/gnat/ravenscar-full-stm32f429disco/adalib/libgnat.a(a-tags.o)
                0x00000000080114e8                ada__tags__signature_kindN
 .rodata.ada__tags__signature_kindS
                0x00000000080114ec       0x1d /usr/local/gnat-arm/arm-eabi/lib/gnat/ravenscar-full-stm32f429disco/adalib/libgnat.a(a-tags.o)
                0x00000000080114ec                ada__tags__signature_kindS
 *fill*         0x0000000008011509        0x3 
 .rodata.ada__tags__tag_errorE
                0x000000000801150c       0x13 /usr/local/gnat-arm/arm-eabi/lib/gnat/ravenscar-full-stm32f429disco/adalib/libgnat.a(a-tags.o)
                0x000000000801150c                ada__tags__tag_errorE
 *fill*         0x000000000801151f        0x1 
 .rodata.ada__tags__tagged_kindN
                0x0000000008011520        0x8 /usr/local/gnat-arm/arm-eabi/lib/gnat/ravenscar-full-stm32f429disco/adalib/libgnat.a(a-tags.o)
                0x0000000008011520                ada__tags__tagged_kindN
 .rodata.ada__tags__tagged_kindS
                0x0000000008011528       0x59 /usr/local/gnat-arm/arm-eabi/lib/gnat/ravenscar-full-stm32f429disco/adalib/libgnat.a(a-tags.o)
                0x0000000008011528                ada__tags__tagged_kindS
 *fill*         0x0000000008011581        0x3 
 .rodata        0x0000000008011584        0xd /usr/local/gnat-arm/arm-eabi/lib/gnat/ravenscar-full-stm32f429disco/adalib/libgnat.a(g-debuti.o)
 .rodata.gnat__debug_utilities__address_64
                0x0000000008011591        0x1 /usr/local/gnat-arm/arm-eabi/lib/gnat/ravenscar-full-stm32f429disco/adalib/libgnat.a(g-debuti.o)
                0x0000000008011591                gnat__debug_utilities__address_64
 *fill*         0x0000000008011592        0x2 
 .rodata.gnat__debug_utilities__h
                0x0000000008011594       0x10 /usr/local/gnat-arm/arm-eabi/lib/gnat/ravenscar-full-stm32f429disco/adalib/libgnat.a(g-debuti.o)
 .rodata.gnat__debug_utilities__image__2.str1.4
                0x00000000080115a4        0x4 /usr/local/gnat-arm/arm-eabi/lib/gnat/ravenscar-full-stm32f429disco/adalib/libgnat.a(g-debuti.o)
 .rodata.gnat__debug_utilities__image_c.str1.4
                0x00000000080115a8        0x3 /usr/local/gnat-arm/arm-eabi/lib/gnat/ravenscar-full-stm32f429disco/adalib/libgnat.a(g-debuti.o)
 *fill*         0x00000000080115ab        0x1 
 .rodata.__gnat_personality_v0.str1.4
                0x00000000080115ac        0x8 /usr/local/gnat-arm/arm-eabi/lib/gnat/ravenscar-full-stm32f429disco/adalib/libgnat.a(raise-gcc.o)
                                         0x10 (size before relaxing)
 .rodata.__gnat_unwind_exception_size
                0x00000000080115b4        0x4 /usr/local/gnat-arm/arm-eabi/lib/gnat/ravenscar-full-stm32f429disco/adalib/libgnat.a(raise-gcc.o)
                0x00000000080115b4                __gnat_unwind_exception_size
 .rodata.system__exceptions__R2s
                0x00000000080115b8        0x4 /usr/local/gnat-arm/arm-eabi/lib/gnat/ravenscar-full-stm32f429disco/adalib/libgnat.a(s-except.o)
                0x00000000080115b8                system__exceptions__R2s
 .rodata.system__exceptions__foreign_exceptionE
                0x00000000080115bc       0x24 /usr/local/gnat-arm/arm-eabi/lib/gnat/ravenscar-full-stm32f429disco/adalib/libgnat.a(s-except.o)
                0x00000000080115bc                system__exceptions__foreign_exceptionE
 .rodata.system__exceptions__zcx_by_default
                0x00000000080115e0        0x1 /usr/local/gnat-arm/arm-eabi/lib/gnat/ravenscar-full-stm32f429disco/adalib/libgnat.a(s-except.o)
                0x00000000080115e0                system__exceptions__zcx_by_default
 *fill*         0x00000000080115e1        0x3 
 .rodata.system__exceptions__machine__gnat_exception_class
                0x00000000080115e4        0x8 /usr/local/gnat-arm/arm-eabi/lib/gnat/ravenscar-full-stm32f429disco/adalib/libgnat.a(s-excmac.o)
                0x00000000080115e4                system__exceptions__machine__gnat_exception_class
 .rodata.system__exceptions__machine__new_occurrence.str1.4
                0x00000000080115ec        0x8 /usr/local/gnat-arm/arm-eabi/lib/gnat/ravenscar-full-stm32f429disco/adalib/libgnat.a(s-excmac.o)
 .rodata.system__exceptions__machine__unwind_reason_codeN
                0x00000000080115ec       0x16 /usr/local/gnat-arm/arm-eabi/lib/gnat/ravenscar-full-stm32f429disco/adalib/libgnat.a(s-excmac.o)
                0x00000000080115ec                system__exceptions__machine__unwind_reason_codeN
 *fill*         0x0000000008011602        0x2 
 .rodata.system__exceptions__machine__unwind_reason_codeS
                0x0000000008011604       0x90 /usr/local/gnat-arm/arm-eabi/lib/gnat/ravenscar-full-stm32f429disco/adalib/libgnat.a(s-excmac.o)
                0x0000000008011604                system__exceptions__machine__unwind_reason_codeS
 .rodata.system__exceptions__machine__us_unwind_frame_resume
                0x0000000008011694        0x4 /usr/local/gnat-arm/arm-eabi/lib/gnat/ravenscar-full-stm32f429disco/adalib/libgnat.a(s-excmac.o)
                0x0000000008011694                system__exceptions__machine__us_unwind_frame_resume
 .rodata.system__exceptions__machine__us_unwind_frame_starting
                0x0000000008011698        0x4 /usr/local/gnat-arm/arm-eabi/lib/gnat/ravenscar-full-stm32f429disco/adalib/libgnat.a(s-excmac.o)
                0x0000000008011698                system__exceptions__machine__us_unwind_frame_starting
 .rodata.system__exceptions__machine__us_virtual_unwind_frame
                0x000000000801169c        0x4 /usr/local/gnat-arm/arm-eabi/lib/gnat/ravenscar-full-stm32f429disco/adalib/libgnat.a(s-excmac.o)
                0x000000000801169c                system__exceptions__machine__us_virtual_unwind_frame
 .rodata        0x00000000080116a0        0x8 /usr/local/gnat-arm/arm-eabi/lib/gnat/ravenscar-full-stm32f429disco/adalib/libgnat.a(s-io.o)
 .rodata.system__io__file_typeN
                0x00000000080116a8        0x4 /usr/local/gnat-arm/arm-eabi/lib/gnat/ravenscar-full-stm32f429disco/adalib/libgnat.a(s-io.o)
                0x00000000080116a8                system__io__file_typeN
 .rodata.system__io__file_typeS
                0x00000000080116ac        0xc /usr/local/gnat-arm/arm-eabi/lib/gnat/ravenscar-full-stm32f429disco/adalib/libgnat.a(s-io.o)
                0x00000000080116ac                system__io__file_typeS
 .rodata        0x00000000080116b8       0x10 /usr/local/gnat-arm/arm-eabi/lib/gnat/ravenscar-full-stm32f429disco/adalib/libgnat.a(s-memory.o)
 .rodata.__gnat_malloc.str1.4
                0x00000000080116c8       0x23 /usr/local/gnat-arm/arm-eabi/lib/gnat/ravenscar-full-stm32f429disco/adalib/libgnat.a(s-memory.o)
 *fill*         0x00000000080116eb        0x1 
 .rodata.system__parameters__c_malloc_linkname
                0x00000000080116ec        0xd /usr/local/gnat-arm/arm-eabi/lib/gnat/ravenscar-full-stm32f429disco/adalib/libgnat.a(s-parame.o)
                0x00000000080116ec                system__parameters__c_malloc_linkname
 *fill*         0x00000000080116f9        0x3 
 .rodata.system__parameters__default_stack_size
                0x00000000080116fc        0x4 /usr/local/gnat-arm/arm-eabi/lib/gnat/ravenscar-full-stm32f429disco/adalib/libgnat.a(s-parame.o)
                0x00000000080116fc                system__parameters__default_stack_size
 .rodata.system__parameters__garbage_collected
                0x0000000008011700        0x1 /usr/local/gnat-arm/arm-eabi/lib/gnat/ravenscar-full-stm32f429disco/adalib/libgnat.a(s-parame.o)
                0x0000000008011700                system__parameters__garbage_collected
 *fill*         0x0000000008011701        0x3 
 .rodata.system__parameters__minimum_stack_size
                0x0000000008011704        0x4 /usr/local/gnat-arm/arm-eabi/lib/gnat/ravenscar-full-stm32f429disco/adalib/libgnat.a(s-parame.o)
                0x0000000008011704                system__parameters__minimum_stack_size
 .rodata.system__parameters__no_abort
                0x0000000008011708        0x1 /usr/local/gnat-arm/arm-eabi/lib/gnat/ravenscar-full-stm32f429disco/adalib/libgnat.a(s-parame.o)
                0x0000000008011708                system__parameters__no_abort
 *fill*         0x0000000008011709        0x3 
 .rodata.system__parameters__runtime_default_sec_stack_size
                0x000000000801170c        0x4 /usr/local/gnat-arm/arm-eabi/lib/gnat/ravenscar-full-stm32f429disco/adalib/libgnat.a(s-parame.o)
                0x000000000801170c                system__parameters__runtime_default_sec_stack_size
 .rodata.system__parameters__single_lock
                0x0000000008011710        0x1 /usr/local/gnat-arm/arm-eabi/lib/gnat/ravenscar-full-stm32f429disco/adalib/libgnat.a(s-parame.o)
                0x0000000008011710                system__parameters__single_lock
 .rodata.system__parameters__stack_grows_down
                0x0000000008011711        0x1 /usr/local/gnat-arm/arm-eabi/lib/gnat/ravenscar-full-stm32f429disco/adalib/libgnat.a(s-parame.o)
                0x0000000008011711                system__parameters__stack_grows_down
 *fill*         0x0000000008011712        0x2 
 .rodata.system__parameters__unspecified_size
                0x0000000008011714        0x4 /usr/local/gnat-arm/arm-eabi/lib/gnat/ravenscar-full-stm32f429disco/adalib/libgnat.a(s-parame.o)
                0x0000000008011714                system__parameters__unspecified_size
 .rodata        0x0000000008011718        0xd /usr/local/gnat-arm/arm-eabi/lib/gnat/ravenscar-full-stm32f429disco/adalib/libgnat.a(s-secsta.o)
 *fill*         0x0000000008011725        0x3 
 .rodata.system__standard_library__abort_signal_name
                0x0000000008011728        0xe /usr/local/gnat-arm/arm-eabi/lib/gnat/ravenscar-full-stm32f429disco/adalib/libgnat.a(s-stalib.o)
                0x0000000008011728                system__standard_library__abort_signal_name
 *fill*         0x0000000008011736        0x2 
 .rodata.system__standard_library__constraint_error_name
                0x0000000008011738       0x11 /usr/local/gnat-arm/arm-eabi/lib/gnat/ravenscar-full-stm32f429disco/adalib/libgnat.a(s-stalib.o)
                0x0000000008011738                system__standard_library__constraint_error_name
 *fill*         0x0000000008011749        0x3 
 .rodata.system__standard_library__exception_trace_kindN
                0x000000000801174c        0x8 /usr/local/gnat-arm/arm-eabi/lib/gnat/ravenscar-full-stm32f429disco/adalib/libgnat.a(s-stalib.o)
                0x000000000801174c                system__standard_library__exception_trace_kindN
 .rodata.system__standard_library__exception_trace_kindS
                0x0000000008011754       0x3e /usr/local/gnat-arm/arm-eabi/lib/gnat/ravenscar-full-stm32f429disco/adalib/libgnat.a(s-stalib.o)
                0x0000000008011754                system__standard_library__exception_trace_kindS
 *fill*         0x0000000008011792        0x2 
 .rodata.system__standard_library__numeric_error_name
                0x0000000008011794        0xe /usr/local/gnat-arm/arm-eabi/lib/gnat/ravenscar-full-stm32f429disco/adalib/libgnat.a(s-stalib.o)
                0x0000000008011794                system__standard_library__numeric_error_name
 *fill*         0x00000000080117a2        0x2 
 .rodata.system__standard_library__program_error_name
                0x00000000080117a4        0xe /usr/local/gnat-arm/arm-eabi/lib/gnat/ravenscar-full-stm32f429disco/adalib/libgnat.a(s-stalib.o)
                0x00000000080117a4                system__standard_library__program_error_name
 *fill*         0x00000000080117b2        0x2 
 .rodata.system__standard_library__storage_error_name
                0x00000000080117b4        0xe /usr/local/gnat-arm/arm-eabi/lib/gnat/ravenscar-full-stm32f429disco/adalib/libgnat.a(s-stalib.o)
                0x00000000080117b4                system__standard_library__storage_error_name
 *fill*         0x00000000080117c2        0x2 
 .rodata.system__standard_library__tasking_error_name
                0x00000000080117c4        0xe /usr/local/gnat-arm/arm-eabi/lib/gnat/ravenscar-full-stm32f429disco/adalib/libgnat.a(s-stalib.o)
                0x00000000080117c4                system__standard_library__tasking_error_name
 *fill*         0x00000000080117d2        0x2 
 .rodata.system__traceback_entries__null_tb_entry
                0x00000000080117d4        0x4 /usr/local/gnat-arm/arm-eabi/lib/gnat/ravenscar-full-stm32f429disco/adalib/libgnat.a(s-traent.o)
                0x00000000080117d4                system__traceback_entries__null_tb_entry
 .rodata        0x00000000080117d8        0x8 /usr/local/gnat-arm/arm-eabi/lib/gnat/ravenscar-full-stm32f429disco/adalib/libgnat.a(s-valuns.o)
 .rodata.system__val_uns__scan_raw_unsigned.str1.4
                0x00000000080117e0       0x55 /usr/local/gnat-arm/arm-eabi/lib/gnat/ravenscar-full-stm32f429disco/adalib/libgnat.a(s-valuns.o)
 *fill*         0x0000000008011835        0x3 
 .rodata        0x0000000008011838        0x8 /usr/local/gnat-arm/arm-eabi/lib/gnat/ravenscar-full-stm32f429disco/adalib/libgnat.a(s-valuti.o)
 .rodata.system__val_util__bad_value.str1.4
                0x0000000008011840       0x1d /usr/local/gnat-arm/arm-eabi/lib/gnat/ravenscar-full-stm32f429disco/adalib/libgnat.a(s-valuti.o)
 *fill*         0x000000000801185d        0x3 
 .rodata        0x0000000008011860        0xd /usr/local/gnat-arm/arm-eabi/lib/gnat/ravenscar-full-stm32f429disco/adalib/libgnat.a(s-wchcon.o)
 *fill*         0x000000000801186d        0x3 
 .rodata.system__wch_con__get_wc_encoding_method__2.str1.4
                0x0000000008011870       0x2d /usr/local/gnat-arm/arm-eabi/lib/gnat/ravenscar-full-stm32f429disco/adalib/libgnat.a(s-wchcon.o)
 *fill*         0x000000000801189d        0x3 
 .rodata.system__wch_con__wc_encoding_letters
                0x00000000080118a0        0x8 /usr/local/gnat-arm/arm-eabi/lib/gnat/ravenscar-full-stm32f429disco/adalib/libgnat.a(s-wchcon.o)
                0x00000000080118a0                system__wch_con__wc_encoding_letters
 .rodata.system__wch_con__wc_longest_sequences
                0x00000000080118a8       0x18 /usr/local/gnat-arm/arm-eabi/lib/gnat/ravenscar-full-stm32f429disco/adalib/libgnat.a(s-wchcon.o)
                0x00000000080118a8                system__wch_con__wc_longest_sequences
 .rodata.system__wch_con__wcem_brackets
                0x00000000080118c0        0x1 /usr/local/gnat-arm/arm-eabi/lib/gnat/ravenscar-full-stm32f429disco/adalib/libgnat.a(s-wchcon.o)
                0x00000000080118c0                system__wch_con__wcem_brackets
 .rodata.system__wch_con__wcem_euc
                0x00000000080118c1        0x1 /usr/local/gnat-arm/arm-eabi/lib/gnat/ravenscar-full-stm32f429disco/adalib/libgnat.a(s-wchcon.o)
                0x00000000080118c1                system__wch_con__wcem_euc
 .rodata.system__wch_con__wcem_hex
                0x00000000080118c2        0x1 /usr/local/gnat-arm/arm-eabi/lib/gnat/ravenscar-full-stm32f429disco/adalib/libgnat.a(s-wchcon.o)
                0x00000000080118c2                system__wch_con__wcem_hex
 .rodata.system__wch_con__wcem_shift_jis
                0x00000000080118c3        0x1 /usr/local/gnat-arm/arm-eabi/lib/gnat/ravenscar-full-stm32f429disco/adalib/libgnat.a(s-wchcon.o)
                0x00000000080118c3                system__wch_con__wcem_shift_jis
 .rodata.system__wch_con__wcem_upper
                0x00000000080118c4        0x1 /usr/local/gnat-arm/arm-eabi/lib/gnat/ravenscar-full-stm32f429disco/adalib/libgnat.a(s-wchcon.o)
                0x00000000080118c4                system__wch_con__wcem_upper
 .rodata.system__wch_con__wcem_utf8
                0x00000000080118c5        0x1 /usr/local/gnat-arm/arm-eabi/lib/gnat/ravenscar-full-stm32f429disco/adalib/libgnat.a(s-wchcon.o)
                0x00000000080118c5                system__wch_con__wcem_utf8
 *fill*         0x00000000080118c6        0x2 
 .rodata        0x00000000080118c8       0x20 /usr/local/gnat-arm/arm-eabi/lib/gnat/ravenscar-full-stm32f429disco/adalib/libgnat.a(s-wchstw.o)
 .rodata.system__wch_stw__get_next_code__in_char.5652.str1.4
                0x00000000080118e8       0x47 /usr/local/gnat-arm/arm-eabi/lib/gnat/ravenscar-full-stm32f429disco/adalib/libgnat.a(s-wchstw.o)
 *fill*         0x000000000801192f        0x1 
 .rodata.system__wch_stw__string_to_wide_string.str1.4
                0x0000000008011930       0x4c /usr/local/gnat-arm/arm-eabi/lib/gnat/ravenscar-full-stm32f429disco/adalib/libgnat.a(s-wchstw.o)
 .rodata        0x000000000801197c        0xd /usr/local/gnat-arm/arm-eabi/lib/gnat/ravenscar-full-stm32f429disco/adalib/libgnat.a(s-wchjis.o)
 *fill*         0x0000000008011989        0x3 
 .rodata        0x000000000801198c        0x1 /usr/local/gnat-arm/arm-eabi/lib/gnat/ravenscar-full-stm32f429disco/adalib/libgnat.a(setup_pll.o)
 *fill*         0x000000000801198d        0x3 
 .rodata        0x0000000008011990        0x4 /usr/local/gnat-arm/bin/../lib/gcc/arm-eabi/7.3.1/../../../../arm-eabi/lib/thumb/v7e-m/fpv4-sp/hard/libc.a(lib_a-impure.o)
                0x0000000008011990                _global_impure_ptr
 .rodata.str1.4
                0x0000000008011994        0x4 /usr/local/gnat-arm/bin/../lib/gcc/arm-eabi/7.3.1/../../../../arm-eabi/lib/thumb/v7e-m/fpv4-sp/hard/libc.a(lib_a-impure.o)
                                          0x2 (size before relaxing)
                0x0000000008011998                . = ALIGN (0x4)
                0x0000000008011998                __rom_end = .
                0x0000000008011998                __data_load = __rom_end

.rel.dyn        0x0000000008011998        0x0
 .rel.iplt      0x0000000008011998        0x0 unit01.o

.data           0x0000000020000000      0xa7c load address 0x0000000008011998
                0x0000000020000000                __data_start = .
 *(.data .data.* .gnu.linkonce.d*)
 .data          0x0000000020000000        0x0 unit01.o
 .data          0x0000000020000000        0x3 b__unit01.o
                0x0000000020000000                ada_main_E
 .data          0x0000000020000003        0x0 /home/aquox/Scrivania/Arm/edf-ravenscar-arm/build/system.o
 .data          0x0000000020000003        0x0 /home/aquox/Scrivania/Arm/edf-ravenscar-arm/build/s-bb.o
 .data          0x0000000020000003        0x0 /home/aquox/Scrivania/Arm/edf-ravenscar-arm/build/s-bbpara.o
 *fill*         0x0000000020000003        0x1 
 .data          0x0000000020000004        0x2 /home/aquox/Scrivania/Arm/edf-ravenscar-arm/build/s-multip.o
                0x0000000020000004                system__multiprocessors_E
 .data          0x0000000020000006        0x0 /home/aquox/Scrivania/Arm/edf-ravenscar-arm/build/s-bbbosu.o
 .data          0x0000000020000006        0x0 /home/aquox/Scrivania/Arm/edf-ravenscar-arm/build/s-bbdead.o
 *fill*         0x0000000020000006        0x2 
 .data          0x0000000020000008       0x10 /home/aquox/Scrivania/Arm/edf-ravenscar-arm/build/s-bbtiev.o
                0x0000000020000008                system__bb__timing_events_E
                0x000000002000000a                system__bb__timing_events__set_handlerE32b
                0x000000002000000b                system__bb__timing_events__cancel_handlerE34b
                0x000000002000000c                system__bb__timing_events__time_of_eventE41b
                0x0000000020000010                system__bb__timing_events__timing_eventH13s
                0x0000000020000014                system__bb__timing_events__events_table
 .data          0x0000000020000018       0x18 /home/aquox/Scrivania/Arm/edf-ravenscar-arm/build/s-bbthqu.o
                0x0000000020000018                system__bb__threads__queues__busy_for_interrupts
                0x0000000020000019                system__bb__threads__queues__busy_for_handlers
                0x000000002000001c                __gnat_running_thread_table
                0x0000000020000020                first_thread_table
                0x0000000020000024                system__bb__threads__queues__global_list
                0x0000000020000028                system__bb__threads__queues__alarms_table
                0x000000002000002c                system__bb__threads__queues__max_id_table
 .data          0x0000000020000030        0x4 /home/aquox/Scrivania/Arm/edf-ravenscar-arm/build/s-bbprot.o
                0x0000000020000030                system__bb__protection__wakeup_served_entry_callback
 .data          0x0000000020000034        0x1 /home/aquox/Scrivania/Arm/edf-ravenscar-arm/build/s-bbthre.o
                0x0000000020000034                system__bb__threads__initialized
 *fill*         0x0000000020000035        0x3 
 .data          0x0000000020000038        0x4 /home/aquox/Scrivania/Arm/edf-ravenscar-arm/build/s-bbinte.o
                0x0000000020000038                system__bb__interrupts__interrupt_being_handled
 .data          0x000000002000003c        0x0 /home/aquox/Scrivania/Arm/edf-ravenscar-arm/build/s-bbcppr.o
 .data          0x000000002000003c        0x0 /home/aquox/Scrivania/Arm/edf-ravenscar-arm/build/s-osinte.o
 .data          0x000000002000003c        0x2 /home/aquox/Scrivania/Arm/edf-ravenscar-arm/build/a-elchha.o
                0x000000002000003c                ada__exceptions__last_chance_handler_E
 .data          0x000000002000003e        0x2 /home/aquox/Scrivania/Arm/edf-ravenscar-arm/build/s-taspri.o
                0x000000002000003e                system__task_primitives_E
 .data          0x0000000020000040        0xc /home/aquox/Scrivania/Arm/edf-ravenscar-arm/build/s-tasdeb.o
                0x0000000020000040                system__tasking__debug_E
                0x0000000020000044                system__tasking__debug__first_task
                0x0000000020000048                system__tasking__debug__last_task
 *fill*         0x000000002000004c        0x4 
 .data          0x0000000020000050       0x19 /home/aquox/Scrivania/Arm/edf-ravenscar-arm/build/s-taskin.o
                0x0000000020000050                system__tasking__fall_back_handler
                0x0000000020000058                __gl_main_relative_deadline
                0x0000000020000060                __gl_main_priority
                0x0000000020000064                __gl_main_cpu
 *fill*         0x0000000020000069        0x3 
 .data          0x000000002000006c       0x1c /home/aquox/Scrivania/Arm/edf-ravenscar-arm/build/s-soflin.o
                0x000000002000006c                system__soft_links_E
                0x0000000020000070                system__soft_links__lock_task
                0x0000000020000074                system__soft_links__unlock_task
                0x0000000020000078                system__soft_links__adafinal
                0x000000002000007c                system__soft_links__task_termination_handler
                0x0000000020000080                system__soft_links__library_exception_set
                0x0000000020000084                system__soft_links__traceback_decorator_wrapper
 .data          0x0000000020000088       0x20 /home/aquox/Scrivania/Arm/edf-ravenscar-arm/build/s-bbtime.o
                0x0000000020000088                system__bb__time__scheduling_event_hook
                0x000000002000008c                system__bb__time__alarm_lock
                0x0000000020000090                system__bb__time__software_clock
                0x0000000020000098                system__bb__time__pending_alarm
                0x00000000200000a0                system__bb__time__max_sleep
 .data          0x00000000200000a8        0x2 /home/aquox/Scrivania/Arm/edf-ravenscar-arm/build/s-mufalo.o
                0x00000000200000a8                system__multiprocessors__fair_locks_E
 *fill*         0x00000000200000aa        0x2 
 .data          0x00000000200000ac        0x4 /home/aquox/Scrivania/Arm/edf-ravenscar-arm/build/s-taprop.o
                0x00000000200000ac                system__task_primitives__operations__environment_task
 .data          0x00000000200000b0        0x2 /home/aquox/Scrivania/Arm/edf-ravenscar-arm/build/a-reatim.o
                0x00000000200000b0                ada__real_time_E
 .data          0x00000000200000b2        0x2 /home/aquox/Scrivania/Arm/edf-ravenscar-arm/build/a-retide.o
                0x00000000200000b2                ada__real_time__delays_E
 .data          0x00000000200000b4        0x2 /home/aquox/Scrivania/Arm/edf-ravenscar-arm/build/s-tasres.o
                0x00000000200000b4                system__tasking__restricted_E
 *fill*         0x00000000200000b6        0x2 
 .data          0x00000000200000b8        0x8 /home/aquox/Scrivania/Arm/edf-ravenscar-arm/build/s-tarest.o
                0x00000000200000b8                system__tasking__restricted__stages_E
                0x00000000200000ba                __gnat_partition_elaboration_policy
 .data          0x00000000200000c0        0x2 /home/aquox/Scrivania/Arm/edf-ravenscar-arm/build/system_time.o
                0x00000000200000c0                system_time_E
 *fill*         0x00000000200000c2        0x2 
 .data          0x00000000200000c4        0x8 /home/aquox/Scrivania/Arm/edf-ravenscar-arm/build/print_task.o
                0x00000000200000c4                print_task_E
                0x00000000200000c6                print_task__printE
                0x00000000200000c8                print_task__printZ
 .data          0x00000000200000cc        0x8 /home/aquox/Scrivania/Arm/edf-ravenscar-arm/build/cyclic_tasks.o
                0x00000000200000cc                cyclic_tasks_E
                0x00000000200000ce                cyclic_tasks__cyclicE
                0x00000000200000d0                cyclic_tasks__cyclicZ
 .data          0x00000000200000d4        0x0 /usr/local/gnat-arm/arm-eabi/lib/gnat/ravenscar-full-stm32f429disco/adalib/libgnat.a(a-except.o)
 .data.ada__exceptions_E
                0x00000000200000d4        0x2 /usr/local/gnat-arm/arm-eabi/lib/gnat/ravenscar-full-stm32f429disco/adalib/libgnat.a(a-except.o)
                0x00000000200000d4                ada__exceptions_E
 *fill*         0x00000000200000d6        0x2 
 .data.__gnat_exception_actions_global_action
                0x00000000200000d8        0x4 /usr/local/gnat-arm/arm-eabi/lib/gnat/ravenscar-full-stm32f429disco/adalib/libgnat.a(a-except.o)
                0x00000000200000d8                __gnat_exception_actions_global_action
 .data.__gnat_exception_actions_initialized
                0x00000000200000dc        0x1 /usr/local/gnat-arm/arm-eabi/lib/gnat/ravenscar-full-stm32f429disco/adalib/libgnat.a(a-except.o)
                0x00000000200000dc                __gnat_exception_actions_initialized
 .data          0x00000000200000dd        0x0 /usr/local/gnat-arm/arm-eabi/lib/gnat/ravenscar-full-stm32f429disco/adalib/libgnat.a(a-tags.o)
 *fill*         0x00000000200000dd        0x1 
 .data.ada__tags_E
                0x00000000200000de        0x2 /usr/local/gnat-arm/arm-eabi/lib/gnat/ravenscar-full-stm32f429disco/adalib/libgnat.a(a-tags.o)
                0x00000000200000de                ada__tags_E
 .data.ada__tags__external_tag_htable__iterator_ptrXn
                0x00000000200000e0        0x4 /usr/local/gnat-arm/arm-eabi/lib/gnat/ravenscar-full-stm32f429disco/adalib/libgnat.a(a-tags.o)
                0x00000000200000e0                ada__tags__external_tag_htable__iterator_ptrXn
 .data.ada__tags__external_tag_htable__iterator_startedXn
                0x00000000200000e4        0x1 /usr/local/gnat-arm/arm-eabi/lib/gnat/ravenscar-full-stm32f429disco/adalib/libgnat.a(a-tags.o)
                0x00000000200000e4                ada__tags__external_tag_htable__iterator_startedXn
 *fill*         0x00000000200000e5        0x3 
 .data.ada__tags__tag_error
                0x00000000200000e8       0x18 /usr/local/gnat-arm/arm-eabi/lib/gnat/ravenscar-full-stm32f429disco/adalib/libgnat.a(a-tags.o)
                0x00000000200000e8                ada__tags__tag_error
 .data          0x0000000020000100        0x0 /usr/local/gnat-arm/arm-eabi/lib/gnat/ravenscar-full-stm32f429disco/adalib/libgnat.a(adaint-xi.o)
 .data          0x0000000020000100        0x0 /usr/local/gnat-arm/arm-eabi/lib/gnat/ravenscar-full-stm32f429disco/adalib/libgnat.a(g-debuti.o)
 .data.gnat__debug_utilities_E
                0x0000000020000100        0x2 /usr/local/gnat-arm/arm-eabi/lib/gnat/ravenscar-full-stm32f429disco/adalib/libgnat.a(g-debuti.o)
                0x0000000020000100                gnat__debug_utilities_E
 .data          0x0000000020000102        0x0 /usr/local/gnat-arm/arm-eabi/lib/gnat/ravenscar-full-stm32f429disco/adalib/libgnat.a(handler.o)
 .data          0x0000000020000102        0x0 /usr/local/gnat-arm/arm-eabi/lib/gnat/ravenscar-full-stm32f429disco/adalib/libgnat.a(raise-gcc.o)
 .data          0x0000000020000102        0x0 /usr/local/gnat-arm/arm-eabi/lib/gnat/ravenscar-full-stm32f429disco/adalib/libgnat.a(s-bcpcst.o)
 .data          0x0000000020000102        0x0 /usr/local/gnat-arm/arm-eabi/lib/gnat/ravenscar-full-stm32f429disco/adalib/libgnat.a(s-excdeb.o)
 .data.system__exceptions_debug_E
                0x0000000020000102        0x2 /usr/local/gnat-arm/arm-eabi/lib/gnat/ravenscar-full-stm32f429disco/adalib/libgnat.a(s-excdeb.o)
                0x0000000020000102                system__exceptions_debug_E
 .data          0x0000000020000104        0x0 /usr/local/gnat-arm/arm-eabi/lib/gnat/ravenscar-full-stm32f429disco/adalib/libgnat.a(s-except.o)
 .data.system__exceptions_E
                0x0000000020000104        0x2 /usr/local/gnat-arm/arm-eabi/lib/gnat/ravenscar-full-stm32f429disco/adalib/libgnat.a(s-except.o)
                0x0000000020000104                system__exceptions_E
 *fill*         0x0000000020000106        0x2 
 .data.system__exceptions__foreign_exception
                0x0000000020000108       0x18 /usr/local/gnat-arm/arm-eabi/lib/gnat/ravenscar-full-stm32f429disco/adalib/libgnat.a(s-except.o)
                0x0000000020000108                system__exceptions__foreign_exception
 .data          0x0000000020000120        0x0 /usr/local/gnat-arm/arm-eabi/lib/gnat/ravenscar-full-stm32f429disco/adalib/libgnat.a(s-excmac.o)
 .data.system__exceptions__machine_E
                0x0000000020000120        0x2 /usr/local/gnat-arm/arm-eabi/lib/gnat/ravenscar-full-stm32f429disco/adalib/libgnat.a(s-excmac.o)
                0x0000000020000120                system__exceptions__machine_E
 .data          0x0000000020000122        0x0 /usr/local/gnat-arm/arm-eabi/lib/gnat/ravenscar-full-stm32f429disco/adalib/libgnat.a(s-exctab.o)
 .data.system__exception_table_E
                0x0000000020000122        0x2 /usr/local/gnat-arm/arm-eabi/lib/gnat/ravenscar-full-stm32f429disco/adalib/libgnat.a(s-exctab.o)
                0x0000000020000122                system__exception_table_E
 .data          0x0000000020000124        0x0 /usr/local/gnat-arm/arm-eabi/lib/gnat/ravenscar-full-stm32f429disco/adalib/libgnat.a(s-imgint.o)
 .data.system__img_int_E
                0x0000000020000124        0x2 /usr/local/gnat-arm/arm-eabi/lib/gnat/ravenscar-full-stm32f429disco/adalib/libgnat.a(s-imgint.o)
                0x0000000020000124                system__img_int_E
 .data          0x0000000020000126        0x0 /usr/local/gnat-arm/arm-eabi/lib/gnat/ravenscar-full-stm32f429disco/adalib/libgnat.a(s-init.o)
 *fill*         0x0000000020000126        0x2 
 .data.__gl_bind_env_addr
                0x0000000020000128        0x4 /usr/local/gnat-arm/arm-eabi/lib/gnat/ravenscar-full-stm32f429disco/adalib/libgnat.a(s-init.o)
                0x0000000020000128                __gl_bind_env_addr
 .data.__gl_default_stack_size
                0x000000002000012c        0x4 /usr/local/gnat-arm/arm-eabi/lib/gnat/ravenscar-full-stm32f429disco/adalib/libgnat.a(s-init.o)
                0x000000002000012c                __gl_default_stack_size
 .data.__gl_detect_blocking
                0x0000000020000130        0x4 /usr/local/gnat-arm/arm-eabi/lib/gnat/ravenscar-full-stm32f429disco/adalib/libgnat.a(s-init.o)
                0x0000000020000130                __gl_detect_blocking
 .data.__gl_exception_tracebacks
                0x0000000020000134        0x4 /usr/local/gnat-arm/arm-eabi/lib/gnat/ravenscar-full-stm32f429disco/adalib/libgnat.a(s-init.o)
                0x0000000020000134                __gl_exception_tracebacks
 .data.__gl_exception_tracebacks_symbolic
                0x0000000020000138        0x4 /usr/local/gnat-arm/arm-eabi/lib/gnat/ravenscar-full-stm32f429disco/adalib/libgnat.a(s-init.o)
                0x0000000020000138                __gl_exception_tracebacks_symbolic
 .data.__gl_interrupt_states
                0x000000002000013c        0x4 /usr/local/gnat-arm/arm-eabi/lib/gnat/ravenscar-full-stm32f429disco/adalib/libgnat.a(s-init.o)
                0x000000002000013c                __gl_interrupt_states
 .data.__gl_leap_seconds_support
                0x0000000020000140        0x4 /usr/local/gnat-arm/arm-eabi/lib/gnat/ravenscar-full-stm32f429disco/adalib/libgnat.a(s-init.o)
                0x0000000020000140                __gl_leap_seconds_support
 .data.__gl_locking_policy
                0x0000000020000144        0x1 /usr/local/gnat-arm/arm-eabi/lib/gnat/ravenscar-full-stm32f429disco/adalib/libgnat.a(s-init.o)
                0x0000000020000144                __gl_locking_policy
 *fill*         0x0000000020000145        0x3 
 .data.__gl_num_interrupt_states
                0x0000000020000148        0x4 /usr/local/gnat-arm/arm-eabi/lib/gnat/ravenscar-full-stm32f429disco/adalib/libgnat.a(s-init.o)
                0x0000000020000148                __gl_num_interrupt_states
 .data.__gl_num_specific_dispatching
                0x000000002000014c        0x4 /usr/local/gnat-arm/arm-eabi/lib/gnat/ravenscar-full-stm32f429disco/adalib/libgnat.a(s-init.o)
                0x000000002000014c                __gl_num_specific_dispatching
 .data.__gl_priority_specific_dispatching
                0x0000000020000150        0x4 /usr/local/gnat-arm/arm-eabi/lib/gnat/ravenscar-full-stm32f429disco/adalib/libgnat.a(s-init.o)
                0x0000000020000150                __gl_priority_specific_dispatching
 .data.__gl_queuing_policy
                0x0000000020000154        0x1 /usr/local/gnat-arm/arm-eabi/lib/gnat/ravenscar-full-stm32f429disco/adalib/libgnat.a(s-init.o)
                0x0000000020000154                __gl_queuing_policy
 *fill*         0x0000000020000155        0x3 
 .data.__gl_restrictions
                0x0000000020000158        0x4 /usr/local/gnat-arm/arm-eabi/lib/gnat/ravenscar-full-stm32f429disco/adalib/libgnat.a(s-init.o)
                0x0000000020000158                __gl_restrictions
 .data.__gl_task_dispatching_policy
                0x000000002000015c        0x1 /usr/local/gnat-arm/arm-eabi/lib/gnat/ravenscar-full-stm32f429disco/adalib/libgnat.a(s-init.o)
                0x000000002000015c                __gl_task_dispatching_policy
 *fill*         0x000000002000015d        0x3 
 .data.__gl_time_slice_val
                0x0000000020000160        0x4 /usr/local/gnat-arm/arm-eabi/lib/gnat/ravenscar-full-stm32f429disco/adalib/libgnat.a(s-init.o)
                0x0000000020000160                __gl_time_slice_val
 .data.__gl_unreserve_all_interrupts
                0x0000000020000164        0x4 /usr/local/gnat-arm/arm-eabi/lib/gnat/ravenscar-full-stm32f429disco/adalib/libgnat.a(s-init.o)
                0x0000000020000164                __gl_unreserve_all_interrupts
 .data.__gl_wc_encoding
                0x0000000020000168        0x1 /usr/local/gnat-arm/arm-eabi/lib/gnat/ravenscar-full-stm32f429disco/adalib/libgnat.a(s-init.o)
                0x0000000020000168                __gl_wc_encoding
 .data          0x0000000020000169        0x0 /usr/local/gnat-arm/arm-eabi/lib/gnat/ravenscar-full-stm32f429disco/adalib/libgnat.a(s-io.o)
 *fill*         0x0000000020000169        0x1 
 .data.system__io_E
                0x000000002000016a        0x2 /usr/local/gnat-arm/arm-eabi/lib/gnat/ravenscar-full-stm32f429disco/adalib/libgnat.a(s-io.o)
                0x000000002000016a                system__io_E
 .data          0x000000002000016c        0x0 /usr/local/gnat-arm/arm-eabi/lib/gnat/ravenscar-full-stm32f429disco/adalib/libgnat.a(s-macres.o)
 .data.system__machine_reset_E
                0x000000002000016c        0x2 /usr/local/gnat-arm/arm-eabi/lib/gnat/ravenscar-full-stm32f429disco/adalib/libgnat.a(s-macres.o)
                0x000000002000016c                system__machine_reset_E
 .data          0x000000002000016e        0x0 /usr/local/gnat-arm/arm-eabi/lib/gnat/ravenscar-full-stm32f429disco/adalib/libgnat.a(s-memory.o)
 .data.system__memory_E
                0x000000002000016e        0x2 /usr/local/gnat-arm/arm-eabi/lib/gnat/ravenscar-full-stm32f429disco/adalib/libgnat.a(s-memory.o)
                0x000000002000016e                system__memory_E
 .data          0x0000000020000170        0x0 /usr/local/gnat-arm/arm-eabi/lib/gnat/ravenscar-full-stm32f429disco/adalib/libgnat.a(s-musplo.o)
 .data.system__multiprocessors__spin_locks_E
                0x0000000020000170        0x2 /usr/local/gnat-arm/arm-eabi/lib/gnat/ravenscar-full-stm32f429disco/adalib/libgnat.a(s-musplo.o)
                0x0000000020000170                system__multiprocessors__spin_locks_E
 .data.system__multiprocessors__spin_locks__unlocked
                0x0000000020000172        0x1 /usr/local/gnat-arm/arm-eabi/lib/gnat/ravenscar-full-stm32f429disco/adalib/libgnat.a(s-musplo.o)
                0x0000000020000172                system__multiprocessors__spin_locks__unlocked
 .data          0x0000000020000173        0x0 /usr/local/gnat-arm/arm-eabi/lib/gnat/ravenscar-full-stm32f429disco/adalib/libgnat.a(s-parame.o)
 *fill*         0x0000000020000173        0x1 
 .data.system__parameters_E
                0x0000000020000174        0x2 /usr/local/gnat-arm/arm-eabi/lib/gnat/ravenscar-full-stm32f429disco/adalib/libgnat.a(s-parame.o)
                0x0000000020000174                system__parameters_E
 .data          0x0000000020000176        0x0 /usr/local/gnat-arm/arm-eabi/lib/gnat/ravenscar-full-stm32f429disco/adalib/libgnat.a(s-secsta.o)
 .data.system__secondary_stack_E
                0x0000000020000176        0x2 /usr/local/gnat-arm/arm-eabi/lib/gnat/ravenscar-full-stm32f429disco/adalib/libgnat.a(s-secsta.o)
                0x0000000020000176                system__secondary_stack_E
 .data.system__secondary_stack__num_of_assigned_stacks
                0x0000000020000178        0x4 /usr/local/gnat-arm/arm-eabi/lib/gnat/ravenscar-full-stm32f429disco/adalib/libgnat.a(s-secsta.o)
                0x0000000020000178                system__secondary_stack__num_of_assigned_stacks
 .data          0x000000002000017c        0x0 /usr/local/gnat-arm/arm-eabi/lib/gnat/ravenscar-full-stm32f429disco/adalib/libgnat.a(s-stalib.o)
 .data._abort_signal
                0x000000002000017c       0x18 /usr/local/gnat-arm/arm-eabi/lib/gnat/ravenscar-full-stm32f429disco/adalib/libgnat.a(s-stalib.o)
                0x000000002000017c                _abort_signal
 .data.constraint_error
                0x0000000020000194       0x18 /usr/local/gnat-arm/arm-eabi/lib/gnat/ravenscar-full-stm32f429disco/adalib/libgnat.a(s-stalib.o)
                0x0000000020000194                constraint_error
 .data.numeric_error
                0x00000000200001ac       0x18 /usr/local/gnat-arm/arm-eabi/lib/gnat/ravenscar-full-stm32f429disco/adalib/libgnat.a(s-stalib.o)
                0x00000000200001ac                numeric_error
 .data.program_error
                0x00000000200001c4       0x18 /usr/local/gnat-arm/arm-eabi/lib/gnat/ravenscar-full-stm32f429disco/adalib/libgnat.a(s-stalib.o)
                0x00000000200001c4                program_error
 .data.storage_error
                0x00000000200001dc       0x18 /usr/local/gnat-arm/arm-eabi/lib/gnat/ravenscar-full-stm32f429disco/adalib/libgnat.a(s-stalib.o)
                0x00000000200001dc                storage_error
 .data.system__standard_library_E
                0x00000000200001f4        0x2 /usr/local/gnat-arm/arm-eabi/lib/gnat/ravenscar-full-stm32f429disco/adalib/libgnat.a(s-stalib.o)
                0x00000000200001f4                system__standard_library_E
 .data.system__standard_library__exception_trace
                0x00000000200001f6        0x1 /usr/local/gnat-arm/arm-eabi/lib/gnat/ravenscar-full-stm32f429disco/adalib/libgnat.a(s-stalib.o)
                0x00000000200001f6                system__standard_library__exception_trace
 *fill*         0x00000000200001f7        0x1 
 .data.system__standard_library__local_partition_id
                0x00000000200001f8        0x4 /usr/local/gnat-arm/arm-eabi/lib/gnat/ravenscar-full-stm32f429disco/adalib/libgnat.a(s-stalib.o)
                0x00000000200001f8                system__standard_library__local_partition_id
 .data.system__standard_library__runtime_finalized
                0x00000000200001fc        0x1 /usr/local/gnat-arm/arm-eabi/lib/gnat/ravenscar-full-stm32f429disco/adalib/libgnat.a(s-stalib.o)
                0x00000000200001fc                system__standard_library__runtime_finalized
 *fill*         0x00000000200001fd        0x3 
 .data.tasking_error
                0x0000000020000200       0x18 /usr/local/gnat-arm/arm-eabi/lib/gnat/ravenscar-full-stm32f429disco/adalib/libgnat.a(s-stalib.o)
                0x0000000020000200                tasking_error
 .data          0x0000000020000218        0x0 /usr/local/gnat-arm/arm-eabi/lib/gnat/ravenscar-full-stm32f429disco/adalib/libgnat.a(s-textio.o)
 .data.system__text_io_E
                0x0000000020000218        0x2 /usr/local/gnat-arm/arm-eabi/lib/gnat/ravenscar-full-stm32f429disco/adalib/libgnat.a(s-textio.o)
                0x0000000020000218                system__text_io_E
 .data.system__text_io__initialized
                0x000000002000021a        0x1 /usr/local/gnat-arm/arm-eabi/lib/gnat/ravenscar-full-stm32f429disco/adalib/libgnat.a(s-textio.o)
                0x000000002000021a                system__text_io__initialized
 .data          0x000000002000021b        0x0 /usr/local/gnat-arm/arm-eabi/lib/gnat/ravenscar-full-stm32f429disco/adalib/libgnat.a(s-traceb.o)
 *fill*         0x000000002000021b        0x1 
 .data.system__traceback_E
                0x000000002000021c        0x2 /usr/local/gnat-arm/arm-eabi/lib/gnat/ravenscar-full-stm32f429disco/adalib/libgnat.a(s-traceb.o)
                0x000000002000021c                system__traceback_E
 .data          0x000000002000021e        0x0 /usr/local/gnat-arm/arm-eabi/lib/gnat/ravenscar-full-stm32f429disco/adalib/libgnat.a(s-traent.o)
 .data.system__traceback_entries_E
                0x000000002000021e        0x2 /usr/local/gnat-arm/arm-eabi/lib/gnat/ravenscar-full-stm32f429disco/adalib/libgnat.a(s-traent.o)
                0x000000002000021e                system__traceback_entries_E
 .data          0x0000000020000220        0x0 /usr/local/gnat-arm/arm-eabi/lib/gnat/ravenscar-full-stm32f429disco/adalib/libgnat.a(s-valuns.o)
 .data.system__val_uns_E
                0x0000000020000220        0x2 /usr/local/gnat-arm/arm-eabi/lib/gnat/ravenscar-full-stm32f429disco/adalib/libgnat.a(s-valuns.o)
                0x0000000020000220                system__val_uns_E
 .data          0x0000000020000222        0x0 /usr/local/gnat-arm/arm-eabi/lib/gnat/ravenscar-full-stm32f429disco/adalib/libgnat.a(s-valuti.o)
 .data.system__val_util_E
                0x0000000020000222        0x2 /usr/local/gnat-arm/arm-eabi/lib/gnat/ravenscar-full-stm32f429disco/adalib/libgnat.a(s-valuti.o)
                0x0000000020000222                system__val_util_E
 .data          0x0000000020000224        0x0 /usr/local/gnat-arm/arm-eabi/lib/gnat/ravenscar-full-stm32f429disco/adalib/libgnat.a(s-wchcon.o)
 .data.system__wch_con_E
                0x0000000020000224        0x2 /usr/local/gnat-arm/arm-eabi/lib/gnat/ravenscar-full-stm32f429disco/adalib/libgnat.a(s-wchcon.o)
                0x0000000020000224                system__wch_con_E
 .data          0x0000000020000226        0x0 /usr/local/gnat-arm/arm-eabi/lib/gnat/ravenscar-full-stm32f429disco/adalib/libgnat.a(s-wchstw.o)
 .data.system__wch_stw_E
                0x0000000020000226        0x2 /usr/local/gnat-arm/arm-eabi/lib/gnat/ravenscar-full-stm32f429disco/adalib/libgnat.a(s-wchstw.o)
                0x0000000020000226                system__wch_stw_E
 .data          0x0000000020000228        0x0 /usr/local/gnat-arm/arm-eabi/lib/gnat/ravenscar-full-stm32f429disco/adalib/libgnat.a(start-rom.o)
 .data          0x0000000020000228        0x0 /usr/local/gnat-arm/arm-eabi/lib/gnat/ravenscar-full-stm32f429disco/adalib/libgnat.a(breakpoint_handler-cortexm.o)
 .data          0x0000000020000228        0x0 /usr/local/gnat-arm/arm-eabi/lib/gnat/ravenscar-full-stm32f429disco/adalib/libgnat.a(s-casuti.o)
 .data.system__case_util_E
                0x0000000020000228        0x2 /usr/local/gnat-arm/arm-eabi/lib/gnat/ravenscar-full-stm32f429disco/adalib/libgnat.a(s-casuti.o)
                0x0000000020000228                system__case_util_E
 .data          0x000000002000022a        0x0 /usr/local/gnat-arm/arm-eabi/lib/gnat/ravenscar-full-stm32f429disco/adalib/libgnat.a(s-semiho.o)
 .data.system__semihosting_E
                0x000000002000022a        0x2 /usr/local/gnat-arm/arm-eabi/lib/gnat/ravenscar-full-stm32f429disco/adalib/libgnat.a(s-semiho.o)
                0x000000002000022a                system__semihosting_E
 .data.system__semihosting__buffer_index
                0x000000002000022c        0x2 /usr/local/gnat-arm/arm-eabi/lib/gnat/ravenscar-full-stm32f429disco/adalib/libgnat.a(s-semiho.o)
 .data          0x000000002000022e        0x0 /usr/local/gnat-arm/arm-eabi/lib/gnat/ravenscar-full-stm32f429disco/adalib/libgnat.a(s-wchjis.o)
 .data.system__wch_jis_E
                0x000000002000022e        0x2 /usr/local/gnat-arm/arm-eabi/lib/gnat/ravenscar-full-stm32f429disco/adalib/libgnat.a(s-wchjis.o)
                0x000000002000022e                system__wch_jis_E
 .data          0x0000000020000230        0x0 /usr/local/gnat-arm/arm-eabi/lib/gnat/ravenscar-full-stm32f429disco/adalib/libgnat.a(setup_pll.o)
 .data.setup_pll_E
                0x0000000020000230        0x2 /usr/local/gnat-arm/arm-eabi/lib/gnat/ravenscar-full-stm32f429disco/adalib/libgnat.a(setup_pll.o)
                0x0000000020000230                setup_pll_E
 .data          0x0000000020000232        0x0 /usr/local/gnat-arm/arm-eabi/lib/gnat/ravenscar-full-stm32f429disco/adalib/libgnat.a(start-common.o)
 .data          0x0000000020000232        0x0 /usr/local/gnat-arm/arm-eabi/lib/gnat/ravenscar-full-stm32f429disco/adalib/libgnat.a(s-bbmcpa.o)
 .data.system__bb__mcu_parameters_E
                0x0000000020000232        0x2 /usr/local/gnat-arm/arm-eabi/lib/gnat/ravenscar-full-stm32f429disco/adalib/libgnat.a(s-bbmcpa.o)
                0x0000000020000232                system__bb__mcu_parameters_E
 .data          0x0000000020000234        0x0 /usr/local/gnat-arm/bin/../lib/gcc/arm-eabi/7.3.1/../../../../arm-eabi/lib/thumb/v7e-m/fpv4-sp/hard/libc.a(lib_a-malloc.o)
 .data          0x0000000020000234      0x410 /usr/local/gnat-arm/bin/../lib/gcc/arm-eabi/7.3.1/../../../../arm-eabi/lib/thumb/v7e-m/fpv4-sp/hard/libc.a(lib_a-mallocr.o)
                0x0000000020000234                __malloc_av_
                0x000000002000063c                __malloc_sbrk_base
                0x0000000020000640                __malloc_trim_threshold
 .data          0x0000000020000644        0x0 /usr/local/gnat-arm/bin/../lib/gcc/arm-eabi/7.3.1/../../../../arm-eabi/lib/thumb/v7e-m/fpv4-sp/hard/libc.a(lib_a-memcmp.o)
 .data          0x0000000020000644        0x0 /usr/local/gnat-arm/bin/../lib/gcc/arm-eabi/7.3.1/../../../../arm-eabi/lib/thumb/v7e-m/fpv4-sp/hard/libc.a(lib_a-memcpy.o)
 .data          0x0000000020000644        0x0 /usr/local/gnat-arm/bin/../lib/gcc/arm-eabi/7.3.1/../../../../arm-eabi/lib/thumb/v7e-m/fpv4-sp/hard/libc.a(lib_a-memmove.o)
 .data          0x0000000020000644        0x0 /usr/local/gnat-arm/bin/../lib/gcc/arm-eabi/7.3.1/../../../../arm-eabi/lib/thumb/v7e-m/fpv4-sp/hard/libc.a(lib_a-memset.o)
 .data          0x0000000020000644        0x0 /usr/local/gnat-arm/bin/../lib/gcc/arm-eabi/7.3.1/../../../../arm-eabi/lib/thumb/v7e-m/fpv4-sp/hard/libc.a(lib_a-mlock.o)
 .data          0x0000000020000644        0x0 /usr/local/gnat-arm/bin/../lib/gcc/arm-eabi/7.3.1/../../../../arm-eabi/lib/thumb/v7e-m/fpv4-sp/hard/libc.a(lib_a-realloc.o)
 .data          0x0000000020000644        0x0 /usr/local/gnat-arm/bin/../lib/gcc/arm-eabi/7.3.1/../../../../arm-eabi/lib/thumb/v7e-m/fpv4-sp/hard/libc.a(lib_a-reallocr.o)
 .data          0x0000000020000644        0x0 /usr/local/gnat-arm/bin/../lib/gcc/arm-eabi/7.3.1/../../../../arm-eabi/lib/thumb/v7e-m/fpv4-sp/hard/libc.a(lib_a-sbrkr.o)
 .data          0x0000000020000644        0x0 /usr/local/gnat-arm/bin/../lib/gcc/arm-eabi/7.3.1/../../../../arm-eabi/lib/thumb/v7e-m/fpv4-sp/hard/libc.a(lib_a-freer.o)
 *fill*         0x0000000020000644        0x4 
 .data          0x0000000020000648      0x430 /usr/local/gnat-arm/bin/../lib/gcc/arm-eabi/7.3.1/../../../../arm-eabi/lib/thumb/v7e-m/fpv4-sp/hard/libc.a(lib_a-impure.o)
                0x0000000020000648                _impure_ptr
 .data          0x0000000020000a78        0x0 /usr/local/gnat-arm/bin/../lib/gcc/arm-eabi/7.3.1/../../../../arm-eabi/lib/thumb/v7e-m/fpv4-sp/hard/libc.a(lib_a-reent.o)
 .data          0x0000000020000a78        0x0 /usr/local/gnat-arm/bin/../lib/gcc/arm-eabi/7.3.1/thumb/v7e-m/fpv4-sp/hard/libgcc.a(_aeabi_ldivmod.o)
 .data          0x0000000020000a78        0x0 /usr/local/gnat-arm/bin/../lib/gcc/arm-eabi/7.3.1/thumb/v7e-m/fpv4-sp/hard/libgcc.a(_aeabi_uldivmod.o)
 .data          0x0000000020000a78        0x0 /usr/local/gnat-arm/bin/../lib/gcc/arm-eabi/7.3.1/thumb/v7e-m/fpv4-sp/hard/libgcc.a(_udivmoddi4.o)
 .data          0x0000000020000a78        0x0 /usr/local/gnat-arm/bin/../lib/gcc/arm-eabi/7.3.1/thumb/v7e-m/fpv4-sp/hard/libgcc.a(unwind-arm.o)
 .data          0x0000000020000a78        0x0 /usr/local/gnat-arm/bin/../lib/gcc/arm-eabi/7.3.1/thumb/v7e-m/fpv4-sp/hard/libgcc.a(libunwind.o)
 .data          0x0000000020000a78        0x0 /usr/local/gnat-arm/bin/../lib/gcc/arm-eabi/7.3.1/thumb/v7e-m/fpv4-sp/hard/libgcc.a(pr-support.o)
 .data          0x0000000020000a78        0x0 /usr/local/gnat-arm/bin/../lib/gcc/arm-eabi/7.3.1/thumb/v7e-m/fpv4-sp/hard/libgcc.a(_dvmd_tls.o)
 .data          0x0000000020000a78        0x0 /usr/local/gnat-arm/arm-eabi/lib/gnat/ravenscar-full-stm32f429disco/adalib//libgnat.a(newlib-bb.o)
 .data.heap_ptr.5847
                0x0000000020000a78        0x4 /usr/local/gnat-arm/arm-eabi/lib/gnat/ravenscar-full-stm32f429disco/adalib//libgnat.a(newlib-bb.o)
 .data          0x0000000020000a7c        0x0 /usr/local/gnat-arm/bin/../lib/gcc/arm-eabi/7.3.1/../../../../arm-eabi/lib/thumb/v7e-m/fpv4-sp/hard/libc.a(lib_a-errno.o)
                0x0000000020000a7c                . = ALIGN (0x4)
                0x0000000020000a7c                __data_end = .
                0x000000000000029f                __data_words = ((__data_end - __data_start) >> 0x2)
                0x0000000008012414                __ccmdata_load = (__rom_end + (__data_words << 0x2))

.igot.plt       0x0000000020000a7c        0x0 load address 0x0000000008012414
 .igot.plt      0x0000000020000a7c        0x0 unit01.o

.ccmdata        0x0000000010000000        0x0 load address 0x0000000008012414
                0x0000000010000000                __ccmdata_start = .
 *(.ccmdata .ccmdata.*)
                0x0000000010000000                . = ALIGN (0x4)
                0x0000000010000000                __ccmdata_end = .
                0x0000000000000000                __ccmdata_words = ((__ccmdata_end - __ccmdata_start) >> 0x2)

.bss            0x0000000020000a80     0x4850 load address 0x0000000008012418
                0x0000000020000a80                . = ALIGN (0x8)
                0x0000000020000a80                __bss_start = .
 *(.bss .bss.*)
 .bss           0x0000000020000a80        0x0 unit01.o
 .bss           0x0000000020000a80      0x840 b__unit01.o
 .bss           0x00000000200012c0        0x0 /home/aquox/Scrivania/Arm/edf-ravenscar-arm/build/system.o
 .bss           0x00000000200012c0        0x0 /home/aquox/Scrivania/Arm/edf-ravenscar-arm/build/s-bb.o
 .bss           0x00000000200012c0        0x0 /home/aquox/Scrivania/Arm/edf-ravenscar-arm/build/s-bbpara.o
 .bss           0x00000000200012c0        0x0 /home/aquox/Scrivania/Arm/edf-ravenscar-arm/build/s-multip.o
 .bss           0x00000000200012c0        0x8 /home/aquox/Scrivania/Arm/edf-ravenscar-arm/build/s-bbbosu.o
                0x00000000200012c0                __gnat_alarm_time
                0x00000000200012c4                system__bb__board_support__next_tick_time
 .bss           0x00000000200012c8        0x0 /home/aquox/Scrivania/Arm/edf-ravenscar-arm/build/s-bbdead.o
 .bss           0x00000000200012c8        0x0 /home/aquox/Scrivania/Arm/edf-ravenscar-arm/build/s-bbtiev.o
 .bss           0x00000000200012c8      0x708 /home/aquox/Scrivania/Arm/edf-ravenscar-arm/build/s-bbthqu.o
                0x00000000200012c8                system__bb__threads__queues__task_table
 .bss           0x00000000200019d0        0x0 /home/aquox/Scrivania/Arm/edf-ravenscar-arm/build/s-bbprot.o
 .bss           0x00000000200019d0        0x0 /home/aquox/Scrivania/Arm/edf-ravenscar-arm/build/s-bbthre.o
 .bss           0x00000000200019d0      0x17c /home/aquox/Scrivania/Arm/edf-ravenscar-arm/build/s-bbinte.o
                0x00000000200019d0                interrupt_stack_table
                0x00000000200019d4                system__bb__interrupts__interrupt_handlers_table
 .bss           0x0000000020001b4c       0x44 /home/aquox/Scrivania/Arm/edf-ravenscar-arm/build/s-bbcppr.o
                0x0000000020001b4c                __gnat_bb_exception_handlers
 .bss           0x0000000020001b90        0x0 /home/aquox/Scrivania/Arm/edf-ravenscar-arm/build/s-osinte.o
 .bss           0x0000000020001b90        0x0 /home/aquox/Scrivania/Arm/edf-ravenscar-arm/build/a-elchha.o
 .bss           0x0000000020001b90        0x0 /home/aquox/Scrivania/Arm/edf-ravenscar-arm/build/s-taspri.o
 .bss           0x0000000020001b90        0x0 /home/aquox/Scrivania/Arm/edf-ravenscar-arm/build/s-tasdeb.o
 .bss           0x0000000020001b90      0x2a8 /home/aquox/Scrivania/Arm/edf-ravenscar-arm/build/s-taskin.o
 .bss           0x0000000020001e38      0x1b0 /home/aquox/Scrivania/Arm/edf-ravenscar-arm/build/s-soflin.o
                0x0000000020001e38                system__soft_links__library_exception
                0x0000000020001fe0                system__soft_links__caller_relative_deadline
 .bss           0x0000000020001fe8        0x0 /home/aquox/Scrivania/Arm/edf-ravenscar-arm/build/s-bbtime.o
 .bss           0x0000000020001fe8        0x0 /home/aquox/Scrivania/Arm/edf-ravenscar-arm/build/s-mufalo.o
 .bss           0x0000000020001fe8      0xab0 /home/aquox/Scrivania/Arm/edf-ravenscar-arm/build/s-taprop.o
                0x0000000020001fe8                system__task_primitives__operations__idle_stacks
                0x00000000200027e8                __gnat_idle_stack_table
                0x00000000200027f0                system__task_primitives__operations__idle_tasks
 .bss           0x0000000020002a98        0x0 /home/aquox/Scrivania/Arm/edf-ravenscar-arm/build/a-reatim.o
 .bss           0x0000000020002a98        0x0 /home/aquox/Scrivania/Arm/edf-ravenscar-arm/build/a-retide.o
 .bss           0x0000000020002a98        0x0 /home/aquox/Scrivania/Arm/edf-ravenscar-arm/build/s-tasres.o
 .bss           0x0000000020002a98        0x0 /home/aquox/Scrivania/Arm/edf-ravenscar-arm/build/s-tarest.o
 .bss           0x0000000020002a98       0x10 /home/aquox/Scrivania/Arm/edf-ravenscar-arm/build/system_time.o
                0x0000000020002a98                system_time__system_start_time
                0x0000000020002aa0                system_time__task_activation_delay
 .bss           0x0000000020002aa8        0x0 /home/aquox/Scrivania/Arm/edf-ravenscar-arm/build/print_task.o
 .bss           0x0000000020002aa8      0xdc8 /home/aquox/Scrivania/Arm/edf-ravenscar-arm/build/cyclic_tasks.o
 .bss           0x0000000020003870        0x0 /usr/local/gnat-arm/arm-eabi/lib/gnat/ravenscar-full-stm32f429disco/adalib/libgnat.a(a-except.o)
 .bss           0x0000000020003870        0x0 /usr/local/gnat-arm/arm-eabi/lib/gnat/ravenscar-full-stm32f429disco/adalib/libgnat.a(a-tags.o)
 .bss.ada__tags__external_tag_htable__iterator_indexXn
                0x0000000020003870        0x1 /usr/local/gnat-arm/arm-eabi/lib/gnat/ravenscar-full-stm32f429disco/adalib/libgnat.a(a-tags.o)
                0x0000000020003870                ada__tags__external_tag_htable__iterator_indexXn
 *fill*         0x0000000020003871        0x3 
 .bss.ada__tags__external_tag_htable__tableXn
                0x0000000020003874      0x100 /usr/local/gnat-arm/arm-eabi/lib/gnat/ravenscar-full-stm32f429disco/adalib/libgnat.a(a-tags.o)
                0x0000000020003874                ada__tags__external_tag_htable__tableXn
 .bss           0x0000000020003974        0x0 /usr/local/gnat-arm/arm-eabi/lib/gnat/ravenscar-full-stm32f429disco/adalib/libgnat.a(adaint-xi.o)
 .bss           0x0000000020003974        0x0 /usr/local/gnat-arm/arm-eabi/lib/gnat/ravenscar-full-stm32f429disco/adalib/libgnat.a(g-debuti.o)
 .bss           0x0000000020003974        0x0 /usr/local/gnat-arm/arm-eabi/lib/gnat/ravenscar-full-stm32f429disco/adalib/libgnat.a(handler.o)
 .bss           0x0000000020003974        0x0 /usr/local/gnat-arm/arm-eabi/lib/gnat/ravenscar-full-stm32f429disco/adalib/libgnat.a(raise-gcc.o)
 .bss           0x0000000020003974        0x0 /usr/local/gnat-arm/arm-eabi/lib/gnat/ravenscar-full-stm32f429disco/adalib/libgnat.a(s-bcpcst.o)
 .bss           0x0000000020003974        0x0 /usr/local/gnat-arm/arm-eabi/lib/gnat/ravenscar-full-stm32f429disco/adalib/libgnat.a(s-excdeb.o)
 .bss           0x0000000020003974        0x0 /usr/local/gnat-arm/arm-eabi/lib/gnat/ravenscar-full-stm32f429disco/adalib/libgnat.a(s-except.o)
 .bss           0x0000000020003974        0x0 /usr/local/gnat-arm/arm-eabi/lib/gnat/ravenscar-full-stm32f429disco/adalib/libgnat.a(s-excmac.o)
 .bss           0x0000000020003974        0x0 /usr/local/gnat-arm/arm-eabi/lib/gnat/ravenscar-full-stm32f429disco/adalib/libgnat.a(s-exctab.o)
 .bss.system__exception_table__htable
                0x0000000020003974       0x94 /usr/local/gnat-arm/arm-eabi/lib/gnat/ravenscar-full-stm32f429disco/adalib/libgnat.a(s-exctab.o)
                0x0000000020003974                system__exception_table__htable
 .bss           0x0000000020003a08        0x0 /usr/local/gnat-arm/arm-eabi/lib/gnat/ravenscar-full-stm32f429disco/adalib/libgnat.a(s-imgint.o)
 .bss           0x0000000020003a08        0x0 /usr/local/gnat-arm/arm-eabi/lib/gnat/ravenscar-full-stm32f429disco/adalib/libgnat.a(s-init.o)
 .bss           0x0000000020003a08        0x0 /usr/local/gnat-arm/arm-eabi/lib/gnat/ravenscar-full-stm32f429disco/adalib/libgnat.a(s-io.o)
 .bss           0x0000000020003a08        0x0 /usr/local/gnat-arm/arm-eabi/lib/gnat/ravenscar-full-stm32f429disco/adalib/libgnat.a(s-macres.o)
 .bss           0x0000000020003a08        0x0 /usr/local/gnat-arm/arm-eabi/lib/gnat/ravenscar-full-stm32f429disco/adalib/libgnat.a(s-memory.o)
 .bss           0x0000000020003a08        0x0 /usr/local/gnat-arm/arm-eabi/lib/gnat/ravenscar-full-stm32f429disco/adalib/libgnat.a(s-musplo.o)
 .bss           0x0000000020003a08        0x0 /usr/local/gnat-arm/arm-eabi/lib/gnat/ravenscar-full-stm32f429disco/adalib/libgnat.a(s-parame.o)
 .bss           0x0000000020003a08        0x0 /usr/local/gnat-arm/arm-eabi/lib/gnat/ravenscar-full-stm32f429disco/adalib/libgnat.a(s-secsta.o)
 .bss.__gnat_binder_ss_count
                0x0000000020003a08        0x4 /usr/local/gnat-arm/arm-eabi/lib/gnat/ravenscar-full-stm32f429disco/adalib/libgnat.a(s-secsta.o)
                0x0000000020003a08                __gnat_binder_ss_count
 .bss.__gnat_default_ss_pool
                0x0000000020003a0c        0x4 /usr/local/gnat-arm/arm-eabi/lib/gnat/ravenscar-full-stm32f429disco/adalib/libgnat.a(s-secsta.o)
                0x0000000020003a0c                __gnat_default_ss_pool
 .bss.__gnat_default_ss_size
                0x0000000020003a10        0x4 /usr/local/gnat-arm/arm-eabi/lib/gnat/ravenscar-full-stm32f429disco/adalib/libgnat.a(s-secsta.o)
                0x0000000020003a10                __gnat_default_ss_size
 .bss.system__secondary_stack__ss_pool
                0x0000000020003a14        0x4 /usr/local/gnat-arm/arm-eabi/lib/gnat/ravenscar-full-stm32f429disco/adalib/libgnat.a(s-secsta.o)
                0x0000000020003a14                system__secondary_stack__ss_pool
 .bss           0x0000000020003a18        0x0 /usr/local/gnat-arm/arm-eabi/lib/gnat/ravenscar-full-stm32f429disco/adalib/libgnat.a(s-stalib.o)
 .bss           0x0000000020003a18        0x0 /usr/local/gnat-arm/arm-eabi/lib/gnat/ravenscar-full-stm32f429disco/adalib/libgnat.a(s-textio.o)
 .bss           0x0000000020003a18        0x0 /usr/local/gnat-arm/arm-eabi/lib/gnat/ravenscar-full-stm32f429disco/adalib/libgnat.a(s-traceb.o)
 .bss           0x0000000020003a18        0x0 /usr/local/gnat-arm/arm-eabi/lib/gnat/ravenscar-full-stm32f429disco/adalib/libgnat.a(s-traent.o)
 .bss           0x0000000020003a18        0x0 /usr/local/gnat-arm/arm-eabi/lib/gnat/ravenscar-full-stm32f429disco/adalib/libgnat.a(s-valuns.o)
 .bss           0x0000000020003a18        0x0 /usr/local/gnat-arm/arm-eabi/lib/gnat/ravenscar-full-stm32f429disco/adalib/libgnat.a(s-valuti.o)
 .bss           0x0000000020003a18        0x0 /usr/local/gnat-arm/arm-eabi/lib/gnat/ravenscar-full-stm32f429disco/adalib/libgnat.a(s-wchcon.o)
 .bss           0x0000000020003a18        0x0 /usr/local/gnat-arm/arm-eabi/lib/gnat/ravenscar-full-stm32f429disco/adalib/libgnat.a(s-wchstw.o)
 .bss           0x0000000020003a18        0x0 /usr/local/gnat-arm/arm-eabi/lib/gnat/ravenscar-full-stm32f429disco/adalib/libgnat.a(start-rom.o)
 .bss           0x0000000020003a18        0x0 /usr/local/gnat-arm/arm-eabi/lib/gnat/ravenscar-full-stm32f429disco/adalib/libgnat.a(breakpoint_handler-cortexm.o)
 .bss           0x0000000020003a18        0x0 /usr/local/gnat-arm/arm-eabi/lib/gnat/ravenscar-full-stm32f429disco/adalib/libgnat.a(s-casuti.o)
 .bss           0x0000000020003a18        0x0 /usr/local/gnat-arm/arm-eabi/lib/gnat/ravenscar-full-stm32f429disco/adalib/libgnat.a(s-semiho.o)
 .bss.system__semihosting__buffer
                0x0000000020003a18       0x80 /usr/local/gnat-arm/arm-eabi/lib/gnat/ravenscar-full-stm32f429disco/adalib/libgnat.a(s-semiho.o)
 .bss           0x0000000020003a98        0x0 /usr/local/gnat-arm/arm-eabi/lib/gnat/ravenscar-full-stm32f429disco/adalib/libgnat.a(s-wchjis.o)
 .bss           0x0000000020003a98        0x0 /usr/local/gnat-arm/arm-eabi/lib/gnat/ravenscar-full-stm32f429disco/adalib/libgnat.a(setup_pll.o)
 .bss           0x0000000020003a98        0x0 /usr/local/gnat-arm/arm-eabi/lib/gnat/ravenscar-full-stm32f429disco/adalib/libgnat.a(start-common.o)
 .bss           0x0000000020003a98        0x0 /usr/local/gnat-arm/arm-eabi/lib/gnat/ravenscar-full-stm32f429disco/adalib/libgnat.a(s-bbmcpa.o)
 .bss           0x0000000020003a98        0x0 /usr/local/gnat-arm/bin/../lib/gcc/arm-eabi/7.3.1/../../../../arm-eabi/lib/thumb/v7e-m/fpv4-sp/hard/libc.a(lib_a-malloc.o)
 .bss           0x0000000020003a98       0x34 /usr/local/gnat-arm/bin/../lib/gcc/arm-eabi/7.3.1/../../../../arm-eabi/lib/thumb/v7e-m/fpv4-sp/hard/libc.a(lib_a-mallocr.o)
                0x0000000020003a98                __malloc_top_pad
                0x0000000020003a9c                __malloc_current_mallinfo
                0x0000000020003ac4                __malloc_max_sbrked_mem
                0x0000000020003ac8                __malloc_max_total_mem
 .bss           0x0000000020003acc        0x0 /usr/local/gnat-arm/bin/../lib/gcc/arm-eabi/7.3.1/../../../../arm-eabi/lib/thumb/v7e-m/fpv4-sp/hard/libc.a(lib_a-memcmp.o)
 .bss           0x0000000020003acc        0x0 /usr/local/gnat-arm/bin/../lib/gcc/arm-eabi/7.3.1/../../../../arm-eabi/lib/thumb/v7e-m/fpv4-sp/hard/libc.a(lib_a-memcpy.o)
 .bss           0x0000000020003acc        0x0 /usr/local/gnat-arm/bin/../lib/gcc/arm-eabi/7.3.1/../../../../arm-eabi/lib/thumb/v7e-m/fpv4-sp/hard/libc.a(lib_a-memmove.o)
 .bss           0x0000000020003acc        0x0 /usr/local/gnat-arm/bin/../lib/gcc/arm-eabi/7.3.1/../../../../arm-eabi/lib/thumb/v7e-m/fpv4-sp/hard/libc.a(lib_a-memset.o)
 .bss           0x0000000020003acc        0x0 /usr/local/gnat-arm/bin/../lib/gcc/arm-eabi/7.3.1/../../../../arm-eabi/lib/thumb/v7e-m/fpv4-sp/hard/libc.a(lib_a-mlock.o)
 .bss           0x0000000020003acc        0x0 /usr/local/gnat-arm/bin/../lib/gcc/arm-eabi/7.3.1/../../../../arm-eabi/lib/thumb/v7e-m/fpv4-sp/hard/libc.a(lib_a-realloc.o)
 .bss           0x0000000020003acc        0x0 /usr/local/gnat-arm/bin/../lib/gcc/arm-eabi/7.3.1/../../../../arm-eabi/lib/thumb/v7e-m/fpv4-sp/hard/libc.a(lib_a-reallocr.o)
 .bss           0x0000000020003acc        0x0 /usr/local/gnat-arm/bin/../lib/gcc/arm-eabi/7.3.1/../../../../arm-eabi/lib/thumb/v7e-m/fpv4-sp/hard/libc.a(lib_a-sbrkr.o)
 .bss           0x0000000020003acc        0x0 /usr/local/gnat-arm/bin/../lib/gcc/arm-eabi/7.3.1/../../../../arm-eabi/lib/thumb/v7e-m/fpv4-sp/hard/libc.a(lib_a-freer.o)
 .bss           0x0000000020003acc        0x0 /usr/local/gnat-arm/bin/../lib/gcc/arm-eabi/7.3.1/../../../../arm-eabi/lib/thumb/v7e-m/fpv4-sp/hard/libc.a(lib_a-impure.o)
 .bss           0x0000000020003acc        0x0 /usr/local/gnat-arm/bin/../lib/gcc/arm-eabi/7.3.1/../../../../arm-eabi/lib/thumb/v7e-m/fpv4-sp/hard/libc.a(lib_a-reent.o)
 .bss           0x0000000020003acc        0x0 /usr/local/gnat-arm/bin/../lib/gcc/arm-eabi/7.3.1/thumb/v7e-m/fpv4-sp/hard/libgcc.a(_aeabi_ldivmod.o)
 .bss           0x0000000020003acc        0x0 /usr/local/gnat-arm/bin/../lib/gcc/arm-eabi/7.3.1/thumb/v7e-m/fpv4-sp/hard/libgcc.a(_aeabi_uldivmod.o)
 .bss           0x0000000020003acc        0x0 /usr/local/gnat-arm/bin/../lib/gcc/arm-eabi/7.3.1/thumb/v7e-m/fpv4-sp/hard/libgcc.a(_udivmoddi4.o)
 .bss           0x0000000020003acc        0x0 /usr/local/gnat-arm/bin/../lib/gcc/arm-eabi/7.3.1/thumb/v7e-m/fpv4-sp/hard/libgcc.a(unwind-arm.o)
 .bss           0x0000000020003acc        0x0 /usr/local/gnat-arm/bin/../lib/gcc/arm-eabi/7.3.1/thumb/v7e-m/fpv4-sp/hard/libgcc.a(libunwind.o)
 .bss           0x0000000020003acc        0x0 /usr/local/gnat-arm/bin/../lib/gcc/arm-eabi/7.3.1/thumb/v7e-m/fpv4-sp/hard/libgcc.a(pr-support.o)
 .bss           0x0000000020003acc        0x0 /usr/local/gnat-arm/bin/../lib/gcc/arm-eabi/7.3.1/thumb/v7e-m/fpv4-sp/hard/libgcc.a(_dvmd_tls.o)
 .bss           0x0000000020003acc        0x0 /usr/local/gnat-arm/arm-eabi/lib/gnat/ravenscar-full-stm32f429disco/adalib//libgnat.a(newlib-bb.o)
 .bss           0x0000000020003acc        0x0 /usr/local/gnat-arm/bin/../lib/gcc/arm-eabi/7.3.1/../../../../arm-eabi/lib/thumb/v7e-m/fpv4-sp/hard/libc.a(lib_a-errno.o)
 *(COMMON)
 COMMON         0x0000000020003acc        0x4 /usr/local/gnat-arm/bin/../lib/gcc/arm-eabi/7.3.1/../../../../arm-eabi/lib/thumb/v7e-m/fpv4-sp/hard/libc.a(lib_a-reent.o)
                0x0000000020003acc                errno
                0x0000000020003ad0                . = ALIGN (0x8)
                0x0000000020003ad0                __bss_end = .
                0x0000000020003ad0                __interrupt_stack_start = .
 *(.interrupt_stacks)
 .interrupt_stacks
                0x0000000020003ad0      0x800 /home/aquox/Scrivania/Arm/edf-ravenscar-arm/build/s-bbinte.o
                0x0000000020003ad0                system__bb__interrupts__interrupt_stacks
                0x00000000200042d0                . = ALIGN (0x8)
                0x00000000200042d0                __interrupt_stack_end = .
                0x00000000200042d0                __stack_start = .
                0x00000000200052d0                . = (. + DEFINED (__stack_size)?__stack_size:_DEFAULT_STACK_SIZE)
 *fill*         0x00000000200042d0     0x1000 
                0x00000000200052d0                . = ALIGN (0x8)
                0x00000000200052d0                __stack_end = .
                0x00000000200052d0                _end = .
                0x00000000200052d0                __heap_start = .
                0x0000000020030000                __heap_end = (ORIGIN (sram_bs) + LENGTH (sram_bs))
                0x0000000000000c14                __bss_words = ((__bss_end - __bss_start) >> 0x2)

.debug
 *(.debug)

.line
 *(.line)

.debug_srcinfo
 *(.debug_srcinfo)

.debug_sfnames
 *(.debug_sfnames)

.debug_aranges  0x0000000000000000      0xc38
 *(.debug_aranges)
 .debug_aranges
                0x0000000000000000       0x20 unit01.o
 .debug_aranges
                0x0000000000000020       0x20 b__unit01.o
 .debug_aranges
                0x0000000000000040       0x18 /home/aquox/Scrivania/Arm/edf-ravenscar-arm/build/system.o
 .debug_aranges
                0x0000000000000058       0x18 /home/aquox/Scrivania/Arm/edf-ravenscar-arm/build/s-bbpara.o
 .debug_aranges
                0x0000000000000070       0x20 /home/aquox/Scrivania/Arm/edf-ravenscar-arm/build/s-multip.o
 .debug_aranges
                0x0000000000000090       0x20 /home/aquox/Scrivania/Arm/edf-ravenscar-arm/build/s-bbbosu.o
 .debug_aranges
                0x00000000000000b0       0x18 /home/aquox/Scrivania/Arm/edf-ravenscar-arm/build/s-bbdead.o
 .debug_aranges
                0x00000000000000c8       0x20 /home/aquox/Scrivania/Arm/edf-ravenscar-arm/build/s-bbtiev.o
 .debug_aranges
                0x00000000000000e8       0x20 /home/aquox/Scrivania/Arm/edf-ravenscar-arm/build/s-bbthqu.o
 .debug_aranges
                0x0000000000000108       0x20 /home/aquox/Scrivania/Arm/edf-ravenscar-arm/build/s-bbprot.o
 .debug_aranges
                0x0000000000000128       0x20 /home/aquox/Scrivania/Arm/edf-ravenscar-arm/build/s-bbthre.o
 .debug_aranges
                0x0000000000000148       0x20 /home/aquox/Scrivania/Arm/edf-ravenscar-arm/build/s-bbinte.o
 .debug_aranges
                0x0000000000000168       0x20 /home/aquox/Scrivania/Arm/edf-ravenscar-arm/build/s-bbcppr.o
 .debug_aranges
                0x0000000000000188       0x18 /home/aquox/Scrivania/Arm/edf-ravenscar-arm/build/s-osinte.o
 .debug_aranges
                0x00000000000001a0       0x20 /home/aquox/Scrivania/Arm/edf-ravenscar-arm/build/a-elchha.o
 .debug_aranges
                0x00000000000001c0       0x18 /home/aquox/Scrivania/Arm/edf-ravenscar-arm/build/s-taspri.o
 .debug_aranges
                0x00000000000001d8       0x20 /home/aquox/Scrivania/Arm/edf-ravenscar-arm/build/s-tasdeb.o
 .debug_aranges
                0x00000000000001f8       0x20 /home/aquox/Scrivania/Arm/edf-ravenscar-arm/build/s-taskin.o
 .debug_aranges
                0x0000000000000218       0x20 /home/aquox/Scrivania/Arm/edf-ravenscar-arm/build/s-soflin.o
 .debug_aranges
                0x0000000000000238       0x20 /home/aquox/Scrivania/Arm/edf-ravenscar-arm/build/s-bbtime.o
 .debug_aranges
                0x0000000000000258       0x20 /home/aquox/Scrivania/Arm/edf-ravenscar-arm/build/s-mufalo.o
 .debug_aranges
                0x0000000000000278       0x20 /home/aquox/Scrivania/Arm/edf-ravenscar-arm/build/s-taprop.o
 .debug_aranges
                0x0000000000000298       0x20 /home/aquox/Scrivania/Arm/edf-ravenscar-arm/build/a-reatim.o
 .debug_aranges
                0x00000000000002b8       0x20 /home/aquox/Scrivania/Arm/edf-ravenscar-arm/build/a-retide.o
 .debug_aranges
                0x00000000000002d8       0x20 /home/aquox/Scrivania/Arm/edf-ravenscar-arm/build/s-tarest.o
 .debug_aranges
                0x00000000000002f8       0x20 /home/aquox/Scrivania/Arm/edf-ravenscar-arm/build/system_time.o
 .debug_aranges
                0x0000000000000318       0x20 /home/aquox/Scrivania/Arm/edf-ravenscar-arm/build/print_task.o
 .debug_aranges
                0x0000000000000338       0x20 /home/aquox/Scrivania/Arm/edf-ravenscar-arm/build/cyclic_tasks.o
 .debug_aranges
                0x0000000000000358      0x470 /usr/local/gnat-arm/arm-eabi/lib/gnat/ravenscar-full-stm32f429disco/adalib/libgnat.a(a-except.o)
 .debug_aranges
                0x00000000000007c8      0x178 /usr/local/gnat-arm/arm-eabi/lib/gnat/ravenscar-full-stm32f429disco/adalib/libgnat.a(a-tags.o)
 .debug_aranges
                0x0000000000000940       0x38 /usr/local/gnat-arm/arm-eabi/lib/gnat/ravenscar-full-stm32f429disco/adalib/libgnat.a(s-excdeb.o)
 .debug_aranges
                0x0000000000000978       0x28 /usr/local/gnat-arm/arm-eabi/lib/gnat/ravenscar-full-stm32f429disco/adalib/libgnat.a(s-traceb.o)
 .debug_aranges
                0x00000000000009a0       0x20 /usr/local/gnat-arm/bin/../lib/gcc/arm-eabi/7.3.1/../../../../arm-eabi/lib/thumb/v7e-m/fpv4-sp/hard/libc.a(lib_a-malloc.o)
 .debug_aranges
                0x00000000000009c0       0x20 /usr/local/gnat-arm/bin/../lib/gcc/arm-eabi/7.3.1/../../../../arm-eabi/lib/thumb/v7e-m/fpv4-sp/hard/libc.a(lib_a-mallocr.o)
 .debug_aranges
                0x00000000000009e0       0x20 /usr/local/gnat-arm/bin/../lib/gcc/arm-eabi/7.3.1/../../../../arm-eabi/lib/thumb/v7e-m/fpv4-sp/hard/libc.a(lib_a-memcmp.o)
 .debug_aranges
                0x0000000000000a00       0x20 /usr/local/gnat-arm/bin/../lib/gcc/arm-eabi/7.3.1/../../../../arm-eabi/lib/thumb/v7e-m/fpv4-sp/hard/libc.a(lib_a-memcpy.o)
 .debug_aranges
                0x0000000000000a20       0x20 /usr/local/gnat-arm/bin/../lib/gcc/arm-eabi/7.3.1/../../../../arm-eabi/lib/thumb/v7e-m/fpv4-sp/hard/libc.a(lib_a-memmove.o)
 .debug_aranges
                0x0000000000000a40       0x20 /usr/local/gnat-arm/bin/../lib/gcc/arm-eabi/7.3.1/../../../../arm-eabi/lib/thumb/v7e-m/fpv4-sp/hard/libc.a(lib_a-memset.o)
 .debug_aranges
                0x0000000000000a60       0x20 /usr/local/gnat-arm/bin/../lib/gcc/arm-eabi/7.3.1/../../../../arm-eabi/lib/thumb/v7e-m/fpv4-sp/hard/libc.a(lib_a-mlock.o)
 .debug_aranges
                0x0000000000000a80       0x20 /usr/local/gnat-arm/bin/../lib/gcc/arm-eabi/7.3.1/../../../../arm-eabi/lib/thumb/v7e-m/fpv4-sp/hard/libc.a(lib_a-realloc.o)
 .debug_aranges
                0x0000000000000aa0       0x20 /usr/local/gnat-arm/bin/../lib/gcc/arm-eabi/7.3.1/../../../../arm-eabi/lib/thumb/v7e-m/fpv4-sp/hard/libc.a(lib_a-reallocr.o)
 .debug_aranges
                0x0000000000000ac0       0x20 /usr/local/gnat-arm/bin/../lib/gcc/arm-eabi/7.3.1/../../../../arm-eabi/lib/thumb/v7e-m/fpv4-sp/hard/libc.a(lib_a-sbrkr.o)
 .debug_aranges
                0x0000000000000ae0       0x20 /usr/local/gnat-arm/bin/../lib/gcc/arm-eabi/7.3.1/../../../../arm-eabi/lib/thumb/v7e-m/fpv4-sp/hard/libc.a(lib_a-freer.o)
 .debug_aranges
                0x0000000000000b00       0x18 /usr/local/gnat-arm/bin/../lib/gcc/arm-eabi/7.3.1/../../../../arm-eabi/lib/thumb/v7e-m/fpv4-sp/hard/libc.a(lib_a-impure.o)
 .debug_aranges
                0x0000000000000b18       0x20 /usr/local/gnat-arm/bin/../lib/gcc/arm-eabi/7.3.1/../../../../arm-eabi/lib/thumb/v7e-m/fpv4-sp/hard/libc.a(lib_a-reent.o)
 .debug_aranges
                0x0000000000000b38       0x20 /usr/local/gnat-arm/bin/../lib/gcc/arm-eabi/7.3.1/thumb/v7e-m/fpv4-sp/hard/libgcc.a(_aeabi_ldivmod.o)
 .debug_aranges
                0x0000000000000b58       0x20 /usr/local/gnat-arm/bin/../lib/gcc/arm-eabi/7.3.1/thumb/v7e-m/fpv4-sp/hard/libgcc.a(_aeabi_uldivmod.o)
 .debug_aranges
                0x0000000000000b78       0x20 /usr/local/gnat-arm/bin/../lib/gcc/arm-eabi/7.3.1/thumb/v7e-m/fpv4-sp/hard/libgcc.a(_udivmoddi4.o)
 .debug_aranges
                0x0000000000000b98       0x20 /usr/local/gnat-arm/bin/../lib/gcc/arm-eabi/7.3.1/thumb/v7e-m/fpv4-sp/hard/libgcc.a(unwind-arm.o)
 .debug_aranges
                0x0000000000000bb8       0x20 /usr/local/gnat-arm/bin/../lib/gcc/arm-eabi/7.3.1/thumb/v7e-m/fpv4-sp/hard/libgcc.a(libunwind.o)
 .debug_aranges
                0x0000000000000bd8       0x20 /usr/local/gnat-arm/bin/../lib/gcc/arm-eabi/7.3.1/thumb/v7e-m/fpv4-sp/hard/libgcc.a(pr-support.o)
 .debug_aranges
                0x0000000000000bf8       0x20 /usr/local/gnat-arm/bin/../lib/gcc/arm-eabi/7.3.1/thumb/v7e-m/fpv4-sp/hard/libgcc.a(_dvmd_tls.o)
 .debug_aranges
                0x0000000000000c18       0x20 /usr/local/gnat-arm/bin/../lib/gcc/arm-eabi/7.3.1/../../../../arm-eabi/lib/thumb/v7e-m/fpv4-sp/hard/libc.a(lib_a-errno.o)

.debug_pubnames
 *(.debug_pubnames)

.debug_info     0x0000000000000000    0x1ff2a
 *(.debug_info .gnu.linkonce.wi.*)
 .debug_info    0x0000000000000000       0x3b unit01.o
 .debug_info    0x000000000000003b      0x69e b__unit01.o
 .debug_info    0x00000000000006d9      0x383 /home/aquox/Scrivania/Arm/edf-ravenscar-arm/build/system.o
 .debug_info    0x0000000000000a5c      0x199 /home/aquox/Scrivania/Arm/edf-ravenscar-arm/build/s-bbpara.o
 .debug_info    0x0000000000000bf5       0x6d /home/aquox/Scrivania/Arm/edf-ravenscar-arm/build/s-multip.o
 .debug_info    0x0000000000000c62      0x52a /home/aquox/Scrivania/Arm/edf-ravenscar-arm/build/s-bbbosu.o
 .debug_info    0x000000000000118c       0x98 /home/aquox/Scrivania/Arm/edf-ravenscar-arm/build/s-bbdead.o
 .debug_info    0x0000000000001224      0x492 /home/aquox/Scrivania/Arm/edf-ravenscar-arm/build/s-bbtiev.o
 .debug_info    0x00000000000016b6      0x9f7 /home/aquox/Scrivania/Arm/edf-ravenscar-arm/build/s-bbthqu.o
 .debug_info    0x00000000000020ad       0x9c /home/aquox/Scrivania/Arm/edf-ravenscar-arm/build/s-bbprot.o
 .debug_info    0x0000000000002149      0x802 /home/aquox/Scrivania/Arm/edf-ravenscar-arm/build/s-bbthre.o
 .debug_info    0x000000000000294b      0x50a /home/aquox/Scrivania/Arm/edf-ravenscar-arm/build/s-bbinte.o
 .debug_info    0x0000000000002e55      0x701 /home/aquox/Scrivania/Arm/edf-ravenscar-arm/build/s-bbcppr.o
 .debug_info    0x0000000000003556      0x637 /home/aquox/Scrivania/Arm/edf-ravenscar-arm/build/s-osinte.o
 .debug_info    0x0000000000003b8d      0x38b /home/aquox/Scrivania/Arm/edf-ravenscar-arm/build/a-elchha.o
 .debug_info    0x0000000000003f18       0x56 /home/aquox/Scrivania/Arm/edf-ravenscar-arm/build/s-taspri.o
 .debug_info    0x0000000000003f6e      0x93f /home/aquox/Scrivania/Arm/edf-ravenscar-arm/build/s-tasdeb.o
 .debug_info    0x00000000000048ad      0xc14 /home/aquox/Scrivania/Arm/edf-ravenscar-arm/build/s-taskin.o
 .debug_info    0x00000000000054c1      0xc0b /home/aquox/Scrivania/Arm/edf-ravenscar-arm/build/s-soflin.o
 .debug_info    0x00000000000060cc      0xbaf /home/aquox/Scrivania/Arm/edf-ravenscar-arm/build/s-bbtime.o
 .debug_info    0x0000000000006c7b      0x213 /home/aquox/Scrivania/Arm/edf-ravenscar-arm/build/s-mufalo.o
 .debug_info    0x0000000000006e8e      0xfea /home/aquox/Scrivania/Arm/edf-ravenscar-arm/build/s-taprop.o
 .debug_info    0x0000000000007e78      0x8c9 /home/aquox/Scrivania/Arm/edf-ravenscar-arm/build/a-reatim.o
 .debug_info    0x0000000000008741      0x118 /home/aquox/Scrivania/Arm/edf-ravenscar-arm/build/a-retide.o
 .debug_info    0x0000000000008859      0xe15 /home/aquox/Scrivania/Arm/edf-ravenscar-arm/build/s-tarest.o
 .debug_info    0x000000000000966e       0xaa /home/aquox/Scrivania/Arm/edf-ravenscar-arm/build/system_time.o
 .debug_info    0x0000000000009718      0xb14 /home/aquox/Scrivania/Arm/edf-ravenscar-arm/build/print_task.o
 .debug_info    0x000000000000a22c      0xecc /home/aquox/Scrivania/Arm/edf-ravenscar-arm/build/cyclic_tasks.o
 .debug_info    0x000000000000b0f8     0x5c53 /usr/local/gnat-arm/arm-eabi/lib/gnat/ravenscar-full-stm32f429disco/adalib/libgnat.a(a-except.o)
 .debug_info    0x0000000000010d4b     0x3518 /usr/local/gnat-arm/arm-eabi/lib/gnat/ravenscar-full-stm32f429disco/adalib/libgnat.a(a-tags.o)
 .debug_info    0x0000000000014263      0x206 /usr/local/gnat-arm/arm-eabi/lib/gnat/ravenscar-full-stm32f429disco/adalib/libgnat.a(s-excdeb.o)
 .debug_info    0x0000000000014469      0x41d /usr/local/gnat-arm/arm-eabi/lib/gnat/ravenscar-full-stm32f429disco/adalib/libgnat.a(s-traceb.o)
 .debug_info    0x0000000000014886      0x91b /usr/local/gnat-arm/bin/../lib/gcc/arm-eabi/7.3.1/../../../../arm-eabi/lib/thumb/v7e-m/fpv4-sp/hard/libc.a(lib_a-malloc.o)
 .debug_info    0x00000000000151a1      0xde9 /usr/local/gnat-arm/bin/../lib/gcc/arm-eabi/7.3.1/../../../../arm-eabi/lib/thumb/v7e-m/fpv4-sp/hard/libc.a(lib_a-mallocr.o)
 .debug_info    0x0000000000015f8a      0x912 /usr/local/gnat-arm/bin/../lib/gcc/arm-eabi/7.3.1/../../../../arm-eabi/lib/thumb/v7e-m/fpv4-sp/hard/libc.a(lib_a-memcmp.o)
 .debug_info    0x000000000001689c       0x26 /usr/local/gnat-arm/bin/../lib/gcc/arm-eabi/7.3.1/../../../../arm-eabi/lib/thumb/v7e-m/fpv4-sp/hard/libc.a(lib_a-memcpy.o)
 .debug_info    0x00000000000168c2      0x923 /usr/local/gnat-arm/bin/../lib/gcc/arm-eabi/7.3.1/../../../../arm-eabi/lib/thumb/v7e-m/fpv4-sp/hard/libc.a(lib_a-memmove.o)
 .debug_info    0x00000000000171e5      0x914 /usr/local/gnat-arm/bin/../lib/gcc/arm-eabi/7.3.1/../../../../arm-eabi/lib/thumb/v7e-m/fpv4-sp/hard/libc.a(lib_a-memset.o)
 .debug_info    0x0000000000017af9      0x8d1 /usr/local/gnat-arm/bin/../lib/gcc/arm-eabi/7.3.1/../../../../arm-eabi/lib/thumb/v7e-m/fpv4-sp/hard/libc.a(lib_a-mlock.o)
 .debug_info    0x00000000000183ca      0x8ef /usr/local/gnat-arm/bin/../lib/gcc/arm-eabi/7.3.1/../../../../arm-eabi/lib/thumb/v7e-m/fpv4-sp/hard/libc.a(lib_a-realloc.o)
 .debug_info    0x0000000000018cb9      0xdc4 /usr/local/gnat-arm/bin/../lib/gcc/arm-eabi/7.3.1/../../../../arm-eabi/lib/thumb/v7e-m/fpv4-sp/hard/libc.a(lib_a-reallocr.o)
 .debug_info    0x0000000000019a7d      0x953 /usr/local/gnat-arm/bin/../lib/gcc/arm-eabi/7.3.1/../../../../arm-eabi/lib/thumb/v7e-m/fpv4-sp/hard/libc.a(lib_a-sbrkr.o)
 .debug_info    0x000000000001a3d0      0xcb7 /usr/local/gnat-arm/bin/../lib/gcc/arm-eabi/7.3.1/../../../../arm-eabi/lib/thumb/v7e-m/fpv4-sp/hard/libc.a(lib_a-freer.o)
 .debug_info    0x000000000001b087      0x89e /usr/local/gnat-arm/bin/../lib/gcc/arm-eabi/7.3.1/../../../../arm-eabi/lib/thumb/v7e-m/fpv4-sp/hard/libc.a(lib_a-impure.o)
 .debug_info    0x000000000001b925      0xa22 /usr/local/gnat-arm/bin/../lib/gcc/arm-eabi/7.3.1/../../../../arm-eabi/lib/thumb/v7e-m/fpv4-sp/hard/libc.a(lib_a-reent.o)
 .debug_info    0x000000000001c347       0x26 /usr/local/gnat-arm/bin/../lib/gcc/arm-eabi/7.3.1/thumb/v7e-m/fpv4-sp/hard/libgcc.a(_aeabi_ldivmod.o)
 .debug_info    0x000000000001c36d       0x26 /usr/local/gnat-arm/bin/../lib/gcc/arm-eabi/7.3.1/thumb/v7e-m/fpv4-sp/hard/libgcc.a(_aeabi_uldivmod.o)
 .debug_info    0x000000000001c393      0xcff /usr/local/gnat-arm/bin/../lib/gcc/arm-eabi/7.3.1/thumb/v7e-m/fpv4-sp/hard/libgcc.a(_udivmoddi4.o)
 .debug_info    0x000000000001d092     0x1bea /usr/local/gnat-arm/bin/../lib/gcc/arm-eabi/7.3.1/thumb/v7e-m/fpv4-sp/hard/libgcc.a(unwind-arm.o)
 .debug_info    0x000000000001ec7c       0x26 /usr/local/gnat-arm/bin/../lib/gcc/arm-eabi/7.3.1/thumb/v7e-m/fpv4-sp/hard/libgcc.a(libunwind.o)
 .debug_info    0x000000000001eca2      0x99d /usr/local/gnat-arm/bin/../lib/gcc/arm-eabi/7.3.1/thumb/v7e-m/fpv4-sp/hard/libgcc.a(pr-support.o)
 .debug_info    0x000000000001f63f       0x26 /usr/local/gnat-arm/bin/../lib/gcc/arm-eabi/7.3.1/thumb/v7e-m/fpv4-sp/hard/libgcc.a(_dvmd_tls.o)
 .debug_info    0x000000000001f665      0x8c5 /usr/local/gnat-arm/bin/../lib/gcc/arm-eabi/7.3.1/../../../../arm-eabi/lib/thumb/v7e-m/fpv4-sp/hard/libc.a(lib_a-errno.o)

.debug_abbrev   0x0000000000000000     0x6956
 *(.debug_abbrev)
 .debug_abbrev  0x0000000000000000       0x2c unit01.o
 .debug_abbrev  0x000000000000002c      0x262 b__unit01.o
 .debug_abbrev  0x000000000000028e       0x9b /home/aquox/Scrivania/Arm/edf-ravenscar-arm/build/system.o
 .debug_abbrev  0x0000000000000329       0x7c /home/aquox/Scrivania/Arm/edf-ravenscar-arm/build/s-bbpara.o
 .debug_abbrev  0x00000000000003a5       0x69 /home/aquox/Scrivania/Arm/edf-ravenscar-arm/build/s-multip.o
 .debug_abbrev  0x000000000000040e      0x240 /home/aquox/Scrivania/Arm/edf-ravenscar-arm/build/s-bbbosu.o
 .debug_abbrev  0x000000000000064e       0x5a /home/aquox/Scrivania/Arm/edf-ravenscar-arm/build/s-bbdead.o
 .debug_abbrev  0x00000000000006a8      0x24e /home/aquox/Scrivania/Arm/edf-ravenscar-arm/build/s-bbtiev.o
 .debug_abbrev  0x00000000000008f6      0x2a7 /home/aquox/Scrivania/Arm/edf-ravenscar-arm/build/s-bbthqu.o
 .debug_abbrev  0x0000000000000b9d       0x65 /home/aquox/Scrivania/Arm/edf-ravenscar-arm/build/s-bbprot.o
 .debug_abbrev  0x0000000000000c02      0x27a /home/aquox/Scrivania/Arm/edf-ravenscar-arm/build/s-bbthre.o
 .debug_abbrev  0x0000000000000e7c      0x1ff /home/aquox/Scrivania/Arm/edf-ravenscar-arm/build/s-bbinte.o
 .debug_abbrev  0x000000000000107b      0x280 /home/aquox/Scrivania/Arm/edf-ravenscar-arm/build/s-bbcppr.o
 .debug_abbrev  0x00000000000012fb      0x1bc /home/aquox/Scrivania/Arm/edf-ravenscar-arm/build/s-osinte.o
 .debug_abbrev  0x00000000000014b7      0x1aa /home/aquox/Scrivania/Arm/edf-ravenscar-arm/build/a-elchha.o
 .debug_abbrev  0x0000000000001661       0x28 /home/aquox/Scrivania/Arm/edf-ravenscar-arm/build/s-taspri.o
 .debug_abbrev  0x0000000000001689      0x2a3 /home/aquox/Scrivania/Arm/edf-ravenscar-arm/build/s-tasdeb.o
 .debug_abbrev  0x000000000000192c      0x384 /home/aquox/Scrivania/Arm/edf-ravenscar-arm/build/s-taskin.o
 .debug_abbrev  0x0000000000001cb0      0x34a /home/aquox/Scrivania/Arm/edf-ravenscar-arm/build/s-soflin.o
 .debug_abbrev  0x0000000000001ffa      0x2ad /home/aquox/Scrivania/Arm/edf-ravenscar-arm/build/s-bbtime.o
 .debug_abbrev  0x00000000000022a7      0x104 /home/aquox/Scrivania/Arm/edf-ravenscar-arm/build/s-mufalo.o
 .debug_abbrev  0x00000000000023ab      0x471 /home/aquox/Scrivania/Arm/edf-ravenscar-arm/build/s-taprop.o
 .debug_abbrev  0x000000000000281c      0x1ce /home/aquox/Scrivania/Arm/edf-ravenscar-arm/build/a-reatim.o
 .debug_abbrev  0x00000000000029ea       0x9d /home/aquox/Scrivania/Arm/edf-ravenscar-arm/build/a-retide.o
 .debug_abbrev  0x0000000000002a87      0x3db /home/aquox/Scrivania/Arm/edf-ravenscar-arm/build/s-tarest.o
 .debug_abbrev  0x0000000000002e62       0x7e /home/aquox/Scrivania/Arm/edf-ravenscar-arm/build/system_time.o
 .debug_abbrev  0x0000000000002ee0      0x343 /home/aquox/Scrivania/Arm/edf-ravenscar-arm/build/print_task.o
 .debug_abbrev  0x0000000000003223      0x37f /home/aquox/Scrivania/Arm/edf-ravenscar-arm/build/cyclic_tasks.o
 .debug_abbrev  0x00000000000035a2      0x696 /usr/local/gnat-arm/arm-eabi/lib/gnat/ravenscar-full-stm32f429disco/adalib/libgnat.a(a-except.o)
 .debug_abbrev  0x0000000000003c38      0x6de /usr/local/gnat-arm/arm-eabi/lib/gnat/ravenscar-full-stm32f429disco/adalib/libgnat.a(a-tags.o)
 .debug_abbrev  0x0000000000004316      0x120 /usr/local/gnat-arm/arm-eabi/lib/gnat/ravenscar-full-stm32f429disco/adalib/libgnat.a(s-excdeb.o)
 .debug_abbrev  0x0000000000004436      0x233 /usr/local/gnat-arm/arm-eabi/lib/gnat/ravenscar-full-stm32f429disco/adalib/libgnat.a(s-traceb.o)
 .debug_abbrev  0x0000000000004669      0x1f6 /usr/local/gnat-arm/bin/../lib/gcc/arm-eabi/7.3.1/../../../../arm-eabi/lib/thumb/v7e-m/fpv4-sp/hard/libc.a(lib_a-malloc.o)
 .debug_abbrev  0x000000000000485f      0x2c4 /usr/local/gnat-arm/bin/../lib/gcc/arm-eabi/7.3.1/../../../../arm-eabi/lib/thumb/v7e-m/fpv4-sp/hard/libc.a(lib_a-mallocr.o)
 .debug_abbrev  0x0000000000004b23      0x1b4 /usr/local/gnat-arm/bin/../lib/gcc/arm-eabi/7.3.1/../../../../arm-eabi/lib/thumb/v7e-m/fpv4-sp/hard/libc.a(lib_a-memcmp.o)
 .debug_abbrev  0x0000000000004cd7       0x14 /usr/local/gnat-arm/bin/../lib/gcc/arm-eabi/7.3.1/../../../../arm-eabi/lib/thumb/v7e-m/fpv4-sp/hard/libc.a(lib_a-memcpy.o)
 .debug_abbrev  0x0000000000004ceb      0x1d2 /usr/local/gnat-arm/bin/../lib/gcc/arm-eabi/7.3.1/../../../../arm-eabi/lib/thumb/v7e-m/fpv4-sp/hard/libc.a(lib_a-memmove.o)
 .debug_abbrev  0x0000000000004ebd      0x1cd /usr/local/gnat-arm/bin/../lib/gcc/arm-eabi/7.3.1/../../../../arm-eabi/lib/thumb/v7e-m/fpv4-sp/hard/libc.a(lib_a-memset.o)
 .debug_abbrev  0x000000000000508a      0x1ca /usr/local/gnat-arm/bin/../lib/gcc/arm-eabi/7.3.1/../../../../arm-eabi/lib/thumb/v7e-m/fpv4-sp/hard/libc.a(lib_a-mlock.o)
 .debug_abbrev  0x0000000000005254      0x1eb /usr/local/gnat-arm/bin/../lib/gcc/arm-eabi/7.3.1/../../../../arm-eabi/lib/thumb/v7e-m/fpv4-sp/hard/libc.a(lib_a-realloc.o)
 .debug_abbrev  0x000000000000543f      0x260 /usr/local/gnat-arm/bin/../lib/gcc/arm-eabi/7.3.1/../../../../arm-eabi/lib/thumb/v7e-m/fpv4-sp/hard/libc.a(lib_a-reallocr.o)
 .debug_abbrev  0x000000000000569f      0x20c /usr/local/gnat-arm/bin/../lib/gcc/arm-eabi/7.3.1/../../../../arm-eabi/lib/thumb/v7e-m/fpv4-sp/hard/libc.a(lib_a-sbrkr.o)
 .debug_abbrev  0x00000000000058ab      0x288 /usr/local/gnat-arm/bin/../lib/gcc/arm-eabi/7.3.1/../../../../arm-eabi/lib/thumb/v7e-m/fpv4-sp/hard/libc.a(lib_a-freer.o)
 .debug_abbrev  0x0000000000005b33      0x189 /usr/local/gnat-arm/bin/../lib/gcc/arm-eabi/7.3.1/../../../../arm-eabi/lib/thumb/v7e-m/fpv4-sp/hard/libc.a(lib_a-impure.o)
 .debug_abbrev  0x0000000000005cbc      0x288 /usr/local/gnat-arm/bin/../lib/gcc/arm-eabi/7.3.1/../../../../arm-eabi/lib/thumb/v7e-m/fpv4-sp/hard/libc.a(lib_a-reent.o)
 .debug_abbrev  0x0000000000005f44       0x14 /usr/local/gnat-arm/bin/../lib/gcc/arm-eabi/7.3.1/thumb/v7e-m/fpv4-sp/hard/libgcc.a(_aeabi_ldivmod.o)
 .debug_abbrev  0x0000000000005f58       0x14 /usr/local/gnat-arm/bin/../lib/gcc/arm-eabi/7.3.1/thumb/v7e-m/fpv4-sp/hard/libgcc.a(_aeabi_uldivmod.o)
 .debug_abbrev  0x0000000000005f6c      0x199 /usr/local/gnat-arm/bin/../lib/gcc/arm-eabi/7.3.1/thumb/v7e-m/fpv4-sp/hard/libgcc.a(_udivmoddi4.o)
 .debug_abbrev  0x0000000000006105      0x407 /usr/local/gnat-arm/bin/../lib/gcc/arm-eabi/7.3.1/thumb/v7e-m/fpv4-sp/hard/libgcc.a(unwind-arm.o)
 .debug_abbrev  0x000000000000650c       0x14 /usr/local/gnat-arm/bin/../lib/gcc/arm-eabi/7.3.1/thumb/v7e-m/fpv4-sp/hard/libgcc.a(libunwind.o)
 .debug_abbrev  0x0000000000006520      0x27d /usr/local/gnat-arm/bin/../lib/gcc/arm-eabi/7.3.1/thumb/v7e-m/fpv4-sp/hard/libgcc.a(pr-support.o)
 .debug_abbrev  0x000000000000679d       0x14 /usr/local/gnat-arm/bin/../lib/gcc/arm-eabi/7.3.1/thumb/v7e-m/fpv4-sp/hard/libgcc.a(_dvmd_tls.o)
 .debug_abbrev  0x00000000000067b1      0x1a5 /usr/local/gnat-arm/bin/../lib/gcc/arm-eabi/7.3.1/../../../../arm-eabi/lib/thumb/v7e-m/fpv4-sp/hard/libc.a(lib_a-errno.o)

.debug_line     0x0000000000000000     0x7d61
 *(.debug_line)
 .debug_line    0x0000000000000000       0x69 unit01.o
 .debug_line    0x0000000000000069      0x114 b__unit01.o
 .debug_line    0x000000000000017d       0x74 /home/aquox/Scrivania/Arm/edf-ravenscar-arm/build/system.o
 .debug_line    0x00000000000001f1        0x0 /home/aquox/Scrivania/Arm/edf-ravenscar-arm/build/s-bb.o
 .debug_line    0x00000000000001f1       0xbe /home/aquox/Scrivania/Arm/edf-ravenscar-arm/build/s-bbpara.o
 .debug_line    0x00000000000002af       0x86 /home/aquox/Scrivania/Arm/edf-ravenscar-arm/build/s-multip.o
 .debug_line    0x0000000000000335      0x224 /home/aquox/Scrivania/Arm/edf-ravenscar-arm/build/s-bbbosu.o
 .debug_line    0x0000000000000559       0x66 /home/aquox/Scrivania/Arm/edf-ravenscar-arm/build/s-bbdead.o
 .debug_line    0x00000000000005bf      0x283 /home/aquox/Scrivania/Arm/edf-ravenscar-arm/build/s-bbtiev.o
 .debug_line    0x0000000000000842      0x821 /home/aquox/Scrivania/Arm/edf-ravenscar-arm/build/s-bbthqu.o
 .debug_line    0x0000000000001063       0xa6 /home/aquox/Scrivania/Arm/edf-ravenscar-arm/build/s-bbprot.o
 .debug_line    0x0000000000001109      0x450 /home/aquox/Scrivania/Arm/edf-ravenscar-arm/build/s-bbthre.o
 .debug_line    0x0000000000001559      0x1bf /home/aquox/Scrivania/Arm/edf-ravenscar-arm/build/s-bbinte.o
 .debug_line    0x0000000000001718      0x1c9 /home/aquox/Scrivania/Arm/edf-ravenscar-arm/build/s-bbcppr.o
 .debug_line    0x00000000000018e1       0xc6 /home/aquox/Scrivania/Arm/edf-ravenscar-arm/build/s-osinte.o
 .debug_line    0x00000000000019a7      0x17d /home/aquox/Scrivania/Arm/edf-ravenscar-arm/build/a-elchha.o
 .debug_line    0x0000000000001b24       0x1d /home/aquox/Scrivania/Arm/edf-ravenscar-arm/build/s-taspri.o
 .debug_line    0x0000000000001b41      0x19d /home/aquox/Scrivania/Arm/edf-ravenscar-arm/build/s-tasdeb.o
 .debug_line    0x0000000000001cde      0x293 /home/aquox/Scrivania/Arm/edf-ravenscar-arm/build/s-taskin.o
 .debug_line    0x0000000000001f71      0x220 /home/aquox/Scrivania/Arm/edf-ravenscar-arm/build/s-soflin.o
 .debug_line    0x0000000000002191      0x3cb /home/aquox/Scrivania/Arm/edf-ravenscar-arm/build/s-bbtime.o
 .debug_line    0x000000000000255c      0x11e /home/aquox/Scrivania/Arm/edf-ravenscar-arm/build/s-mufalo.o
 .debug_line    0x000000000000267a      0x361 /home/aquox/Scrivania/Arm/edf-ravenscar-arm/build/s-taprop.o
 .debug_line    0x00000000000029db      0x271 /home/aquox/Scrivania/Arm/edf-ravenscar-arm/build/a-reatim.o
 .debug_line    0x0000000000002c4c       0x9a /home/aquox/Scrivania/Arm/edf-ravenscar-arm/build/a-retide.o
 .debug_line    0x0000000000002ce6        0x0 /home/aquox/Scrivania/Arm/edf-ravenscar-arm/build/s-tasres.o
 .debug_line    0x0000000000002ce6      0x327 /home/aquox/Scrivania/Arm/edf-ravenscar-arm/build/s-tarest.o
 .debug_line    0x000000000000300d       0xba /home/aquox/Scrivania/Arm/edf-ravenscar-arm/build/system_time.o
 .debug_line    0x00000000000030c7      0x263 /home/aquox/Scrivania/Arm/edf-ravenscar-arm/build/print_task.o
 .debug_line    0x000000000000332a      0x2d6 /home/aquox/Scrivania/Arm/edf-ravenscar-arm/build/cyclic_tasks.o
 .debug_line    0x0000000000003600     0x116b /usr/local/gnat-arm/arm-eabi/lib/gnat/ravenscar-full-stm32f429disco/adalib/libgnat.a(a-except.o)
 .debug_line    0x000000000000476b      0xac7 /usr/local/gnat-arm/arm-eabi/lib/gnat/ravenscar-full-stm32f429disco/adalib/libgnat.a(a-tags.o)
 .debug_line    0x0000000000005232      0x118 /usr/local/gnat-arm/arm-eabi/lib/gnat/ravenscar-full-stm32f429disco/adalib/libgnat.a(s-excdeb.o)
 .debug_line    0x000000000000534a      0x258 /usr/local/gnat-arm/arm-eabi/lib/gnat/ravenscar-full-stm32f429disco/adalib/libgnat.a(s-traceb.o)
 .debug_line    0x00000000000055a2      0x1de /usr/local/gnat-arm/bin/../lib/gcc/arm-eabi/7.3.1/../../../../arm-eabi/lib/thumb/v7e-m/fpv4-sp/hard/libc.a(lib_a-malloc.o)
 .debug_line    0x0000000000005780      0x41e /usr/local/gnat-arm/bin/../lib/gcc/arm-eabi/7.3.1/../../../../arm-eabi/lib/thumb/v7e-m/fpv4-sp/hard/libc.a(lib_a-mallocr.o)
 .debug_line    0x0000000000005b9e      0x1f2 /usr/local/gnat-arm/bin/../lib/gcc/arm-eabi/7.3.1/../../../../arm-eabi/lib/thumb/v7e-m/fpv4-sp/hard/libc.a(lib_a-memcmp.o)
 .debug_line    0x0000000000005d90       0xc5 /usr/local/gnat-arm/bin/../lib/gcc/arm-eabi/7.3.1/../../../../arm-eabi/lib/thumb/v7e-m/fpv4-sp/hard/libc.a(lib_a-memcpy.o)
 .debug_line    0x0000000000005e55      0x207 /usr/local/gnat-arm/bin/../lib/gcc/arm-eabi/7.3.1/../../../../arm-eabi/lib/thumb/v7e-m/fpv4-sp/hard/libc.a(lib_a-memmove.o)
 .debug_line    0x000000000000605c      0x201 /usr/local/gnat-arm/bin/../lib/gcc/arm-eabi/7.3.1/../../../../arm-eabi/lib/thumb/v7e-m/fpv4-sp/hard/libc.a(lib_a-memset.o)
 .debug_line    0x000000000000625d      0x163 /usr/local/gnat-arm/bin/../lib/gcc/arm-eabi/7.3.1/../../../../arm-eabi/lib/thumb/v7e-m/fpv4-sp/hard/libc.a(lib_a-mlock.o)
 .debug_line    0x00000000000063c0      0x1dc /usr/local/gnat-arm/bin/../lib/gcc/arm-eabi/7.3.1/../../../../arm-eabi/lib/thumb/v7e-m/fpv4-sp/hard/libc.a(lib_a-realloc.o)
 .debug_line    0x000000000000659c      0x2d8 /usr/local/gnat-arm/bin/../lib/gcc/arm-eabi/7.3.1/../../../../arm-eabi/lib/thumb/v7e-m/fpv4-sp/hard/libc.a(lib_a-reallocr.o)
 .debug_line    0x0000000000006874      0x1e4 /usr/local/gnat-arm/bin/../lib/gcc/arm-eabi/7.3.1/../../../../arm-eabi/lib/thumb/v7e-m/fpv4-sp/hard/libc.a(lib_a-sbrkr.o)
 .debug_line    0x0000000000006a58      0x2ff /usr/local/gnat-arm/bin/../lib/gcc/arm-eabi/7.3.1/../../../../arm-eabi/lib/thumb/v7e-m/fpv4-sp/hard/libc.a(lib_a-freer.o)
 .debug_line    0x0000000000006d57      0x153 /usr/local/gnat-arm/bin/../lib/gcc/arm-eabi/7.3.1/../../../../arm-eabi/lib/thumb/v7e-m/fpv4-sp/hard/libc.a(lib_a-impure.o)
 .debug_line    0x0000000000006eaa      0x206 /usr/local/gnat-arm/bin/../lib/gcc/arm-eabi/7.3.1/../../../../arm-eabi/lib/thumb/v7e-m/fpv4-sp/hard/libc.a(lib_a-reent.o)
 .debug_line    0x00000000000070b0       0x85 /usr/local/gnat-arm/bin/../lib/gcc/arm-eabi/7.3.1/thumb/v7e-m/fpv4-sp/hard/libgcc.a(_aeabi_ldivmod.o)
 .debug_line    0x0000000000007135       0x67 /usr/local/gnat-arm/bin/../lib/gcc/arm-eabi/7.3.1/thumb/v7e-m/fpv4-sp/hard/libgcc.a(_aeabi_uldivmod.o)
 .debug_line    0x000000000000719c      0x267 /usr/local/gnat-arm/bin/../lib/gcc/arm-eabi/7.3.1/thumb/v7e-m/fpv4-sp/hard/libgcc.a(_udivmoddi4.o)
 .debug_line    0x0000000000007403      0x4ee /usr/local/gnat-arm/bin/../lib/gcc/arm-eabi/7.3.1/thumb/v7e-m/fpv4-sp/hard/libgcc.a(unwind-arm.o)
 .debug_line    0x00000000000078f1       0xb4 /usr/local/gnat-arm/bin/../lib/gcc/arm-eabi/7.3.1/thumb/v7e-m/fpv4-sp/hard/libgcc.a(libunwind.o)
 .debug_line    0x00000000000079a5      0x1e7 /usr/local/gnat-arm/bin/../lib/gcc/arm-eabi/7.3.1/thumb/v7e-m/fpv4-sp/hard/libgcc.a(pr-support.o)
 .debug_line    0x0000000000007b8c       0x67 /usr/local/gnat-arm/bin/../lib/gcc/arm-eabi/7.3.1/thumb/v7e-m/fpv4-sp/hard/libgcc.a(_dvmd_tls.o)
 .debug_line    0x0000000000007bf3      0x16e /usr/local/gnat-arm/bin/../lib/gcc/arm-eabi/7.3.1/../../../../arm-eabi/lib/thumb/v7e-m/fpv4-sp/hard/libc.a(lib_a-errno.o)

.debug_frame    0x0000000000000000     0x44d4
 *(.debug_frame)
 .debug_frame   0x0000000000000000       0x2c unit01.o
 .debug_frame   0x000000000000002c       0xb8 b__unit01.o
 .debug_frame   0x00000000000000e4       0x2c /home/aquox/Scrivania/Arm/edf-ravenscar-arm/build/s-multip.o
 .debug_frame   0x0000000000000110      0x2f4 /home/aquox/Scrivania/Arm/edf-ravenscar-arm/build/s-bbbosu.o
 .debug_frame   0x0000000000000404      0x218 /home/aquox/Scrivania/Arm/edf-ravenscar-arm/build/s-bbtiev.o
 .debug_frame   0x000000000000061c      0x43c /home/aquox/Scrivania/Arm/edf-ravenscar-arm/build/s-bbthqu.o
 .debug_frame   0x0000000000000a58       0x48 /home/aquox/Scrivania/Arm/edf-ravenscar-arm/build/s-bbprot.o
 .debug_frame   0x0000000000000aa0      0x318 /home/aquox/Scrivania/Arm/edf-ravenscar-arm/build/s-bbthre.o
 .debug_frame   0x0000000000000db8      0x118 /home/aquox/Scrivania/Arm/edf-ravenscar-arm/build/s-bbinte.o
 .debug_frame   0x0000000000000ed0      0x244 /home/aquox/Scrivania/Arm/edf-ravenscar-arm/build/s-bbcppr.o
 .debug_frame   0x0000000000001114       0x84 /home/aquox/Scrivania/Arm/edf-ravenscar-arm/build/a-elchha.o
 .debug_frame   0x0000000000001198       0x34 /home/aquox/Scrivania/Arm/edf-ravenscar-arm/build/s-taspri.o
 .debug_frame   0x00000000000011cc       0x34 /home/aquox/Scrivania/Arm/edf-ravenscar-arm/build/s-tasdeb.o
 .debug_frame   0x0000000000001200      0x15c /home/aquox/Scrivania/Arm/edf-ravenscar-arm/build/s-taskin.o
 .debug_frame   0x000000000000135c      0x138 /home/aquox/Scrivania/Arm/edf-ravenscar-arm/build/s-soflin.o
 .debug_frame   0x0000000000001494      0x4a8 /home/aquox/Scrivania/Arm/edf-ravenscar-arm/build/s-bbtime.o
 .debug_frame   0x000000000000193c      0x134 /home/aquox/Scrivania/Arm/edf-ravenscar-arm/build/s-mufalo.o
 .debug_frame   0x0000000000001a70      0x3cc /home/aquox/Scrivania/Arm/edf-ravenscar-arm/build/s-taprop.o
 .debug_frame   0x0000000000001e3c      0x3e0 /home/aquox/Scrivania/Arm/edf-ravenscar-arm/build/a-reatim.o
 .debug_frame   0x000000000000221c       0x5c /home/aquox/Scrivania/Arm/edf-ravenscar-arm/build/a-retide.o
 .debug_frame   0x0000000000002278      0x1b0 /home/aquox/Scrivania/Arm/edf-ravenscar-arm/build/s-tarest.o
 .debug_frame   0x0000000000002428       0x30 /home/aquox/Scrivania/Arm/edf-ravenscar-arm/build/system_time.o
 .debug_frame   0x0000000000002458       0xb8 /home/aquox/Scrivania/Arm/edf-ravenscar-arm/build/print_task.o
 .debug_frame   0x0000000000002510      0x10c /home/aquox/Scrivania/Arm/edf-ravenscar-arm/build/cyclic_tasks.o
 .debug_frame   0x000000000000261c     0x1004 /usr/local/gnat-arm/arm-eabi/lib/gnat/ravenscar-full-stm32f429disco/adalib/libgnat.a(a-except.o)
 .debug_frame   0x0000000000003620      0x600 /usr/local/gnat-arm/arm-eabi/lib/gnat/ravenscar-full-stm32f429disco/adalib/libgnat.a(a-tags.o)
 .debug_frame   0x0000000000003c20       0xa8 /usr/local/gnat-arm/arm-eabi/lib/gnat/ravenscar-full-stm32f429disco/adalib/libgnat.a(s-excdeb.o)
 .debug_frame   0x0000000000003cc8       0x78 /usr/local/gnat-arm/arm-eabi/lib/gnat/ravenscar-full-stm32f429disco/adalib/libgnat.a(s-traceb.o)
 .debug_frame   0x0000000000003d40       0x30 /usr/local/gnat-arm/bin/../lib/gcc/arm-eabi/7.3.1/../../../../arm-eabi/lib/thumb/v7e-m/fpv4-sp/hard/libc.a(lib_a-malloc.o)
 .debug_frame   0x0000000000003d70       0x54 /usr/local/gnat-arm/bin/../lib/gcc/arm-eabi/7.3.1/../../../../arm-eabi/lib/thumb/v7e-m/fpv4-sp/hard/libc.a(lib_a-mallocr.o)
 .debug_frame   0x0000000000003dc4       0x38 /usr/local/gnat-arm/bin/../lib/gcc/arm-eabi/7.3.1/../../../../arm-eabi/lib/thumb/v7e-m/fpv4-sp/hard/libc.a(lib_a-memcmp.o)
 .debug_frame   0x0000000000003dfc       0x40 /usr/local/gnat-arm/bin/../lib/gcc/arm-eabi/7.3.1/../../../../arm-eabi/lib/thumb/v7e-m/fpv4-sp/hard/libc.a(lib_a-memmove.o)
 .debug_frame   0x0000000000003e3c       0x38 /usr/local/gnat-arm/bin/../lib/gcc/arm-eabi/7.3.1/../../../../arm-eabi/lib/thumb/v7e-m/fpv4-sp/hard/libc.a(lib_a-memset.o)
 .debug_frame   0x0000000000003e74       0x30 /usr/local/gnat-arm/bin/../lib/gcc/arm-eabi/7.3.1/../../../../arm-eabi/lib/thumb/v7e-m/fpv4-sp/hard/libc.a(lib_a-mlock.o)
 .debug_frame   0x0000000000003ea4       0x20 /usr/local/gnat-arm/bin/../lib/gcc/arm-eabi/7.3.1/../../../../arm-eabi/lib/thumb/v7e-m/fpv4-sp/hard/libc.a(lib_a-realloc.o)
 .debug_frame   0x0000000000003ec4       0x58 /usr/local/gnat-arm/bin/../lib/gcc/arm-eabi/7.3.1/../../../../arm-eabi/lib/thumb/v7e-m/fpv4-sp/hard/libc.a(lib_a-reallocr.o)
 .debug_frame   0x0000000000003f1c       0x2c /usr/local/gnat-arm/bin/../lib/gcc/arm-eabi/7.3.1/../../../../arm-eabi/lib/thumb/v7e-m/fpv4-sp/hard/libc.a(lib_a-sbrkr.o)
 .debug_frame   0x0000000000003f48       0x80 /usr/local/gnat-arm/bin/../lib/gcc/arm-eabi/7.3.1/../../../../arm-eabi/lib/thumb/v7e-m/fpv4-sp/hard/libc.a(lib_a-freer.o)
 .debug_frame   0x0000000000003fc8       0x68 /usr/local/gnat-arm/bin/../lib/gcc/arm-eabi/7.3.1/../../../../arm-eabi/lib/thumb/v7e-m/fpv4-sp/hard/libc.a(lib_a-reent.o)
 .debug_frame   0x0000000000004030       0x44 /usr/local/gnat-arm/bin/../lib/gcc/arm-eabi/7.3.1/thumb/v7e-m/fpv4-sp/hard/libgcc.a(_aeabi_ldivmod.o)
 .debug_frame   0x0000000000004074       0x2c /usr/local/gnat-arm/bin/../lib/gcc/arm-eabi/7.3.1/thumb/v7e-m/fpv4-sp/hard/libgcc.a(_aeabi_uldivmod.o)
 .debug_frame   0x00000000000040a0       0x34 /usr/local/gnat-arm/bin/../lib/gcc/arm-eabi/7.3.1/thumb/v7e-m/fpv4-sp/hard/libgcc.a(_udivmoddi4.o)
 .debug_frame   0x00000000000040d4      0x2dc /usr/local/gnat-arm/bin/../lib/gcc/arm-eabi/7.3.1/thumb/v7e-m/fpv4-sp/hard/libgcc.a(unwind-arm.o)
 .debug_frame   0x00000000000043b0      0x104 /usr/local/gnat-arm/bin/../lib/gcc/arm-eabi/7.3.1/thumb/v7e-m/fpv4-sp/hard/libgcc.a(pr-support.o)
 .debug_frame   0x00000000000044b4       0x20 /usr/local/gnat-arm/bin/../lib/gcc/arm-eabi/7.3.1/../../../../arm-eabi/lib/thumb/v7e-m/fpv4-sp/hard/libc.a(lib_a-errno.o)

.debug_str      0x0000000000000000    0x133f2
 *(.debug_str)
 .debug_str     0x0000000000000000      0x1a6 unit01.o
                                        0x1ad (size before relaxing)
 .debug_str     0x00000000000001a6      0xb88 b__unit01.o
                                        0xd1a (size before relaxing)
 .debug_str     0x0000000000000d2e      0x490 /home/aquox/Scrivania/Arm/edf-ravenscar-arm/build/system.o
                                        0x61a (size before relaxing)
 .debug_str     0x00000000000011be       0x42 /home/aquox/Scrivania/Arm/edf-ravenscar-arm/build/s-bb.o
                                        0x1a1 (size before relaxing)
 .debug_str     0x0000000000001200      0x2e7 /home/aquox/Scrivania/Arm/edf-ravenscar-arm/build/s-bbpara.o
                                        0x45c (size before relaxing)
 .debug_str     0x00000000000014e7      0x117 /home/aquox/Scrivania/Arm/edf-ravenscar-arm/build/s-multip.o
                                        0x276 (size before relaxing)
 .debug_str     0x00000000000015fe      0x822 /home/aquox/Scrivania/Arm/edf-ravenscar-arm/build/s-bbbosu.o
                                        0xa3a (size before relaxing)
 .debug_str     0x0000000000001e20      0x14d /home/aquox/Scrivania/Arm/edf-ravenscar-arm/build/s-bbdead.o
                                        0x2c3 (size before relaxing)
 .debug_str     0x0000000000001f6d      0x43c /home/aquox/Scrivania/Arm/edf-ravenscar-arm/build/s-bbtiev.o
                                        0x668 (size before relaxing)
 .debug_str     0x00000000000023a9      0xab2 /home/aquox/Scrivania/Arm/edf-ravenscar-arm/build/s-bbthqu.o
                                        0xe50 (size before relaxing)
 .debug_str     0x0000000000002e5b       0xe1 /home/aquox/Scrivania/Arm/edf-ravenscar-arm/build/s-bbprot.o
                                        0x2fa (size before relaxing)
 .debug_str     0x0000000000002f3c      0x412 /home/aquox/Scrivania/Arm/edf-ravenscar-arm/build/s-bbthre.o
                                        0xad4 (size before relaxing)
 .debug_str     0x000000000000334e      0x35d /home/aquox/Scrivania/Arm/edf-ravenscar-arm/build/s-bbinte.o
                                        0xa03 (size before relaxing)
 .debug_str     0x00000000000036ab      0x947 /home/aquox/Scrivania/Arm/edf-ravenscar-arm/build/s-bbcppr.o
                                        0xd0d (size before relaxing)
 .debug_str     0x0000000000003ff2      0x4b5 /home/aquox/Scrivania/Arm/edf-ravenscar-arm/build/s-osinte.o
                                        0xeb4 (size before relaxing)
 .debug_str     0x00000000000044a7      0x476 /home/aquox/Scrivania/Arm/edf-ravenscar-arm/build/a-elchha.o
                                        0x734 (size before relaxing)
 .debug_str     0x000000000000491d       0x46 /home/aquox/Scrivania/Arm/edf-ravenscar-arm/build/s-taspri.o
                                        0x25f (size before relaxing)
 .debug_str     0x0000000000004963      0x6e3 /home/aquox/Scrivania/Arm/edf-ravenscar-arm/build/s-tasdeb.o
                                       0x11e1 (size before relaxing)
 .debug_str     0x0000000000005046      0x305 /home/aquox/Scrivania/Arm/edf-ravenscar-arm/build/s-taskin.o
                                       0x149e (size before relaxing)
 .debug_str     0x000000000000534b      0x400 /home/aquox/Scrivania/Arm/edf-ravenscar-arm/build/s-soflin.o
                                       0x15a2 (size before relaxing)
 .debug_str     0x000000000000574b      0x7e5 /home/aquox/Scrivania/Arm/edf-ravenscar-arm/build/s-bbtime.o
                                        0xe85 (size before relaxing)
 .debug_str     0x0000000000005f30      0x19b /home/aquox/Scrivania/Arm/edf-ravenscar-arm/build/s-mufalo.o
                                        0x44f (size before relaxing)
 .debug_str     0x00000000000060cb      0x8d6 /home/aquox/Scrivania/Arm/edf-ravenscar-arm/build/s-taprop.o
                                       0x1b49 (size before relaxing)
 .debug_str     0x00000000000069a1      0x5af /home/aquox/Scrivania/Arm/edf-ravenscar-arm/build/a-reatim.o
                                        0x84e (size before relaxing)
 .debug_str     0x0000000000006f50       0xda /home/aquox/Scrivania/Arm/edf-ravenscar-arm/build/a-retide.o
                                        0x443 (size before relaxing)
 .debug_str     0x000000000000702a       0x46 /home/aquox/Scrivania/Arm/edf-ravenscar-arm/build/s-tasres.o
                                        0x1a5 (size before relaxing)
 .debug_str     0x0000000000007070      0x489 /home/aquox/Scrivania/Arm/edf-ravenscar-arm/build/s-tarest.o
                                       0x1694 (size before relaxing)
 .debug_str     0x00000000000074f9       0xa9 /home/aquox/Scrivania/Arm/edf-ravenscar-arm/build/system_time.o
                                        0x280 (size before relaxing)
 .debug_str     0x00000000000075a2       0xf0 /home/aquox/Scrivania/Arm/edf-ravenscar-arm/build/print_task.o
                                       0x1300 (size before relaxing)
 .debug_str     0x0000000000007692      0x1ab /home/aquox/Scrivania/Arm/edf-ravenscar-arm/build/cyclic_tasks.o
                                       0x1435 (size before relaxing)
 .debug_str     0x000000000000783d     0x604b /usr/local/gnat-arm/arm-eabi/lib/gnat/ravenscar-full-stm32f429disco/adalib/libgnat.a(a-except.o)
                                       0x6653 (size before relaxing)
 .debug_str     0x000000000000d888     0x246d /usr/local/gnat-arm/arm-eabi/lib/gnat/ravenscar-full-stm32f429disco/adalib/libgnat.a(a-tags.o)
                                       0x2b81 (size before relaxing)
 .debug_str     0x000000000000fcf5      0x3ca /usr/local/gnat-arm/arm-eabi/lib/gnat/ravenscar-full-stm32f429disco/adalib/libgnat.a(s-excdeb.o)
                                        0x686 (size before relaxing)
 .debug_str     0x00000000000100bf      0x76f /usr/local/gnat-arm/arm-eabi/lib/gnat/ravenscar-full-stm32f429disco/adalib/libgnat.a(s-traceb.o)
                                        0x98b (size before relaxing)
 .debug_str     0x000000000001082e      0x584 /usr/local/gnat-arm/bin/../lib/gcc/arm-eabi/7.3.1/../../../../arm-eabi/lib/thumb/v7e-m/fpv4-sp/hard/libc.a(lib_a-malloc.o)
                                        0x626 (size before relaxing)
 .debug_str     0x0000000000010db2      0x251 /usr/local/gnat-arm/bin/../lib/gcc/arm-eabi/7.3.1/../../../../arm-eabi/lib/thumb/v7e-m/fpv4-sp/hard/libc.a(lib_a-mallocr.o)
                                        0x85d (size before relaxing)
 .debug_str     0x0000000000011003       0xbd /usr/local/gnat-arm/bin/../lib/gcc/arm-eabi/7.3.1/../../../../arm-eabi/lib/thumb/v7e-m/fpv4-sp/hard/libc.a(lib_a-memcmp.o)
                                        0x5f9 (size before relaxing)
 .debug_str     0x00000000000110c0       0xe0 /usr/local/gnat-arm/bin/../lib/gcc/arm-eabi/7.3.1/../../../../arm-eabi/lib/thumb/v7e-m/fpv4-sp/hard/libc.a(lib_a-memcpy.o)
 .debug_str     0x00000000000111a0       0x66 /usr/local/gnat-arm/bin/../lib/gcc/arm-eabi/7.3.1/../../../../arm-eabi/lib/thumb/v7e-m/fpv4-sp/hard/libc.a(lib_a-memmove.o)
                                        0x62c (size before relaxing)
 .debug_str     0x0000000000011206       0x48 /usr/local/gnat-arm/bin/../lib/gcc/arm-eabi/7.3.1/../../../../arm-eabi/lib/thumb/v7e-m/fpv4-sp/hard/libc.a(lib_a-memset.o)
                                        0x60d (size before relaxing)
 .debug_str     0x000000000001124e       0x4f /usr/local/gnat-arm/bin/../lib/gcc/arm-eabi/7.3.1/../../../../arm-eabi/lib/thumb/v7e-m/fpv4-sp/hard/libc.a(lib_a-mlock.o)
                                        0x61d (size before relaxing)
 .debug_str     0x000000000001129d       0x4f /usr/local/gnat-arm/bin/../lib/gcc/arm-eabi/7.3.1/../../../../arm-eabi/lib/thumb/v7e-m/fpv4-sp/hard/libc.a(lib_a-realloc.o)
                                        0x617 (size before relaxing)
 .debug_str     0x00000000000112ec       0x4b /usr/local/gnat-arm/bin/../lib/gcc/arm-eabi/7.3.1/../../../../arm-eabi/lib/thumb/v7e-m/fpv4-sp/hard/libc.a(lib_a-reallocr.o)
                                        0x814 (size before relaxing)
 .debug_str     0x0000000000011337       0xce /usr/local/gnat-arm/bin/../lib/gcc/arm-eabi/7.3.1/../../../../arm-eabi/lib/thumb/v7e-m/fpv4-sp/hard/libc.a(lib_a-sbrkr.o)
                                        0x637 (size before relaxing)
 .debug_str     0x0000000000011405       0x34 /usr/local/gnat-arm/bin/../lib/gcc/arm-eabi/7.3.1/../../../../arm-eabi/lib/thumb/v7e-m/fpv4-sp/hard/libc.a(lib_a-freer.o)
                                        0x7d6 (size before relaxing)
 .debug_str     0x0000000000011439       0x46 /usr/local/gnat-arm/bin/../lib/gcc/arm-eabi/7.3.1/../../../../arm-eabi/lib/thumb/v7e-m/fpv4-sp/hard/libc.a(lib_a-impure.o)
                                        0x5f5 (size before relaxing)
 .debug_str     0x000000000001147f       0x65 /usr/local/gnat-arm/bin/../lib/gcc/arm-eabi/7.3.1/../../../../arm-eabi/lib/thumb/v7e-m/fpv4-sp/hard/libc.a(lib_a-reent.o)
                                        0x631 (size before relaxing)
 .debug_str     0x00000000000114e4       0xa4 /usr/local/gnat-arm/bin/../lib/gcc/arm-eabi/7.3.1/thumb/v7e-m/fpv4-sp/hard/libgcc.a(_aeabi_ldivmod.o)
                                         0xb3 (size before relaxing)
 .debug_str     0x0000000000011588       0xb3 /usr/local/gnat-arm/bin/../lib/gcc/arm-eabi/7.3.1/thumb/v7e-m/fpv4-sp/hard/libgcc.a(_aeabi_uldivmod.o)
 .debug_str     0x0000000000011588     0x1302 /usr/local/gnat-arm/bin/../lib/gcc/arm-eabi/7.3.1/thumb/v7e-m/fpv4-sp/hard/libgcc.a(_udivmoddi4.o)
                                       0x1412 (size before relaxing)
 .debug_str     0x000000000001288a      0x952 /usr/local/gnat-arm/bin/../lib/gcc/arm-eabi/7.3.1/thumb/v7e-m/fpv4-sp/hard/libgcc.a(unwind-arm.o)
                                        0xccd (size before relaxing)
 .debug_str     0x00000000000131dc       0x37 /usr/local/gnat-arm/bin/../lib/gcc/arm-eabi/7.3.1/thumb/v7e-m/fpv4-sp/hard/libgcc.a(libunwind.o)
                                         0xb7 (size before relaxing)
 .debug_str     0x0000000000013213       0xe6 /usr/local/gnat-arm/bin/../lib/gcc/arm-eabi/7.3.1/thumb/v7e-m/fpv4-sp/hard/libgcc.a(pr-support.o)
                                        0x597 (size before relaxing)
 .debug_str     0x00000000000132f9       0x37 /usr/local/gnat-arm/bin/../lib/gcc/arm-eabi/7.3.1/thumb/v7e-m/fpv4-sp/hard/libgcc.a(_dvmd_tls.o)
                                         0xb7 (size before relaxing)
 .debug_str     0x0000000000013330       0xc2 /usr/local/gnat-arm/bin/../lib/gcc/arm-eabi/7.3.1/../../../../arm-eabi/lib/thumb/v7e-m/fpv4-sp/hard/libc.a(lib_a-errno.o)
                                        0x607 (size before relaxing)

.debug_loc      0x0000000000000000     0xaea4
 *(.debug_loc)
 .debug_loc     0x0000000000000000     0x366b /usr/local/gnat-arm/arm-eabi/lib/gnat/ravenscar-full-stm32f429disco/adalib/libgnat.a(a-except.o)
 .debug_loc     0x000000000000366b     0x246b /usr/local/gnat-arm/arm-eabi/lib/gnat/ravenscar-full-stm32f429disco/adalib/libgnat.a(a-tags.o)
 .debug_loc     0x0000000000005ad6      0x117 /usr/local/gnat-arm/arm-eabi/lib/gnat/ravenscar-full-stm32f429disco/adalib/libgnat.a(s-traceb.o)
 .debug_loc     0x0000000000005bed       0x58 /usr/local/gnat-arm/bin/../lib/gcc/arm-eabi/7.3.1/../../../../arm-eabi/lib/thumb/v7e-m/fpv4-sp/hard/libc.a(lib_a-malloc.o)
 .debug_loc     0x0000000000005c45      0xcb1 /usr/local/gnat-arm/bin/../lib/gcc/arm-eabi/7.3.1/../../../../arm-eabi/lib/thumb/v7e-m/fpv4-sp/hard/libc.a(lib_a-mallocr.o)
 .debug_loc     0x00000000000068f6      0x157 /usr/local/gnat-arm/bin/../lib/gcc/arm-eabi/7.3.1/../../../../arm-eabi/lib/thumb/v7e-m/fpv4-sp/hard/libc.a(lib_a-memcmp.o)
 .debug_loc     0x0000000000006a4d      0x26a /usr/local/gnat-arm/bin/../lib/gcc/arm-eabi/7.3.1/../../../../arm-eabi/lib/thumb/v7e-m/fpv4-sp/hard/libc.a(lib_a-memmove.o)
 .debug_loc     0x0000000000006cb7      0x175 /usr/local/gnat-arm/bin/../lib/gcc/arm-eabi/7.3.1/../../../../arm-eabi/lib/thumb/v7e-m/fpv4-sp/hard/libc.a(lib_a-memset.o)
 .debug_loc     0x0000000000006e2c       0x58 /usr/local/gnat-arm/bin/../lib/gcc/arm-eabi/7.3.1/../../../../arm-eabi/lib/thumb/v7e-m/fpv4-sp/hard/libc.a(lib_a-realloc.o)
 .debug_loc     0x0000000000006e84      0xe3f /usr/local/gnat-arm/bin/../lib/gcc/arm-eabi/7.3.1/../../../../arm-eabi/lib/thumb/v7e-m/fpv4-sp/hard/libc.a(lib_a-reallocr.o)
 .debug_loc     0x0000000000007cc3       0x4d /usr/local/gnat-arm/bin/../lib/gcc/arm-eabi/7.3.1/../../../../arm-eabi/lib/thumb/v7e-m/fpv4-sp/hard/libc.a(lib_a-sbrkr.o)
 .debug_loc     0x0000000000007d10      0x612 /usr/local/gnat-arm/bin/../lib/gcc/arm-eabi/7.3.1/../../../../arm-eabi/lib/thumb/v7e-m/fpv4-sp/hard/libc.a(lib_a-freer.o)
 .debug_loc     0x0000000000008322      0x165 /usr/local/gnat-arm/bin/../lib/gcc/arm-eabi/7.3.1/../../../../arm-eabi/lib/thumb/v7e-m/fpv4-sp/hard/libc.a(lib_a-reent.o)
 .debug_loc     0x0000000000008487      0xdaa /usr/local/gnat-arm/bin/../lib/gcc/arm-eabi/7.3.1/thumb/v7e-m/fpv4-sp/hard/libgcc.a(_udivmoddi4.o)
 .debug_loc     0x0000000000009231     0x17a7 /usr/local/gnat-arm/bin/../lib/gcc/arm-eabi/7.3.1/thumb/v7e-m/fpv4-sp/hard/libgcc.a(unwind-arm.o)
 .debug_loc     0x000000000000a9d8      0x4cc /usr/local/gnat-arm/bin/../lib/gcc/arm-eabi/7.3.1/thumb/v7e-m/fpv4-sp/hard/libgcc.a(pr-support.o)

.debug_macinfo
 *(.debug_macinfo)

.debug_pubtypes
 *(.debug_pubtypes)

.debug_ranges   0x0000000000000000      0xca8
 *(.debug_ranges)
 .debug_ranges  0x0000000000000000       0x60 /home/aquox/Scrivania/Arm/edf-ravenscar-arm/build/a-elchha.o
 .debug_ranges  0x0000000000000060       0x18 /home/aquox/Scrivania/Arm/edf-ravenscar-arm/build/s-bbtime.o
 .debug_ranges  0x0000000000000078      0x4e8 /usr/local/gnat-arm/arm-eabi/lib/gnat/ravenscar-full-stm32f429disco/adalib/libgnat.a(a-except.o)
 .debug_ranges  0x0000000000000560      0x3c0 /usr/local/gnat-arm/arm-eabi/lib/gnat/ravenscar-full-stm32f429disco/adalib/libgnat.a(a-tags.o)
 .debug_ranges  0x0000000000000920       0x28 /usr/local/gnat-arm/arm-eabi/lib/gnat/ravenscar-full-stm32f429disco/adalib/libgnat.a(s-excdeb.o)
 .debug_ranges  0x0000000000000948       0x30 /usr/local/gnat-arm/arm-eabi/lib/gnat/ravenscar-full-stm32f429disco/adalib/libgnat.a(s-traceb.o)
 .debug_ranges  0x0000000000000978       0x40 /usr/local/gnat-arm/bin/../lib/gcc/arm-eabi/7.3.1/../../../../arm-eabi/lib/thumb/v7e-m/fpv4-sp/hard/libc.a(lib_a-mallocr.o)
 .debug_ranges  0x00000000000009b8      0x108 /usr/local/gnat-arm/bin/../lib/gcc/arm-eabi/7.3.1/../../../../arm-eabi/lib/thumb/v7e-m/fpv4-sp/hard/libc.a(lib_a-reallocr.o)
 .debug_ranges  0x0000000000000ac0       0xd8 /usr/local/gnat-arm/bin/../lib/gcc/arm-eabi/7.3.1/thumb/v7e-m/fpv4-sp/hard/libgcc.a(_udivmoddi4.o)
 .debug_ranges  0x0000000000000b98      0x110 /usr/local/gnat-arm/bin/../lib/gcc/arm-eabi/7.3.1/thumb/v7e-m/fpv4-sp/hard/libgcc.a(unwind-arm.o)

.comment        0x0000000000000000       0x3d
 .comment       0x0000000000000000       0x3d unit01.o
                                         0x3e (size before relaxing)
 .comment       0x000000000000003d       0x3e b__unit01.o
 .comment       0x000000000000003d       0x3e /home/aquox/Scrivania/Arm/edf-ravenscar-arm/build/system.o
 .comment       0x000000000000003d       0x3e /home/aquox/Scrivania/Arm/edf-ravenscar-arm/build/s-bb.o
 .comment       0x000000000000003d       0x3e /home/aquox/Scrivania/Arm/edf-ravenscar-arm/build/s-bbpara.o
 .comment       0x000000000000003d       0x3e /home/aquox/Scrivania/Arm/edf-ravenscar-arm/build/s-multip.o
 .comment       0x000000000000003d       0x3e /home/aquox/Scrivania/Arm/edf-ravenscar-arm/build/s-bbbosu.o
 .comment       0x000000000000003d       0x3e /home/aquox/Scrivania/Arm/edf-ravenscar-arm/build/s-bbdead.o
 .comment       0x000000000000003d       0x3e /home/aquox/Scrivania/Arm/edf-ravenscar-arm/build/s-bbtiev.o
 .comment       0x000000000000003d       0x3e /home/aquox/Scrivania/Arm/edf-ravenscar-arm/build/s-bbthqu.o
 .comment       0x000000000000003d       0x3e /home/aquox/Scrivania/Arm/edf-ravenscar-arm/build/s-bbprot.o
 .comment       0x000000000000003d       0x3e /home/aquox/Scrivania/Arm/edf-ravenscar-arm/build/s-bbthre.o
 .comment       0x000000000000003d       0x3e /home/aquox/Scrivania/Arm/edf-ravenscar-arm/build/s-bbinte.o
 .comment       0x000000000000003d       0x3e /home/aquox/Scrivania/Arm/edf-ravenscar-arm/build/s-bbcppr.o
 .comment       0x000000000000003d       0x3e /home/aquox/Scrivania/Arm/edf-ravenscar-arm/build/s-osinte.o
 .comment       0x000000000000003d       0x3e /home/aquox/Scrivania/Arm/edf-ravenscar-arm/build/a-elchha.o
 .comment       0x000000000000003d       0x3e /home/aquox/Scrivania/Arm/edf-ravenscar-arm/build/s-taspri.o
 .comment       0x000000000000003d       0x3e /home/aquox/Scrivania/Arm/edf-ravenscar-arm/build/s-tasdeb.o
 .comment       0x000000000000003d       0x3e /home/aquox/Scrivania/Arm/edf-ravenscar-arm/build/s-taskin.o
 .comment       0x000000000000003d       0x3e /home/aquox/Scrivania/Arm/edf-ravenscar-arm/build/s-soflin.o
 .comment       0x000000000000003d       0x3e /home/aquox/Scrivania/Arm/edf-ravenscar-arm/build/s-bbtime.o
 .comment       0x000000000000003d       0x3e /home/aquox/Scrivania/Arm/edf-ravenscar-arm/build/s-mufalo.o
 .comment       0x000000000000003d       0x3e /home/aquox/Scrivania/Arm/edf-ravenscar-arm/build/s-taprop.o
 .comment       0x000000000000003d       0x3e /home/aquox/Scrivania/Arm/edf-ravenscar-arm/build/a-reatim.o
 .comment       0x000000000000003d       0x3e /home/aquox/Scrivania/Arm/edf-ravenscar-arm/build/a-retide.o
 .comment       0x000000000000003d       0x3e /home/aquox/Scrivania/Arm/edf-ravenscar-arm/build/s-tasres.o
 .comment       0x000000000000003d       0x3e /home/aquox/Scrivania/Arm/edf-ravenscar-arm/build/s-tarest.o
 .comment       0x000000000000003d       0x3e /home/aquox/Scrivania/Arm/edf-ravenscar-arm/build/system_time.o
 .comment       0x000000000000003d       0x3e /home/aquox/Scrivania/Arm/edf-ravenscar-arm/build/print_task.o
 .comment       0x000000000000003d       0x3e /home/aquox/Scrivania/Arm/edf-ravenscar-arm/build/cyclic_tasks.o
 .comment       0x000000000000003d       0x3e /usr/local/gnat-arm/arm-eabi/lib/gnat/ravenscar-full-stm32f429disco/adalib/libgnat.a(a-except.o)
 .comment       0x000000000000003d       0x3e /usr/local/gnat-arm/arm-eabi/lib/gnat/ravenscar-full-stm32f429disco/adalib/libgnat.a(a-tags.o)
 .comment       0x000000000000003d       0x3e /usr/local/gnat-arm/arm-eabi/lib/gnat/ravenscar-full-stm32f429disco/adalib/libgnat.a(adaint-xi.o)
 .comment       0x000000000000003d       0x3e /usr/local/gnat-arm/arm-eabi/lib/gnat/ravenscar-full-stm32f429disco/adalib/libgnat.a(g-debuti.o)
 .comment       0x000000000000003d       0x3e /usr/local/gnat-arm/arm-eabi/lib/gnat/ravenscar-full-stm32f429disco/adalib/libgnat.a(raise-gcc.o)
 .comment       0x000000000000003d       0x3e /usr/local/gnat-arm/arm-eabi/lib/gnat/ravenscar-full-stm32f429disco/adalib/libgnat.a(s-bcpcst.o)
 .comment       0x000000000000003d       0x3e /usr/local/gnat-arm/arm-eabi/lib/gnat/ravenscar-full-stm32f429disco/adalib/libgnat.a(s-excdeb.o)
 .comment       0x000000000000003d       0x3e /usr/local/gnat-arm/arm-eabi/lib/gnat/ravenscar-full-stm32f429disco/adalib/libgnat.a(s-except.o)
 .comment       0x000000000000003d       0x3e /usr/local/gnat-arm/arm-eabi/lib/gnat/ravenscar-full-stm32f429disco/adalib/libgnat.a(s-excmac.o)
 .comment       0x000000000000003d       0x3e /usr/local/gnat-arm/arm-eabi/lib/gnat/ravenscar-full-stm32f429disco/adalib/libgnat.a(s-exctab.o)
 .comment       0x000000000000003d       0x3e /usr/local/gnat-arm/arm-eabi/lib/gnat/ravenscar-full-stm32f429disco/adalib/libgnat.a(s-imgint.o)
 .comment       0x000000000000003d       0x3e /usr/local/gnat-arm/arm-eabi/lib/gnat/ravenscar-full-stm32f429disco/adalib/libgnat.a(s-init.o)
 .comment       0x000000000000003d       0x3e /usr/local/gnat-arm/arm-eabi/lib/gnat/ravenscar-full-stm32f429disco/adalib/libgnat.a(s-io.o)
 .comment       0x000000000000003d       0x3e /usr/local/gnat-arm/arm-eabi/lib/gnat/ravenscar-full-stm32f429disco/adalib/libgnat.a(s-macres.o)
 .comment       0x000000000000003d       0x3e /usr/local/gnat-arm/arm-eabi/lib/gnat/ravenscar-full-stm32f429disco/adalib/libgnat.a(s-memory.o)
 .comment       0x000000000000003d       0x3e /usr/local/gnat-arm/arm-eabi/lib/gnat/ravenscar-full-stm32f429disco/adalib/libgnat.a(s-musplo.o)
 .comment       0x000000000000003d       0x3e /usr/local/gnat-arm/arm-eabi/lib/gnat/ravenscar-full-stm32f429disco/adalib/libgnat.a(s-parame.o)
 .comment       0x000000000000003d       0x3e /usr/local/gnat-arm/arm-eabi/lib/gnat/ravenscar-full-stm32f429disco/adalib/libgnat.a(s-secsta.o)
 .comment       0x000000000000003d       0x3e /usr/local/gnat-arm/arm-eabi/lib/gnat/ravenscar-full-stm32f429disco/adalib/libgnat.a(s-stalib.o)
 .comment       0x000000000000003d       0x3e /usr/local/gnat-arm/arm-eabi/lib/gnat/ravenscar-full-stm32f429disco/adalib/libgnat.a(s-textio.o)
 .comment       0x000000000000003d       0x3e /usr/local/gnat-arm/arm-eabi/lib/gnat/ravenscar-full-stm32f429disco/adalib/libgnat.a(s-traceb.o)
 .comment       0x000000000000003d       0x3e /usr/local/gnat-arm/arm-eabi/lib/gnat/ravenscar-full-stm32f429disco/adalib/libgnat.a(s-traent.o)
 .comment       0x000000000000003d       0x3e /usr/local/gnat-arm/arm-eabi/lib/gnat/ravenscar-full-stm32f429disco/adalib/libgnat.a(s-valuns.o)
 .comment       0x000000000000003d       0x3e /usr/local/gnat-arm/arm-eabi/lib/gnat/ravenscar-full-stm32f429disco/adalib/libgnat.a(s-valuti.o)
 .comment       0x000000000000003d       0x3e /usr/local/gnat-arm/arm-eabi/lib/gnat/ravenscar-full-stm32f429disco/adalib/libgnat.a(s-wchcon.o)
 .comment       0x000000000000003d       0x3e /usr/local/gnat-arm/arm-eabi/lib/gnat/ravenscar-full-stm32f429disco/adalib/libgnat.a(s-wchstw.o)
 .comment       0x000000000000003d       0x3e /usr/local/gnat-arm/arm-eabi/lib/gnat/ravenscar-full-stm32f429disco/adalib/libgnat.a(s-casuti.o)
 .comment       0x000000000000003d       0x3e /usr/local/gnat-arm/arm-eabi/lib/gnat/ravenscar-full-stm32f429disco/adalib/libgnat.a(s-semiho.o)
 .comment       0x000000000000003d       0x3e /usr/local/gnat-arm/arm-eabi/lib/gnat/ravenscar-full-stm32f429disco/adalib/libgnat.a(s-wchjis.o)
 .comment       0x000000000000003d       0x3e /usr/local/gnat-arm/arm-eabi/lib/gnat/ravenscar-full-stm32f429disco/adalib/libgnat.a(setup_pll.o)
 .comment       0x000000000000003d       0x3e /usr/local/gnat-arm/arm-eabi/lib/gnat/ravenscar-full-stm32f429disco/adalib/libgnat.a(s-bbmcpa.o)
 .comment       0x000000000000003d       0x3e /usr/local/gnat-arm/bin/../lib/gcc/arm-eabi/7.3.1/../../../../arm-eabi/lib/thumb/v7e-m/fpv4-sp/hard/libc.a(lib_a-malloc.o)
 .comment       0x000000000000003d       0x3e /usr/local/gnat-arm/bin/../lib/gcc/arm-eabi/7.3.1/../../../../arm-eabi/lib/thumb/v7e-m/fpv4-sp/hard/libc.a(lib_a-mallocr.o)
 .comment       0x000000000000003d       0x3e /usr/local/gnat-arm/bin/../lib/gcc/arm-eabi/7.3.1/../../../../arm-eabi/lib/thumb/v7e-m/fpv4-sp/hard/libc.a(lib_a-memcmp.o)
 .comment       0x000000000000003d       0x3e /usr/local/gnat-arm/bin/../lib/gcc/arm-eabi/7.3.1/../../../../arm-eabi/lib/thumb/v7e-m/fpv4-sp/hard/libc.a(lib_a-memmove.o)
 .comment       0x000000000000003d       0x3e /usr/local/gnat-arm/bin/../lib/gcc/arm-eabi/7.3.1/../../../../arm-eabi/lib/thumb/v7e-m/fpv4-sp/hard/libc.a(lib_a-memset.o)
 .comment       0x000000000000003d       0x3e /usr/local/gnat-arm/bin/../lib/gcc/arm-eabi/7.3.1/../../../../arm-eabi/lib/thumb/v7e-m/fpv4-sp/hard/libc.a(lib_a-mlock.o)
 .comment       0x000000000000003d       0x3e /usr/local/gnat-arm/bin/../lib/gcc/arm-eabi/7.3.1/../../../../arm-eabi/lib/thumb/v7e-m/fpv4-sp/hard/libc.a(lib_a-realloc.o)
 .comment       0x000000000000003d       0x3e /usr/local/gnat-arm/bin/../lib/gcc/arm-eabi/7.3.1/../../../../arm-eabi/lib/thumb/v7e-m/fpv4-sp/hard/libc.a(lib_a-reallocr.o)
 .comment       0x000000000000003d       0x3e /usr/local/gnat-arm/bin/../lib/gcc/arm-eabi/7.3.1/../../../../arm-eabi/lib/thumb/v7e-m/fpv4-sp/hard/libc.a(lib_a-sbrkr.o)
 .comment       0x000000000000003d       0x3e /usr/local/gnat-arm/bin/../lib/gcc/arm-eabi/7.3.1/../../../../arm-eabi/lib/thumb/v7e-m/fpv4-sp/hard/libc.a(lib_a-freer.o)
 .comment       0x000000000000003d       0x3e /usr/local/gnat-arm/bin/../lib/gcc/arm-eabi/7.3.1/../../../../arm-eabi/lib/thumb/v7e-m/fpv4-sp/hard/libc.a(lib_a-impure.o)
 .comment       0x000000000000003d       0x3e /usr/local/gnat-arm/bin/../lib/gcc/arm-eabi/7.3.1/../../../../arm-eabi/lib/thumb/v7e-m/fpv4-sp/hard/libc.a(lib_a-reent.o)
 .comment       0x000000000000003d       0x3e /usr/local/gnat-arm/bin/../lib/gcc/arm-eabi/7.3.1/thumb/v7e-m/fpv4-sp/hard/libgcc.a(_udivmoddi4.o)
 .comment       0x000000000000003d       0x3e /usr/local/gnat-arm/bin/../lib/gcc/arm-eabi/7.3.1/thumb/v7e-m/fpv4-sp/hard/libgcc.a(unwind-arm.o)
 .comment       0x000000000000003d       0x3e /usr/local/gnat-arm/bin/../lib/gcc/arm-eabi/7.3.1/thumb/v7e-m/fpv4-sp/hard/libgcc.a(pr-support.o)
 .comment       0x000000000000003d       0x3e /usr/local/gnat-arm/arm-eabi/lib/gnat/ravenscar-full-stm32f429disco/adalib//libgnat.a(newlib-bb.o)
 .comment       0x000000000000003d       0x3e /usr/local/gnat-arm/bin/../lib/gcc/arm-eabi/7.3.1/../../../../arm-eabi/lib/thumb/v7e-m/fpv4-sp/hard/libc.a(lib_a-errno.o)

.ARM.attributes
                0x0000000000000000       0x37
 .ARM.attributes
                0x0000000000000000       0x37 unit01.o
 .ARM.attributes
                0x0000000000000037       0x37 b__unit01.o
 .ARM.attributes
                0x000000000000006e       0x37 /home/aquox/Scrivania/Arm/edf-ravenscar-arm/build/system.o
 .ARM.attributes
                0x00000000000000a5       0x37 /home/aquox/Scrivania/Arm/edf-ravenscar-arm/build/s-bb.o
 .ARM.attributes
                0x00000000000000dc       0x37 /home/aquox/Scrivania/Arm/edf-ravenscar-arm/build/s-bbpara.o
 .ARM.attributes
                0x0000000000000113       0x37 /home/aquox/Scrivania/Arm/edf-ravenscar-arm/build/s-multip.o
 .ARM.attributes
                0x000000000000014a       0x37 /home/aquox/Scrivania/Arm/edf-ravenscar-arm/build/s-bbbosu.o
 .ARM.attributes
                0x0000000000000181       0x37 /home/aquox/Scrivania/Arm/edf-ravenscar-arm/build/s-bbdead.o
 .ARM.attributes
                0x00000000000001b8       0x37 /home/aquox/Scrivania/Arm/edf-ravenscar-arm/build/s-bbtiev.o
 .ARM.attributes
                0x00000000000001ef       0x37 /home/aquox/Scrivania/Arm/edf-ravenscar-arm/build/s-bbthqu.o
 .ARM.attributes
                0x0000000000000226       0x37 /home/aquox/Scrivania/Arm/edf-ravenscar-arm/build/s-bbprot.o
 .ARM.attributes
                0x000000000000025d       0x37 /home/aquox/Scrivania/Arm/edf-ravenscar-arm/build/s-bbthre.o
 .ARM.attributes
                0x0000000000000294       0x37 /home/aquox/Scrivania/Arm/edf-ravenscar-arm/build/s-bbinte.o
 .ARM.attributes
                0x00000000000002cb       0x37 /home/aquox/Scrivania/Arm/edf-ravenscar-arm/build/s-bbcppr.o
 .ARM.attributes
                0x0000000000000302       0x37 /home/aquox/Scrivania/Arm/edf-ravenscar-arm/build/s-osinte.o
 .ARM.attributes
                0x0000000000000339       0x37 /home/aquox/Scrivania/Arm/edf-ravenscar-arm/build/a-elchha.o
 .ARM.attributes
                0x0000000000000370       0x37 /home/aquox/Scrivania/Arm/edf-ravenscar-arm/build/s-taspri.o
 .ARM.attributes
                0x00000000000003a7       0x37 /home/aquox/Scrivania/Arm/edf-ravenscar-arm/build/s-tasdeb.o
 .ARM.attributes
                0x00000000000003de       0x37 /home/aquox/Scrivania/Arm/edf-ravenscar-arm/build/s-taskin.o
 .ARM.attributes
                0x0000000000000415       0x37 /home/aquox/Scrivania/Arm/edf-ravenscar-arm/build/s-soflin.o
 .ARM.attributes
                0x000000000000044c       0x37 /home/aquox/Scrivania/Arm/edf-ravenscar-arm/build/s-bbtime.o
 .ARM.attributes
                0x0000000000000483       0x37 /home/aquox/Scrivania/Arm/edf-ravenscar-arm/build/s-mufalo.o
 .ARM.attributes
                0x00000000000004ba       0x37 /home/aquox/Scrivania/Arm/edf-ravenscar-arm/build/s-taprop.o
 .ARM.attributes
                0x00000000000004f1       0x37 /home/aquox/Scrivania/Arm/edf-ravenscar-arm/build/a-reatim.o
 .ARM.attributes
                0x0000000000000528       0x37 /home/aquox/Scrivania/Arm/edf-ravenscar-arm/build/a-retide.o
 .ARM.attributes
                0x000000000000055f       0x37 /home/aquox/Scrivania/Arm/edf-ravenscar-arm/build/s-tasres.o
 .ARM.attributes
                0x0000000000000596       0x37 /home/aquox/Scrivania/Arm/edf-ravenscar-arm/build/s-tarest.o
 .ARM.attributes
                0x00000000000005cd       0x37 /home/aquox/Scrivania/Arm/edf-ravenscar-arm/build/system_time.o
 .ARM.attributes
                0x0000000000000604       0x37 /home/aquox/Scrivania/Arm/edf-ravenscar-arm/build/print_task.o
 .ARM.attributes
                0x000000000000063b       0x37 /home/aquox/Scrivania/Arm/edf-ravenscar-arm/build/cyclic_tasks.o
 .ARM.attributes
                0x0000000000000672       0x37 /usr/local/gnat-arm/arm-eabi/lib/gnat/ravenscar-full-stm32f429disco/adalib/libgnat.a(a-except.o)
 .ARM.attributes
                0x00000000000006a9       0x37 /usr/local/gnat-arm/arm-eabi/lib/gnat/ravenscar-full-stm32f429disco/adalib/libgnat.a(a-tags.o)
 .ARM.attributes
                0x00000000000006e0       0x39 /usr/local/gnat-arm/arm-eabi/lib/gnat/ravenscar-full-stm32f429disco/adalib/libgnat.a(adaint-xi.o)
 .ARM.attributes
                0x0000000000000719       0x37 /usr/local/gnat-arm/arm-eabi/lib/gnat/ravenscar-full-stm32f429disco/adalib/libgnat.a(g-debuti.o)
 .ARM.attributes
                0x0000000000000750       0x25 /usr/local/gnat-arm/arm-eabi/lib/gnat/ravenscar-full-stm32f429disco/adalib/libgnat.a(handler.o)
 .ARM.attributes
                0x0000000000000775       0x39 /usr/local/gnat-arm/arm-eabi/lib/gnat/ravenscar-full-stm32f429disco/adalib/libgnat.a(raise-gcc.o)
 .ARM.attributes
                0x00000000000007ae       0x37 /usr/local/gnat-arm/arm-eabi/lib/gnat/ravenscar-full-stm32f429disco/adalib/libgnat.a(s-bcpcst.o)
 .ARM.attributes
                0x00000000000007e5       0x37 /usr/local/gnat-arm/arm-eabi/lib/gnat/ravenscar-full-stm32f429disco/adalib/libgnat.a(s-excdeb.o)
 .ARM.attributes
                0x000000000000081c       0x37 /usr/local/gnat-arm/arm-eabi/lib/gnat/ravenscar-full-stm32f429disco/adalib/libgnat.a(s-except.o)
 .ARM.attributes
                0x0000000000000853       0x37 /usr/local/gnat-arm/arm-eabi/lib/gnat/ravenscar-full-stm32f429disco/adalib/libgnat.a(s-excmac.o)
 .ARM.attributes
                0x000000000000088a       0x37 /usr/local/gnat-arm/arm-eabi/lib/gnat/ravenscar-full-stm32f429disco/adalib/libgnat.a(s-exctab.o)
 .ARM.attributes
                0x00000000000008c1       0x37 /usr/local/gnat-arm/arm-eabi/lib/gnat/ravenscar-full-stm32f429disco/adalib/libgnat.a(s-imgint.o)
 .ARM.attributes
                0x00000000000008f8       0x37 /usr/local/gnat-arm/arm-eabi/lib/gnat/ravenscar-full-stm32f429disco/adalib/libgnat.a(s-init.o)
 .ARM.attributes
                0x000000000000092f       0x37 /usr/local/gnat-arm/arm-eabi/lib/gnat/ravenscar-full-stm32f429disco/adalib/libgnat.a(s-io.o)
 .ARM.attributes
                0x0000000000000966       0x37 /usr/local/gnat-arm/arm-eabi/lib/gnat/ravenscar-full-stm32f429disco/adalib/libgnat.a(s-macres.o)
 .ARM.attributes
                0x000000000000099d       0x37 /usr/local/gnat-arm/arm-eabi/lib/gnat/ravenscar-full-stm32f429disco/adalib/libgnat.a(s-memory.o)
 .ARM.attributes
                0x00000000000009d4       0x37 /usr/local/gnat-arm/arm-eabi/lib/gnat/ravenscar-full-stm32f429disco/adalib/libgnat.a(s-musplo.o)
 .ARM.attributes
                0x0000000000000a0b       0x37 /usr/local/gnat-arm/arm-eabi/lib/gnat/ravenscar-full-stm32f429disco/adalib/libgnat.a(s-parame.o)
 .ARM.attributes
                0x0000000000000a42       0x37 /usr/local/gnat-arm/arm-eabi/lib/gnat/ravenscar-full-stm32f429disco/adalib/libgnat.a(s-secsta.o)
 .ARM.attributes
                0x0000000000000a79       0x37 /usr/local/gnat-arm/arm-eabi/lib/gnat/ravenscar-full-stm32f429disco/adalib/libgnat.a(s-stalib.o)
 .ARM.attributes
                0x0000000000000ab0       0x37 /usr/local/gnat-arm/arm-eabi/lib/gnat/ravenscar-full-stm32f429disco/adalib/libgnat.a(s-textio.o)
 .ARM.attributes
                0x0000000000000ae7       0x37 /usr/local/gnat-arm/arm-eabi/lib/gnat/ravenscar-full-stm32f429disco/adalib/libgnat.a(s-traceb.o)
 .ARM.attributes
                0x0000000000000b1e       0x37 /usr/local/gnat-arm/arm-eabi/lib/gnat/ravenscar-full-stm32f429disco/adalib/libgnat.a(s-traent.o)
 .ARM.attributes
                0x0000000000000b55       0x37 /usr/local/gnat-arm/arm-eabi/lib/gnat/ravenscar-full-stm32f429disco/adalib/libgnat.a(s-valuns.o)
 .ARM.attributes
                0x0000000000000b8c       0x37 /usr/local/gnat-arm/arm-eabi/lib/gnat/ravenscar-full-stm32f429disco/adalib/libgnat.a(s-valuti.o)
 .ARM.attributes
                0x0000000000000bc3       0x37 /usr/local/gnat-arm/arm-eabi/lib/gnat/ravenscar-full-stm32f429disco/adalib/libgnat.a(s-wchcon.o)
 .ARM.attributes
                0x0000000000000bfa       0x37 /usr/local/gnat-arm/arm-eabi/lib/gnat/ravenscar-full-stm32f429disco/adalib/libgnat.a(s-wchstw.o)
 .ARM.attributes
                0x0000000000000c31       0x25 /usr/local/gnat-arm/arm-eabi/lib/gnat/ravenscar-full-stm32f429disco/adalib/libgnat.a(start-rom.o)
 .ARM.attributes
                0x0000000000000c56       0x25 /usr/local/gnat-arm/arm-eabi/lib/gnat/ravenscar-full-stm32f429disco/adalib/libgnat.a(breakpoint_handler-cortexm.o)
 .ARM.attributes
                0x0000000000000c7b       0x37 /usr/local/gnat-arm/arm-eabi/lib/gnat/ravenscar-full-stm32f429disco/adalib/libgnat.a(s-casuti.o)
 .ARM.attributes
                0x0000000000000cb2       0x37 /usr/local/gnat-arm/arm-eabi/lib/gnat/ravenscar-full-stm32f429disco/adalib/libgnat.a(s-semiho.o)
 .ARM.attributes
                0x0000000000000ce9       0x37 /usr/local/gnat-arm/arm-eabi/lib/gnat/ravenscar-full-stm32f429disco/adalib/libgnat.a(s-wchjis.o)
 .ARM.attributes
                0x0000000000000d20       0x37 /usr/local/gnat-arm/arm-eabi/lib/gnat/ravenscar-full-stm32f429disco/adalib/libgnat.a(setup_pll.o)
 .ARM.attributes
                0x0000000000000d57       0x25 /usr/local/gnat-arm/arm-eabi/lib/gnat/ravenscar-full-stm32f429disco/adalib/libgnat.a(start-common.o)
 .ARM.attributes
                0x0000000000000d7c       0x37 /usr/local/gnat-arm/arm-eabi/lib/gnat/ravenscar-full-stm32f429disco/adalib/libgnat.a(s-bbmcpa.o)
 .ARM.attributes
                0x0000000000000db3       0x34 /usr/local/gnat-arm/bin/../lib/gcc/arm-eabi/7.3.1/../../../../arm-eabi/lib/thumb/v7e-m/fpv4-sp/hard/libc.a(lib_a-malloc.o)
 .ARM.attributes
                0x0000000000000de7       0x34 /usr/local/gnat-arm/bin/../lib/gcc/arm-eabi/7.3.1/../../../../arm-eabi/lib/thumb/v7e-m/fpv4-sp/hard/libc.a(lib_a-mallocr.o)
 .ARM.attributes
                0x0000000000000e1b       0x34 /usr/local/gnat-arm/bin/../lib/gcc/arm-eabi/7.3.1/../../../../arm-eabi/lib/thumb/v7e-m/fpv4-sp/hard/libc.a(lib_a-memcmp.o)
 .ARM.attributes
                0x0000000000000e4f       0x20 /usr/local/gnat-arm/bin/../lib/gcc/arm-eabi/7.3.1/../../../../arm-eabi/lib/thumb/v7e-m/fpv4-sp/hard/libc.a(lib_a-memcpy.o)
 .ARM.attributes
                0x0000000000000e6f       0x34 /usr/local/gnat-arm/bin/../lib/gcc/arm-eabi/7.3.1/../../../../arm-eabi/lib/thumb/v7e-m/fpv4-sp/hard/libc.a(lib_a-memmove.o)
 .ARM.attributes
                0x0000000000000ea3       0x34 /usr/local/gnat-arm/bin/../lib/gcc/arm-eabi/7.3.1/../../../../arm-eabi/lib/thumb/v7e-m/fpv4-sp/hard/libc.a(lib_a-memset.o)
 .ARM.attributes
                0x0000000000000ed7       0x34 /usr/local/gnat-arm/bin/../lib/gcc/arm-eabi/7.3.1/../../../../arm-eabi/lib/thumb/v7e-m/fpv4-sp/hard/libc.a(lib_a-mlock.o)
 .ARM.attributes
                0x0000000000000f0b       0x34 /usr/local/gnat-arm/bin/../lib/gcc/arm-eabi/7.3.1/../../../../arm-eabi/lib/thumb/v7e-m/fpv4-sp/hard/libc.a(lib_a-realloc.o)
 .ARM.attributes
                0x0000000000000f3f       0x34 /usr/local/gnat-arm/bin/../lib/gcc/arm-eabi/7.3.1/../../../../arm-eabi/lib/thumb/v7e-m/fpv4-sp/hard/libc.a(lib_a-reallocr.o)
 .ARM.attributes
                0x0000000000000f73       0x34 /usr/local/gnat-arm/bin/../lib/gcc/arm-eabi/7.3.1/../../../../arm-eabi/lib/thumb/v7e-m/fpv4-sp/hard/libc.a(lib_a-sbrkr.o)
 .ARM.attributes
                0x0000000000000fa7       0x34 /usr/local/gnat-arm/bin/../lib/gcc/arm-eabi/7.3.1/../../../../arm-eabi/lib/thumb/v7e-m/fpv4-sp/hard/libc.a(lib_a-freer.o)
 .ARM.attributes
                0x0000000000000fdb       0x34 /usr/local/gnat-arm/bin/../lib/gcc/arm-eabi/7.3.1/../../../../arm-eabi/lib/thumb/v7e-m/fpv4-sp/hard/libc.a(lib_a-impure.o)
 .ARM.attributes
                0x000000000000100f       0x34 /usr/local/gnat-arm/bin/../lib/gcc/arm-eabi/7.3.1/../../../../arm-eabi/lib/thumb/v7e-m/fpv4-sp/hard/libc.a(lib_a-reent.o)
 .ARM.attributes
                0x0000000000001043       0x22 /usr/local/gnat-arm/bin/../lib/gcc/arm-eabi/7.3.1/thumb/v7e-m/fpv4-sp/hard/libgcc.a(_aeabi_ldivmod.o)
 .ARM.attributes
                0x0000000000001065       0x22 /usr/local/gnat-arm/bin/../lib/gcc/arm-eabi/7.3.1/thumb/v7e-m/fpv4-sp/hard/libgcc.a(_aeabi_uldivmod.o)
 .ARM.attributes
                0x0000000000001087       0x34 /usr/local/gnat-arm/bin/../lib/gcc/arm-eabi/7.3.1/thumb/v7e-m/fpv4-sp/hard/libgcc.a(_udivmoddi4.o)
 .ARM.attributes
                0x00000000000010bb       0x34 /usr/local/gnat-arm/bin/../lib/gcc/arm-eabi/7.3.1/thumb/v7e-m/fpv4-sp/hard/libgcc.a(unwind-arm.o)
 .ARM.attributes
                0x00000000000010ef       0x22 /usr/local/gnat-arm/bin/../lib/gcc/arm-eabi/7.3.1/thumb/v7e-m/fpv4-sp/hard/libgcc.a(libunwind.o)
 .ARM.attributes
                0x0000000000001111       0x34 /usr/local/gnat-arm/bin/../lib/gcc/arm-eabi/7.3.1/thumb/v7e-m/fpv4-sp/hard/libgcc.a(pr-support.o)
 .ARM.attributes
                0x0000000000001145       0x22 /usr/local/gnat-arm/bin/../lib/gcc/arm-eabi/7.3.1/thumb/v7e-m/fpv4-sp/hard/libgcc.a(_dvmd_tls.o)
 .ARM.attributes
                0x0000000000001167       0x39 /usr/local/gnat-arm/arm-eabi/lib/gnat/ravenscar-full-stm32f429disco/adalib//libgnat.a(newlib-bb.o)
 .ARM.attributes
                0x00000000000011a0       0x34 /usr/local/gnat-arm/bin/../lib/gcc/arm-eabi/7.3.1/../../../../arm-eabi/lib/thumb/v7e-m/fpv4-sp/hard/libc.a(lib_a-errno.o)

.gnu.attributes
 *(.gnu.attributes)

/DISCARD/
 *(.note.GNU-stack)
 *(.gnu_debuglink)
 *(.gnu.lto_*)
OUTPUT(/home/aquox/Scrivania/Arm/edf-ravenscar-arm//unit01 elf32-littlearm)
