Archive member included to satisfy reference by file (symbol)

/usr/local/gnat-arm/arm-eabi/lib/gnat/ravenscar-full-stm32f4/adalib/libgnat.a(a-nuelfu.o)
                              /home/aquox/Scrivania/Arm/fps-ravenscar-arm/build/production_workload.o (ada__numerics__elementary_functions__cos)
/usr/local/gnat-arm/arm-eabi/lib/gnat/ravenscar-full-stm32f4/adalib/libgnat.a(a-numeri.o)
                              /usr/local/gnat-arm/arm-eabi/lib/gnat/ravenscar-full-stm32f4/adalib/libgnat.a(a-nuelfu.o) (ada__numerics__argument_error)
/usr/local/gnat-arm/arm-eabi/lib/gnat/ravenscar-full-stm32f4/adalib/libgnat.a(a-textio.o)
                              /home/aquox/Scrivania/Arm/fps-ravenscar-arm/build/external_event_server.o (ada__text_io__put_line)
/usr/local/gnat-arm/arm-eabi/lib/gnat/ravenscar-full-stm32f4/adalib/libgnat.a(adaint-xi.o)
                              /home/aquox/Scrivania/Arm/fps-ravenscar-arm/build/a-except.o (__gnat_get_executable_load_address)
/usr/local/gnat-arm/arm-eabi/lib/gnat/ravenscar-full-stm32f4/adalib/libgnat.a(handler.o)
                              /home/aquox/Scrivania/Arm/fps-ravenscar-arm/build/s-bbcppr.o (__vectors)
/usr/local/gnat-arm/arm-eabi/lib/gnat/ravenscar-full-stm32f4/adalib/libgnat.a(raise-gcc.o)
                              /home/aquox/Scrivania/Arm/fps-ravenscar-arm/build/s-traceb.o (__gnat_personality_v0)
/usr/local/gnat-arm/arm-eabi/lib/gnat/ravenscar-full-stm32f4/adalib/libgnat.a(s-fatflt.o)
                              /usr/local/gnat-arm/arm-eabi/lib/gnat/ravenscar-full-stm32f4/adalib/libgnat.a(a-nuelfu.o) (system__fat_flt__attr_float__copy_sign)
/usr/local/gnat-arm/arm-eabi/lib/gnat/ravenscar-full-stm32f4/adalib/libgnat.a(s-init.o)
                              b__gee.o (__gnat_finalize)
/usr/local/gnat-arm/arm-eabi/lib/gnat/ravenscar-full-stm32f4/adalib/libgnat.a(s-libsin.o)
                              /usr/local/gnat-arm/arm-eabi/lib/gnat/ravenscar-full-stm32f4/adalib/libgnat.a(a-nuelfu.o) (acosf)
/usr/local/gnat-arm/arm-eabi/lib/gnat/ravenscar-full-stm32f4/adalib/libgnat.a(s-lisisq.o)
                              /usr/local/gnat-arm/arm-eabi/lib/gnat/ravenscar-full-stm32f4/adalib/libgnat.a(s-libsin.o) (sqrtf)
/usr/local/gnat-arm/arm-eabi/lib/gnat/ravenscar-full-stm32f4/adalib/libgnat.a(s-macres.o)
                              /usr/local/gnat-arm/arm-eabi/lib/gnat/ravenscar-full-stm32f4/adalib/libgnat.a(raise-gcc.o) (abort)
/usr/local/gnat-arm/arm-eabi/lib/gnat/ravenscar-full-stm32f4/adalib/libgnat.a(s-restri.o)
                              b__gee.o (system__restrictions__run_time_restrictions)
/usr/local/gnat-arm/arm-eabi/lib/gnat/ravenscar-full-stm32f4/adalib/libgnat.a(start-rom.o)
                              (_start_rom)
/usr/local/gnat-arm/arm-eabi/lib/gnat/ravenscar-full-stm32f4/adalib/libgnat.a(breakpoint_handler-cortexm.o)
                              /usr/local/gnat-arm/arm-eabi/lib/gnat/ravenscar-full-stm32f4/adalib/libgnat.a(handler.o) (__gnat_bkpt_trap)
/usr/local/gnat-arm/arm-eabi/lib/gnat/ravenscar-full-stm32f4/adalib/libgnat.a(setup_pll.o)
                              /usr/local/gnat-arm/arm-eabi/lib/gnat/ravenscar-full-stm32f4/adalib/libgnat.a(start-rom.o) (_ada_setup_pll)
/usr/local/gnat-arm/arm-eabi/lib/gnat/ravenscar-full-stm32f4/adalib/libgnat.a(start-common.o)
                              /usr/local/gnat-arm/arm-eabi/lib/gnat/ravenscar-full-stm32f4/adalib/libgnat.a(start-rom.o) (_stm32_start_common)
/usr/local/gnat-arm/bin/../lib/gcc/arm-eabi/7.3.1/../../../../arm-eabi/lib/thumb/v7e-m/fpv4-sp/hard/libc.a(lib_a-malloc.o)
                              /home/aquox/Scrivania/Arm/fps-ravenscar-arm/build/s-memory.o (malloc)
/usr/local/gnat-arm/bin/../lib/gcc/arm-eabi/7.3.1/../../../../arm-eabi/lib/thumb/v7e-m/fpv4-sp/hard/libc.a(lib_a-mallocr.o)
                              /usr/local/gnat-arm/bin/../lib/gcc/arm-eabi/7.3.1/../../../../arm-eabi/lib/thumb/v7e-m/fpv4-sp/hard/libc.a(lib_a-malloc.o) (_malloc_r)
/usr/local/gnat-arm/bin/../lib/gcc/arm-eabi/7.3.1/../../../../arm-eabi/lib/thumb/v7e-m/fpv4-sp/hard/libc.a(lib_a-memcmp.o)
                              /home/aquox/Scrivania/Arm/fps-ravenscar-arm/build/s-wchcon.o (memcmp)
/usr/local/gnat-arm/bin/../lib/gcc/arm-eabi/7.3.1/../../../../arm-eabi/lib/thumb/v7e-m/fpv4-sp/hard/libc.a(lib_a-memcpy.o)
                              b__gee.o (memcpy)
/usr/local/gnat-arm/bin/../lib/gcc/arm-eabi/7.3.1/../../../../arm-eabi/lib/thumb/v7e-m/fpv4-sp/hard/libc.a(lib_a-memmove.o)
                              /home/aquox/Scrivania/Arm/fps-ravenscar-arm/build/a-tags.o (memmove)
/usr/local/gnat-arm/bin/../lib/gcc/arm-eabi/7.3.1/../../../../arm-eabi/lib/thumb/v7e-m/fpv4-sp/hard/libc.a(lib_a-memset.o)
                              /home/aquox/Scrivania/Arm/fps-ravenscar-arm/build/a-tags.o (memset)
/usr/local/gnat-arm/bin/../lib/gcc/arm-eabi/7.3.1/../../../../arm-eabi/lib/thumb/v7e-m/fpv4-sp/hard/libc.a(lib_a-mlock.o)
                              /usr/local/gnat-arm/bin/../lib/gcc/arm-eabi/7.3.1/../../../../arm-eabi/lib/thumb/v7e-m/fpv4-sp/hard/libc.a(lib_a-mallocr.o) (__malloc_lock)
/usr/local/gnat-arm/bin/../lib/gcc/arm-eabi/7.3.1/../../../../arm-eabi/lib/thumb/v7e-m/fpv4-sp/hard/libc.a(lib_a-realloc.o)
                              /home/aquox/Scrivania/Arm/fps-ravenscar-arm/build/s-memory.o (realloc)
/usr/local/gnat-arm/bin/../lib/gcc/arm-eabi/7.3.1/../../../../arm-eabi/lib/thumb/v7e-m/fpv4-sp/hard/libc.a(lib_a-reallocr.o)
                              /usr/local/gnat-arm/bin/../lib/gcc/arm-eabi/7.3.1/../../../../arm-eabi/lib/thumb/v7e-m/fpv4-sp/hard/libc.a(lib_a-realloc.o) (_realloc_r)
/usr/local/gnat-arm/bin/../lib/gcc/arm-eabi/7.3.1/../../../../arm-eabi/lib/thumb/v7e-m/fpv4-sp/hard/libc.a(lib_a-sbrkr.o)
                              /usr/local/gnat-arm/bin/../lib/gcc/arm-eabi/7.3.1/../../../../arm-eabi/lib/thumb/v7e-m/fpv4-sp/hard/libc.a(lib_a-mallocr.o) (_sbrk_r)
/usr/local/gnat-arm/bin/../lib/gcc/arm-eabi/7.3.1/../../../../arm-eabi/lib/thumb/v7e-m/fpv4-sp/hard/libc.a(lib_a-freer.o)
                              /usr/local/gnat-arm/bin/../lib/gcc/arm-eabi/7.3.1/../../../../arm-eabi/lib/thumb/v7e-m/fpv4-sp/hard/libc.a(lib_a-malloc.o) (_free_r)
/usr/local/gnat-arm/bin/../lib/gcc/arm-eabi/7.3.1/../../../../arm-eabi/lib/thumb/v7e-m/fpv4-sp/hard/libc.a(lib_a-impure.o)
                              /usr/local/gnat-arm/bin/../lib/gcc/arm-eabi/7.3.1/../../../../arm-eabi/lib/thumb/v7e-m/fpv4-sp/hard/libc.a(lib_a-malloc.o) (_impure_ptr)
/usr/local/gnat-arm/bin/../lib/gcc/arm-eabi/7.3.1/../../../../arm-eabi/lib/thumb/v7e-m/fpv4-sp/hard/libc.a(lib_a-reent.o)
                              /usr/local/gnat-arm/bin/../lib/gcc/arm-eabi/7.3.1/../../../../arm-eabi/lib/thumb/v7e-m/fpv4-sp/hard/libc.a(lib_a-sbrkr.o) (errno)
/usr/local/gnat-arm/bin/../lib/gcc/arm-eabi/7.3.1/thumb/v7e-m/fpv4-sp/hard/libgcc.a(_arm_addsubdf3.o)
                              /usr/local/gnat-arm/arm-eabi/lib/gnat/ravenscar-full-stm32f4/adalib/libgnat.a(s-libsin.o) (__aeabi_dsub)
/usr/local/gnat-arm/bin/../lib/gcc/arm-eabi/7.3.1/thumb/v7e-m/fpv4-sp/hard/libgcc.a(_arm_truncdfsf2.o)
                              /usr/local/gnat-arm/arm-eabi/lib/gnat/ravenscar-full-stm32f4/adalib/libgnat.a(s-libsin.o) (__aeabi_d2f)
/usr/local/gnat-arm/bin/../lib/gcc/arm-eabi/7.3.1/thumb/v7e-m/fpv4-sp/hard/libgcc.a(_aeabi_ldivmod.o)
                              /home/aquox/Scrivania/Arm/fps-ravenscar-arm/build/s-bbtime.o (__aeabi_ldivmod)
/usr/local/gnat-arm/bin/../lib/gcc/arm-eabi/7.3.1/thumb/v7e-m/fpv4-sp/hard/libgcc.a(_aeabi_uldivmod.o)
                              /home/aquox/Scrivania/Arm/fps-ravenscar-arm/build/s-bbtime.o (__aeabi_uldivmod)
/usr/local/gnat-arm/bin/../lib/gcc/arm-eabi/7.3.1/thumb/v7e-m/fpv4-sp/hard/libgcc.a(_fixsfdi.o)
                              /usr/local/gnat-arm/arm-eabi/lib/gnat/ravenscar-full-stm32f4/adalib/libgnat.a(s-libsin.o) (__aeabi_f2lz)
/usr/local/gnat-arm/bin/../lib/gcc/arm-eabi/7.3.1/thumb/v7e-m/fpv4-sp/hard/libgcc.a(_fixunssfdi.o)
                              /usr/local/gnat-arm/bin/../lib/gcc/arm-eabi/7.3.1/thumb/v7e-m/fpv4-sp/hard/libgcc.a(_fixsfdi.o) (__aeabi_f2ulz)
/usr/local/gnat-arm/bin/../lib/gcc/arm-eabi/7.3.1/thumb/v7e-m/fpv4-sp/hard/libgcc.a(_fixunsdfdi.o)
                              /usr/local/gnat-arm/arm-eabi/lib/gnat/ravenscar-full-stm32f4/adalib/libgnat.a(s-libsin.o) (__aeabi_d2ulz)
/usr/local/gnat-arm/bin/../lib/gcc/arm-eabi/7.3.1/thumb/v7e-m/fpv4-sp/hard/libgcc.a(_udivmoddi4.o)
                              /usr/local/gnat-arm/bin/../lib/gcc/arm-eabi/7.3.1/thumb/v7e-m/fpv4-sp/hard/libgcc.a(_aeabi_ldivmod.o) (__udivmoddi4)
/usr/local/gnat-arm/bin/../lib/gcc/arm-eabi/7.3.1/thumb/v7e-m/fpv4-sp/hard/libgcc.a(unwind-arm.o)
                              gee.o (__aeabi_unwind_cpp_pr0)
/usr/local/gnat-arm/bin/../lib/gcc/arm-eabi/7.3.1/thumb/v7e-m/fpv4-sp/hard/libgcc.a(libunwind.o)
                              /usr/local/gnat-arm/bin/../lib/gcc/arm-eabi/7.3.1/thumb/v7e-m/fpv4-sp/hard/libgcc.a(unwind-arm.o) (restore_core_regs)
/usr/local/gnat-arm/bin/../lib/gcc/arm-eabi/7.3.1/thumb/v7e-m/fpv4-sp/hard/libgcc.a(pr-support.o)
                              /usr/local/gnat-arm/bin/../lib/gcc/arm-eabi/7.3.1/thumb/v7e-m/fpv4-sp/hard/libgcc.a(unwind-arm.o) (__gnu_unwind_execute)
/usr/local/gnat-arm/bin/../lib/gcc/arm-eabi/7.3.1/thumb/v7e-m/fpv4-sp/hard/libgcc.a(_dvmd_tls.o)
                              /usr/local/gnat-arm/bin/../lib/gcc/arm-eabi/7.3.1/thumb/v7e-m/fpv4-sp/hard/libgcc.a(_aeabi_ldivmod.o) (__aeabi_ldiv0)
/usr/local/gnat-arm/bin/../lib/gcc/arm-eabi/7.3.1/thumb/v7e-m/fpv4-sp/hard/libgcc.a(_arm_muldivdf3.o)
                              /usr/local/gnat-arm/bin/../lib/gcc/arm-eabi/7.3.1/thumb/v7e-m/fpv4-sp/hard/libgcc.a(_fixunssfdi.o) (__aeabi_dmul)
/usr/local/gnat-arm/bin/../lib/gcc/arm-eabi/7.3.1/thumb/v7e-m/fpv4-sp/hard/libgcc.a(_arm_fixunsdfsi.o)
                              /usr/local/gnat-arm/bin/../lib/gcc/arm-eabi/7.3.1/thumb/v7e-m/fpv4-sp/hard/libgcc.a(_fixunssfdi.o) (__aeabi_d2uiz)
/usr/local/gnat-arm/arm-eabi/lib/gnat/ravenscar-full-stm32f4/adalib//libgnat.a(newlib-bb.o)
                              /usr/local/gnat-arm/bin/../lib/gcc/arm-eabi/7.3.1/../../../../arm-eabi/lib/thumb/v7e-m/fpv4-sp/hard/libc.a(lib_a-sbrkr.o) (sbrk)
/usr/local/gnat-arm/bin/../lib/gcc/arm-eabi/7.3.1/../../../../arm-eabi/lib/thumb/v7e-m/fpv4-sp/hard/libc.a(lib_a-errno.o)
                              /usr/local/gnat-arm/arm-eabi/lib/gnat/ravenscar-full-stm32f4/adalib//libgnat.a(newlib-bb.o) (__errno)

Allocating common symbols
Common symbol       size              file

errno               0x4               /usr/local/gnat-arm/bin/../lib/gcc/arm-eabi/7.3.1/../../../../arm-eabi/lib/thumb/v7e-m/fpv4-sp/hard/libc.a(lib_a-reent.o)

Memory Configuration

Name             Origin             Length             Attributes
flash            0x0000000008000000 0x0000000000100000 xr
sram12           0x0000000020000000 0x0000000000020000 xrw
ccm              0x0000000010000000 0x0000000000010000 rw
*default*        0x0000000000000000 0xffffffffffffffff

Linker script and memory map

LOAD gee.o
LOAD b__gee.o
LOAD /home/aquox/Scrivania/Arm/fps-ravenscar-arm/build/ada.o
LOAD /home/aquox/Scrivania/Arm/fps-ravenscar-arm/build/gnat.o
LOAD /home/aquox/Scrivania/Arm/fps-ravenscar-arm/build/interfac.o
LOAD /home/aquox/Scrivania/Arm/fps-ravenscar-arm/build/system.o
LOAD /home/aquox/Scrivania/Arm/fps-ravenscar-arm/build/i-stm32.o
LOAD /home/aquox/Scrivania/Arm/fps-ravenscar-arm/build/i-stm32-pwr.o
LOAD /home/aquox/Scrivania/Arm/fps-ravenscar-arm/build/s-bb.o
LOAD /home/aquox/Scrivania/Arm/fps-ravenscar-arm/build/s-bbbopa.o
LOAD /home/aquox/Scrivania/Arm/fps-ravenscar-arm/build/s-bbcpsp.o
LOAD /home/aquox/Scrivania/Arm/fps-ravenscar-arm/build/s-bbmcpa.o
LOAD /home/aquox/Scrivania/Arm/fps-ravenscar-arm/build/s-except.o
LOAD /home/aquox/Scrivania/Arm/fps-ravenscar-arm/build/s-imgint.o
LOAD /home/aquox/Scrivania/Arm/fps-ravenscar-arm/build/s-maccod.o
LOAD /home/aquox/Scrivania/Arm/fps-ravenscar-arm/build/s-parame.o
LOAD /home/aquox/Scrivania/Arm/fps-ravenscar-arm/build/s-semiho.o
LOAD /home/aquox/Scrivania/Arm/fps-ravenscar-arm/build/s-stoele.o
LOAD /home/aquox/Scrivania/Arm/fps-ravenscar-arm/build/s-secsta.o
LOAD /home/aquox/Scrivania/Arm/fps-ravenscar-arm/build/g-debuti.o
LOAD /home/aquox/Scrivania/Arm/fps-ravenscar-arm/build/s-casuti.o
LOAD /home/aquox/Scrivania/Arm/fps-ravenscar-arm/build/s-strhas.o
LOAD /home/aquox/Scrivania/Arm/fps-ravenscar-arm/build/s-htable.o
LOAD /home/aquox/Scrivania/Arm/fps-ravenscar-arm/build/s-tasinf.o
LOAD /home/aquox/Scrivania/Arm/fps-ravenscar-arm/build/s-textio.o
LOAD /home/aquox/Scrivania/Arm/fps-ravenscar-arm/build/s-io.o
LOAD /home/aquox/Scrivania/Arm/fps-ravenscar-arm/build/s-traent.o
LOAD /home/aquox/Scrivania/Arm/fps-ravenscar-arm/build/s-unstyp.o
LOAD /home/aquox/Scrivania/Arm/fps-ravenscar-arm/build/i-stm32-rcc.o
LOAD /home/aquox/Scrivania/Arm/fps-ravenscar-arm/build/s-bbpara.o
LOAD /home/aquox/Scrivania/Arm/fps-ravenscar-arm/build/s-stm32.o
LOAD /home/aquox/Scrivania/Arm/fps-ravenscar-arm/build/s-wchcon.o
LOAD /home/aquox/Scrivania/Arm/fps-ravenscar-arm/build/s-wchjis.o
LOAD /home/aquox/Scrivania/Arm/fps-ravenscar-arm/build/s-wchcnv.o
LOAD /home/aquox/Scrivania/Arm/fps-ravenscar-arm/build/s-addima.o
LOAD /home/aquox/Scrivania/Arm/fps-ravenscar-arm/build/s-traceb.o
LOAD /home/aquox/Scrivania/Arm/fps-ravenscar-arm/build/s-excdeb.o
LOAD /home/aquox/Scrivania/Arm/fps-ravenscar-arm/build/s-excmac.o
LOAD /home/aquox/Scrivania/Arm/fps-ravenscar-arm/build/s-multip.o
LOAD /home/aquox/Scrivania/Arm/fps-ravenscar-arm/build/s-musplo.o
LOAD /home/aquox/Scrivania/Arm/fps-ravenscar-arm/build/s-exctab.o
LOAD /home/aquox/Scrivania/Arm/fps-ravenscar-arm/build/s-bcpcst.o
LOAD /home/aquox/Scrivania/Arm/fps-ravenscar-arm/build/s-bbbosu.o
LOAD /home/aquox/Scrivania/Arm/fps-ravenscar-arm/build/s-bbdead.o
LOAD /home/aquox/Scrivania/Arm/fps-ravenscar-arm/build/a-exctra.o
LOAD /home/aquox/Scrivania/Arm/fps-ravenscar-arm/build/s-memory.o
LOAD /home/aquox/Scrivania/Arm/fps-ravenscar-arm/build/s-trasym.o
LOAD /home/aquox/Scrivania/Arm/fps-ravenscar-arm/build/s-wchstw.o
LOAD /home/aquox/Scrivania/Arm/fps-ravenscar-arm/build/a-tags.o
LOAD /home/aquox/Scrivania/Arm/fps-ravenscar-arm/build/s-valuti.o
LOAD /home/aquox/Scrivania/Arm/fps-ravenscar-arm/build/s-valuns.o
LOAD /home/aquox/Scrivania/Arm/fps-ravenscar-arm/build/s-stalib.o
LOAD /home/aquox/Scrivania/Arm/fps-ravenscar-arm/build/a-except.o
LOAD /home/aquox/Scrivania/Arm/fps-ravenscar-arm/build/s-bbthqu.o
LOAD /home/aquox/Scrivania/Arm/fps-ravenscar-arm/build/s-bbprot.o
LOAD /home/aquox/Scrivania/Arm/fps-ravenscar-arm/build/s-bbthre.o
LOAD /home/aquox/Scrivania/Arm/fps-ravenscar-arm/build/s-bbinte.o
LOAD /home/aquox/Scrivania/Arm/fps-ravenscar-arm/build/s-bbcppr.o
LOAD /home/aquox/Scrivania/Arm/fps-ravenscar-arm/build/s-osinte.o
LOAD /home/aquox/Scrivania/Arm/fps-ravenscar-arm/build/a-elchha.o
LOAD /home/aquox/Scrivania/Arm/fps-ravenscar-arm/build/s-taspri.o
LOAD /home/aquox/Scrivania/Arm/fps-ravenscar-arm/build/s-bbtiev.o
LOAD /home/aquox/Scrivania/Arm/fps-ravenscar-arm/build/s-bbtime.o
LOAD /home/aquox/Scrivania/Arm/fps-ravenscar-arm/build/s-mufalo.o
LOAD /home/aquox/Scrivania/Arm/fps-ravenscar-arm/build/s-tasdeb.o
LOAD /home/aquox/Scrivania/Arm/fps-ravenscar-arm/build/s-taskin.o
LOAD /home/aquox/Scrivania/Arm/fps-ravenscar-arm/build/s-soflin.o
LOAD /home/aquox/Scrivania/Arm/fps-ravenscar-arm/build/s-taprop.o
LOAD /home/aquox/Scrivania/Arm/fps-ravenscar-arm/build/a-reatim.o
LOAD /home/aquox/Scrivania/Arm/fps-ravenscar-arm/build/a-retide.o
LOAD /home/aquox/Scrivania/Arm/fps-ravenscar-arm/build/s-taprob.o
LOAD /home/aquox/Scrivania/Arm/fps-ravenscar-arm/build/s-tpoben.o
LOAD /home/aquox/Scrivania/Arm/fps-ravenscar-arm/build/s-tpobmu.o
LOAD /home/aquox/Scrivania/Arm/fps-ravenscar-arm/build/s-tposen.o
LOAD /home/aquox/Scrivania/Arm/fps-ravenscar-arm/build/s-tasque.o
LOAD /home/aquox/Scrivania/Arm/fps-ravenscar-arm/build/s-tpobop.o
LOAD /home/aquox/Scrivania/Arm/fps-ravenscar-arm/build/s-tasres.o
LOAD /home/aquox/Scrivania/Arm/fps-ravenscar-arm/build/s-tarest.o
LOAD /home/aquox/Scrivania/Arm/fps-ravenscar-arm/build/a-taside.o
LOAD /home/aquox/Scrivania/Arm/fps-ravenscar-arm/build/a-sytaco.o
LOAD /home/aquox/Scrivania/Arm/fps-ravenscar-arm/build/activation_log_parameters.o
LOAD /home/aquox/Scrivania/Arm/fps-ravenscar-arm/build/activation_log.o
LOAD /home/aquox/Scrivania/Arm/fps-ravenscar-arm/build/activation_manager.o
LOAD /home/aquox/Scrivania/Arm/fps-ravenscar-arm/build/auxiliary.o
LOAD /home/aquox/Scrivania/Arm/fps-ravenscar-arm/build/external_event_server_parameters.o
LOAD /home/aquox/Scrivania/Arm/fps-ravenscar-arm/build/event_queue.o
LOAD /home/aquox/Scrivania/Arm/fps-ravenscar-arm/build/external_event_server.o
LOAD /home/aquox/Scrivania/Arm/fps-ravenscar-arm/build/production_workload.o
LOAD /home/aquox/Scrivania/Arm/fps-ravenscar-arm/build/activation_log_reader_parameters.o
LOAD /home/aquox/Scrivania/Arm/fps-ravenscar-arm/build/activation_log_reader.o
LOAD /home/aquox/Scrivania/Arm/fps-ravenscar-arm/build/on_call_producer_parameters.o
LOAD /home/aquox/Scrivania/Arm/fps-ravenscar-arm/build/request_buffer_parameters.o
LOAD /home/aquox/Scrivania/Arm/fps-ravenscar-arm/build/request_buffer.o
LOAD /home/aquox/Scrivania/Arm/fps-ravenscar-arm/build/on_call_producer.o
LOAD /home/aquox/Scrivania/Arm/fps-ravenscar-arm/build/regular_producer_parameters.o
LOAD /home/aquox/Scrivania/Arm/fps-ravenscar-arm/build/regular_producer.o
LOAD /usr/local/gnat-arm/arm-eabi/lib/gnat/ravenscar-full-stm32f4/adalib/libgnarl.a
LOAD /usr/local/gnat-arm/arm-eabi/lib/gnat/ravenscar-full-stm32f4/adalib/libgnat.a
LOAD /usr/local/gnat-arm/arm-eabi/lib/gnat/ravenscar-full-stm32f4/adalib//libgnat.a
LOAD /usr/local/gnat-arm/bin/../lib/gcc/arm-eabi/7.3.1/../../../../arm-eabi/lib/thumb/v7e-m/fpv4-sp/hard/libc.a
LOAD /usr/local/gnat-arm/bin/../lib/gcc/arm-eabi/7.3.1/thumb/v7e-m/fpv4-sp/hard/libgcc.a
LOAD /usr/local/gnat-arm/arm-eabi/lib/gnat/ravenscar-full-stm32f4/adalib//libgnat.a
START GROUP
LOAD /usr/local/gnat-arm/bin/../lib/gcc/arm-eabi/7.3.1/thumb/v7e-m/fpv4-sp/hard/libgcc.a
LOAD /usr/local/gnat-arm/bin/../lib/gcc/arm-eabi/7.3.1/../../../../arm-eabi/lib/thumb/v7e-m/fpv4-sp/hard/libc.a
END GROUP
                0x0000000000000000                __DYNAMIC = 0x0
                0x0000000000001000                _DEFAULT_STACK_SIZE = 0x1000

.text           0x0000000008000000    0x1cfac
 *(.vectors)
 .vectors       0x0000000008000000       0x14 /usr/local/gnat-arm/arm-eabi/lib/gnat/ravenscar-full-stm32f4/adalib/libgnat.a(start-rom.o)
 *(.text .text.* .gnu.linkonce.t*)
 .text          0x0000000008000014       0x14 gee.o
                0x0000000008000014                _ada_gee
 .text          0x0000000008000028      0x3a8 b__gee.o
                0x0000000008000028                ada_main__Tsec_default_sized_stacksBIP
                0x000000000800006c                adafinal
                0x0000000008000098                adainit
                0x0000000008000384                main
                0x00000000080003b4                ada_main___elabb
 .text          0x00000000080003d0        0x0 /home/aquox/Scrivania/Arm/fps-ravenscar-arm/build/ada.o
 .text          0x00000000080003d0        0x0 /home/aquox/Scrivania/Arm/fps-ravenscar-arm/build/gnat.o
 .text          0x00000000080003d0        0x0 /home/aquox/Scrivania/Arm/fps-ravenscar-arm/build/interfac.o
 .text          0x00000000080003d0        0x0 /home/aquox/Scrivania/Arm/fps-ravenscar-arm/build/system.o
 .text          0x00000000080003d0        0x0 /home/aquox/Scrivania/Arm/fps-ravenscar-arm/build/i-stm32.o
 .text          0x00000000080003d0      0x16c /home/aquox/Scrivania/Arm/fps-ravenscar-arm/build/i-stm32-pwr.o
                0x00000000080003d0                interfaces__stm32__pwr__cr_registerIP
                0x000000000800047c                interfaces__stm32__pwr__csr_registerIP
                0x000000000800051c                interfaces__stm32__pwr__pwr_peripheralIP
 .text          0x000000000800053c        0x0 /home/aquox/Scrivania/Arm/fps-ravenscar-arm/build/s-bb.o
 .text          0x000000000800053c        0x0 /home/aquox/Scrivania/Arm/fps-ravenscar-arm/build/s-bbbopa.o
 .text          0x000000000800053c        0x0 /home/aquox/Scrivania/Arm/fps-ravenscar-arm/build/s-bbcpsp.o
 .text          0x000000000800053c       0x5c /home/aquox/Scrivania/Arm/fps-ravenscar-arm/build/s-bbmcpa.o
                0x000000000800053c                system__bb__mcu_parameters__is_pwr_stabilized
                0x000000000800056c                system__bb__mcu_parameters__pwr_initialize
                0x0000000008000588                system__bb__mcu_parameters__pwr_overdrive_enable
 .text          0x0000000008000598        0x0 /home/aquox/Scrivania/Arm/fps-ravenscar-arm/build/s-except.o
 .text          0x0000000008000598      0x1e0 /home/aquox/Scrivania/Arm/fps-ravenscar-arm/build/s-imgint.o
                0x0000000008000598                system__img_int__image_integer
                0x00000000080006f0                system__img_int__set_image_integer
 .text          0x0000000008000778       0x28 /home/aquox/Scrivania/Arm/fps-ravenscar-arm/build/s-maccod.o
                0x0000000008000778                system__machine_code__asm_input_operand_listIP
                0x000000000800078c                system__machine_code__asm_output_operand_listIP
 .text          0x00000000080007a0       0x28 /home/aquox/Scrivania/Arm/fps-ravenscar-arm/build/s-parame.o
                0x00000000080007a0                system__parameters__adjust_storage_size
 .text          0x00000000080007c8      0x194 /home/aquox/Scrivania/Arm/fps-ravenscar-arm/build/s-semiho.o
                0x00000000080007c8                system__semihosting__TbufferBIP
                0x0000000008000848                system__semihosting__put
                0x00000000080008dc                system__semihosting__put__2
                0x0000000008000924                system__semihosting__get
 .text          0x000000000800095c       0x14 /home/aquox/Scrivania/Arm/fps-ravenscar-arm/build/s-stoele.o
                0x000000000800095c                system__storage_elements__storage_arrayIP
 .text          0x0000000008000970      0x334 /home/aquox/Scrivania/Arm/fps-ravenscar-arm/build/s-secsta.o
                0x0000000008000970                system__secondary_stack__memoryIP
                0x0000000008000984                system__secondary_stack__ss_stackIP
                0x00000000080009a0                system__secondary_stack__ss_allocate
                0x0000000008000a88                system__secondary_stack__ss_get_max
                0x0000000008000ab4                system__secondary_stack__ss_init
                0x0000000008000c54                system__secondary_stack__ss_mark
                0x0000000008000c78                system__secondary_stack__ss_release
 .text          0x0000000008000ca4      0x4b8 /home/aquox/Scrivania/Arm/fps-ravenscar-arm/build/g-debuti.o
                0x0000000008000ca4                gnat__debug_utilities__image__2
                0x0000000008000da8                gnat__debug_utilities__image
                0x0000000008000f74                gnat__debug_utilities__image_c
                0x0000000008000fdc                gnat__debug_utilities__value
 .text          0x000000000800115c      0x528 /home/aquox/Scrivania/Arm/fps-ravenscar-arm/build/s-casuti.o
                0x000000000800115c                system__case_util__to_lower
                0x00000000080011b8                system__case_util__to_lower__2
                0x0000000008001210                system__case_util__to_lower__3
                0x0000000008001320                system__case_util__to_mixed
                0x00000000080013b0                system__case_util__to_mixed__2
                0x00000000080014c0                system__case_util__to_upper
                0x000000000800151c                system__case_util__to_upper__2
                0x0000000008001574                system__case_util__to_upper__3
 .text          0x0000000008001684        0x0 /home/aquox/Scrivania/Arm/fps-ravenscar-arm/build/s-strhas.o
 .text          0x0000000008001684        0x0 /home/aquox/Scrivania/Arm/fps-ravenscar-arm/build/s-htable.o
 .text          0x0000000008001684        0x0 /home/aquox/Scrivania/Arm/fps-ravenscar-arm/build/s-tasinf.o
 .text          0x0000000008001684       0x88 /home/aquox/Scrivania/Arm/fps-ravenscar-arm/build/s-textio.o
                0x0000000008001684                system__text_io__initialize
                0x000000000800169c                system__text_io__is_tx_ready
                0x00000000080016b0                system__text_io__is_rx_ready
                0x00000000080016c4                system__text_io__get
                0x00000000080016e0                system__text_io__put
                0x00000000080016f8                system__text_io__use_cr_lf_for_new_line
 .text          0x000000000800170c      0x178 /home/aquox/Scrivania/Arm/fps-ravenscar-arm/build/s-io.o
                0x000000000800170c                system__io__new_line
                0x0000000008001748                system__io__put
                0x0000000008001788                system__io__put__2
                0x00000000080017c4                system__io__put__3
                0x000000000800180c                put_char_stderr
                0x0000000008001824                system__io__put_line
                0x0000000008001844                system__io__standard_output
                0x0000000008001858                system__io__standard_error
                0x000000000800186c                system__io__set_output
 .text          0x0000000008001884       0x44 /home/aquox/Scrivania/Arm/fps-ravenscar-arm/build/s-traent.o
                0x0000000008001884                system__traceback_entries__tracebacks_arrayIP
                0x0000000008001898                system__traceback_entries__pc_for
                0x00000000080018b0                system__traceback_entries__tb_entry_for
 .text          0x00000000080018c8        0x0 /home/aquox/Scrivania/Arm/fps-ravenscar-arm/build/s-unstyp.o
 .text          0x00000000080018c8     0x39a4 /home/aquox/Scrivania/Arm/fps-ravenscar-arm/build/i-stm32-rcc.o
                0x00000000080018c8                interfaces__stm32__rcc__cr_registerIP
                0x00000000080019b0                interfaces__stm32__rcc__pllcfgr_registerIP
                0x0000000008001a48                interfaces__stm32__rcc__Tcfgr_ppre_field_arrayBIP
                0x0000000008001ac4                interfaces__stm32__rcc__cfgr_ppre_fieldEQ
                0x0000000008001b50                interfaces__stm32__rcc__cfgr_ppre_fieldIP
                0x0000000008001b6c                interfaces__stm32__rcc__cfgr_registerEQ
                0x0000000008001b84                interfaces__stm32__rcc__cfgr_registerIP
                0x0000000008001c34                interfaces__stm32__rcc__cir_registerIP
                0x0000000008001d98                interfaces__stm32__rcc__ahb1rstr_registerIP
                0x0000000008001eb4                interfaces__stm32__rcc__ahb2rstr_registerIP
                0x0000000008001f0c                interfaces__stm32__rcc__ahb3rstr_registerIP
                0x0000000008001f3c                interfaces__stm32__rcc__apb1rstr_registerIP
                0x00000000080020e4                interfaces__stm32__rcc__apb2rstr_registerIP
                0x00000000080021e4                interfaces__stm32__rcc__ahb1enr_registerIP
                0x0000000008002348                interfaces__stm32__rcc__ahb2enr_registerIP
                0x00000000080023a0                interfaces__stm32__rcc__ahb3enr_registerIP
                0x00000000080023d0                interfaces__stm32__rcc__apb1enr_registerIP
                0x0000000008002578                interfaces__stm32__rcc__apb2enr_registerIP
                0x0000000008002688                interfaces__stm32__rcc__ahb1lpenr_registerIP
                0x0000000008002814                interfaces__stm32__rcc__ahb2lpenr_registerIP
                0x0000000008002870                interfaces__stm32__rcc__ahb3lpenr_registerIP
                0x00000000080028a0                interfaces__stm32__rcc__apb1lpenr_registerIP
                0x0000000008002a48                interfaces__stm32__rcc__apb2lpenr_registerIP
                0x0000000008002b58                interfaces__stm32__rcc__Tbdcr_rtcsel_field_arrayBIP
                0x0000000008002bbc                interfaces__stm32__rcc__bdcr_rtcsel_fieldEQ
                0x0000000008002c48                interfaces__stm32__rcc__bdcr_rtcsel_fieldIP
                0x0000000008002c64                interfaces__stm32__rcc__bdcr_registerEQ
                0x0000000008002c7c                interfaces__stm32__rcc__bdcr_registerIP
                0x0000000008002d10                interfaces__stm32__rcc__csr_registerIP
                0x0000000008002dbc                interfaces__stm32__rcc__sscgr_registerIP
                0x0000000008002e14                interfaces__stm32__rcc__plli2scfgr_registerIP
                0x0000000008002e70                interfaces__stm32__rcc__rcc_peripheralEQ
                0x0000000008005178                interfaces__stm32__rcc__rcc_peripheralIP
 .text          0x000000000800526c        0x0 /home/aquox/Scrivania/Arm/fps-ravenscar-arm/build/s-bbpara.o
 .text          0x000000000800526c      0x35c /home/aquox/Scrivania/Arm/fps-ravenscar-arm/build/s-stm32.o
                0x000000000800526c                system__stm32__ahb_prescalerIP
                0x0000000008005294                system__stm32__mcu_id_registerIP
                0x00000000080052ac                system__stm32__rcc_system_clocksIP
                0x00000000080052c0                system__stm32__apb_prescalerIP
                0x00000000080052d8                system__stm32__mc0x_prescalerRP
                0x0000000008005348                system__stm32__pllp_rangePredicate
                0x000000000800537c                system__stm32__system_clocks
 .text          0x00000000080055c8      0x184 /home/aquox/Scrivania/Arm/fps-ravenscar-arm/build/s-wchcon.o
                0x00000000080055c8                system__wch_con__get_wc_encoding_method
                0x0000000008005618                system__wch_con__get_wc_encoding_method__2
                0x0000000008005700                system__wch_con__is_start_of_encoding
 .text          0x000000000800574c      0x280 /home/aquox/Scrivania/Arm/fps-ravenscar-arm/build/s-wchjis.o
                0x000000000800574c                system__wch_jis__euc_to_jis
                0x00000000080057cc                system__wch_jis__jis_to_euc
                0x000000000800587c                system__wch_jis__jis_to_shift_jis
                0x0000000008005924                system__wch_jis__shift_jis_to_jis
 .text          0x00000000080059cc       0x14 /home/aquox/Scrivania/Arm/fps-ravenscar-arm/build/s-wchcnv.o
                0x00000000080059cc                system__wch_cnv__utf_32_stringIP
 .text          0x00000000080059e0      0x124 /home/aquox/Scrivania/Arm/fps-ravenscar-arm/build/s-addima.o
                0x00000000080059e0                _ada_system__address_image
 .text          0x0000000008005b04      0x190 /home/aquox/Scrivania/Arm/fps-ravenscar-arm/build/s-traceb.o
                0x0000000008005b04                system__traceback__unwind_context_typeIP
                0x0000000008005b14                system__traceback__callback_params_typeIP
                0x0000000008005c30                system__traceback__call_chain
 .text          0x0000000008005c94       0x54 /home/aquox/Scrivania/Arm/fps-ravenscar-arm/build/s-excdeb.o
                0x0000000008005c94                __gnat_debug_raise_exception
                0x0000000008005cb0                __gnat_unhandled_exception
                0x0000000008005cc4                __gnat_debug_raise_assert_failure
                0x0000000008005cd4                local_raise
 .text          0x0000000008005ce8       0xe4 /home/aquox/Scrivania/Arm/fps-ravenscar-arm/build/s-excmac.o
                0x0000000008005ce8                system__exceptions__machine__Texception_classBIP
                0x0000000008005cfc                system__exceptions__machine__uint32_t_arrayIP
                0x0000000008005d10                system__exceptions__machine__unwinder_cache_typeIP
                0x0000000008005d24                system__exceptions__machine__barrier_cache_typeIP
                0x0000000008005d38                system__exceptions__machine__cleanup_cache_typeIP
                0x0000000008005d4c                system__exceptions__machine__pr_cache_typeIP
                0x0000000008005d60                system__exceptions__machine__unwind_control_blockIP
                0x0000000008005d74                system__exceptions__machine__gnat_gcc_exceptionIP
                0x0000000008005d8c                system__exceptions__machine__new_occurrence
 .text          0x0000000008005dcc       0x10 /home/aquox/Scrivania/Arm/fps-ravenscar-arm/build/s-multip.o
                0x0000000008005dcc                system__multiprocessors__number_of_cpus
 .text          0x0000000008005ddc       0xb8 /home/aquox/Scrivania/Arm/fps-ravenscar-arm/build/s-musplo.o
                0x0000000008005ddc                system__multiprocessors__spin_locks__spin_lockIP
                0x0000000008005df4                system__multiprocessors__spin_locks__lock
                0x0000000008005e14                system__multiprocessors__spin_locks__locked
                0x0000000008005e3c                system__multiprocessors__spin_locks__try_lock
                0x0000000008005e78                system__multiprocessors__spin_locks__unlock
 .text          0x0000000008005e94      0x79c /home/aquox/Scrivania/Arm/fps-ravenscar-arm/build/s-exctab.o
                0x0000000008005e94                system__exception_table__exception_data_arrayIP
                0x0000000008005ecc                system__exception_table__ThtableBIP
                0x0000000008005f08                system__exception_table__has_name
                0x0000000008005fa4                system__exception_table__lookup
                0x000000000800601c                system__exception_table__hash
                0x00000000080060a4                system__exception_table__register
                0x00000000080061e8                system__exception_table__get_registered_exceptions
                0x00000000080062b8                system__exception_table__internal_exception
                0x00000000080064bc                system__exception_table__register_exception
                0x0000000008006568                system__exception_table__registered_exceptions_count
                0x00000000080065d8                system__exception_table___elabb
 .text          0x0000000008006630       0x70 /home/aquox/Scrivania/Arm/fps-ravenscar-arm/build/s-bcpcst.o
                0x0000000008006630                system__bb__cpu_primitives__context_switch_trigger__initialize_context_switch
                0x0000000008006640                system__bb__cpu_primitives__context_switch_trigger__trigger_context_switch
                0x0000000008006658                __gnat_pend_sv_trap
 .text          0x00000000080066a0      0x464 /home/aquox/Scrivania/Arm/fps-ravenscar-arm/build/s-bbbosu.o
                0x00000000080066a0                system__bb__board_support__time__max_timer_interval
                0x00000000080066b4                system__bb__board_support__time__read_clock
                0x0000000008006728                system__bb__board_support__time__clear_alarm_interrupt
                0x0000000008006740                system__bb__board_support__time__set_alarm
                0x0000000008006798                system__bb__board_support__time__install_alarm_handler
                0x00000000080067c8                system__bb__board_support__multiprocessors__number_of_cpus
                0x00000000080067dc                system__bb__board_support__multiprocessors__current_cpu
                0x00000000080067f0                system__bb__board_support__multiprocessors__poke_cpu
                0x0000000008006808                system__bb__board_support__multiprocessors__start_all_cpus
                0x0000000008006818                system__bb__board_support__interrupts__install_interrupt_handler
                0x000000000800687c                system__bb__board_support__interrupts__priority_of_interrupt
                0x00000000080068c8                system__bb__board_support__interrupts__power_down
                0x00000000080068d8                system__bb__board_support__interrupts__set_current_priority
                0x00000000080068f4                system__bb__board_support__sys_tick_registersIP
                0x0000000008006908                system__bb__board_support__TipBIP
                0x000000000800691c                system__bb__board_support__initialize_board
                0x0000000008006988                system__bb__board_support__timer_interrupt_handler
                0x0000000008006998                system__bb__board_support__interrupt_handler
                0x00000000080069e4                system__bb__board_support__enable_interrupt_request
                0x0000000008006a88                system__bb__board_support__to_pri
                0x0000000008006acc                system__bb__board_support__to_priority
 .text          0x0000000008006b04        0x0 /home/aquox/Scrivania/Arm/fps-ravenscar-arm/build/s-bbdead.o
 .text          0x0000000008006b04      0x16c /home/aquox/Scrivania/Arm/fps-ravenscar-arm/build/a-exctra.o
                0x0000000008006b04                ada__exceptions__traceback__tracebacks
 .text          0x0000000008006c70      0x11c /home/aquox/Scrivania/Arm/fps-ravenscar-arm/build/s-memory.o
                0x0000000008006c70                __gnat_malloc
                0x0000000008006cf0                __gnat_free
                0x0000000008006d18                __gnat_realloc
 .text          0x0000000008006d8c      0x648 /home/aquox/Scrivania/Arm/fps-ravenscar-arm/build/s-trasym.o
                0x0000000008006da8                system__traceback__symbolic__symbolic_traceback
                0x0000000008007304                system__traceback__symbolic__symbolic_traceback_no_hex
                0x0000000008007330                system__traceback__symbolic__symbolic_traceback__2
                0x0000000008007368                system__traceback__symbolic__symbolic_traceback_no_hex__2
                0x0000000008007390                system__traceback__symbolic__enable_cache
 .text          0x00000000080073d4      0x868 /home/aquox/Scrivania/Arm/fps-ravenscar-arm/build/s-wchstw.o
                0x0000000008007ac4                system__wch_stw__string_to_wide_string
                0x0000000008007ba0                system__wch_stw__string_to_wide_wide_string
 .text          0x0000000008007c3c     0x2910 /home/aquox/Scrivania/Arm/fps-ravenscar-arm/build/a-tags.o
                0x0000000008007c3c                ada__tags__tag_arrayIP
                0x0000000008007c74                ada__tags__interface_data_elementIP
                0x0000000008007c8c                ada__tags__interfaces_arrayIP
                0x0000000008007ccc                ada__tags__interface_dataIP
                0x0000000008007d00                ada__tags__select_specific_data_elementIP
                0x0000000008007d14                ada__tags__select_specific_data_arrayIP
                0x0000000008007d28                ada__tags__select_specific_dataIP
                0x0000000008007d44                ada__tags__address_arrayIP
                0x0000000008007d7c                ada__tags__tag_tableIP
                0x0000000008007db4                ada__tags__type_specific_dataIP
                0x0000000008007e0c                ada__tags__dispatch_table_wrapperIP
                0x0000000008007e40                ada__tags__no_dispatch_table_wrapperIP
                0x0000000008007e54                ada__tags__object_specific_data_arrayIP
                0x0000000008007e68                ada__tags__object_specific_dataIP
                0x0000000008007e84                ada__tags__external_tag_htable__TtableBIPXn
                0x0000000008007ec4                ada__tags__external_tag_htable__getXn
                0x0000000008007f60                ada__tags__external_tag_htable__get_firstXn
                0x0000000008007fa4                ada__tags__external_tag_htable__get_nextXn
                0x0000000008007fe0                ada__tags__external_tag_htable__get_non_nullXn
                0x0000000008008048                ada__tags__external_tag_htable__presentXn
                0x000000000800806c                ada__tags__external_tag_htable__removeXn
                0x0000000008008190                ada__tags__external_tag_htable__resetXn
                0x00000000080081ac                ada__tags__external_tag_htable__setXn
                0x0000000008008238                ada__tags__external_tag_htable__set_if_not_presentXn
                0x0000000008008344                ada__tags__htable_subprograms__equalXn
                0x0000000008008400                ada__tags__htable_subprograms__get_ht_linkXn
                0x000000000800850c                ada__tags__htable_subprograms__hashXn
                0x000000000800856c                ada__tags__htable_subprograms__set_ht_linkXn
                0x00000000080085d4                ada__tags__is_abstract
                0x000000000800864c                ada__tags__base_address
                0x000000000800867c                ada__tags__check_tsd
                0x0000000008008804                ada__tags__descendant_tag
                0x0000000008008858                ada__tags__displace
                0x0000000008008b54                ada__tags__dt
                0x0000000008008cd4                ada__tags__iw_membership
                0x0000000008008d3c                ada__tags__expanded_name
                0x0000000008008e18                ada__tags__external_tag
                0x0000000008008ef4                ada__tags__get_entry_index
                0x0000000008008f80                ada__tags__get_prim_op_kind
                0x000000000800900c                ada__tags__get_offset_index
                0x00000000080090b0                ada__tags__get_tagged_kind
                0x00000000080090e0                ada__tags__interface_ancestor_tags
                0x0000000008009294                ada__tags__internal_tag
                0x000000000800986c                ada__tags__is_descendant_at_same_level
                0x0000000008009a58                ada__tags__offset_to_top
                0x0000000008009ae8                ada__tags__needs_finalization
                0x0000000008009b3c                ada__tags__parent_size
                0x0000000008009c24                ada__tags__parent_tag
                0x0000000008009cbc                ada__tags__register_interface_offset
                0x0000000008009e90                ada__tags__register_tag
                0x0000000008009ea4                ada__tags__secondary_tag
                0x000000000800a004                ada__tags__set_entry_index
                0x000000000800a0a4                ada__tags__set_dynamic_offset_to_top
                0x000000000800a124                ada__tags__set_prim_op_kind
                0x000000000800a1c8                ada__tags__unregister_tag
                0x000000000800a220                ada__tags__wide_expanded_name
                0x000000000800a3ac                ada__tags__wide_wide_expanded_name
                0x000000000800a530                ada__tags___elabb
 .text          0x000000000800a54c      0x7e0 /home/aquox/Scrivania/Arm/fps-ravenscar-arm/build/s-valuti.o
                0x000000000800a54c                system__val_util__bad_value
                0x000000000800a69c                system__val_util__normalize_string
                0x000000000800a7fc                system__val_util__scan_exponent
                0x000000000800aa18                system__val_util__scan_plus_sign
                0x000000000800aaf4                system__val_util__scan_sign
                0x000000000800ac20                system__val_util__scan_trailing_blanks
                0x000000000800ac8c                system__val_util__scan_underscore
 .text          0x000000000800ad2c      0x634 /home/aquox/Scrivania/Arm/fps-ravenscar-arm/build/s-valuns.o
                0x000000000800ad2c                system__val_uns__scan_raw_unsigned
                0x000000000800b1d4                system__val_uns__scan_unsigned
                0x000000000800b25c                system__val_uns__value_unsigned
 .text          0x000000000800b360       0x64 /home/aquox/Scrivania/Arm/fps-ravenscar-arm/build/s-stalib.o
                0x000000000800b360                system__standard_library__exception_dataIP
                0x000000000800b380                system__standard_library__abort_undefer_direct
                0x000000000800b38c                system__standard_library__adafinal
                0x000000000800b3b4                __gnat_break_start
 .text          0x000000000800b3c4     0x3260 /home/aquox/Scrivania/Arm/fps-ravenscar-arm/build/a-except.o
                0x000000000800b3c4                ada__exceptions__exception_occurrenceIP
                0x000000000800b3fc                ada__exceptions__exception_data__append_info_addressXn
                0x000000000800b4a8                ada__exceptions__exception_data__append_info_basic_exception_informationXn
                0x000000000800b600                ada__exceptions__exception_data__append_info_characterXn
                0x000000000800b654                __gnat_append_info_e_msg
                0x000000000800b6e4                ada__exceptions__exception_data__append_info_exception_nameXn
                0x000000000800b770                Xn::ada__exceptions__exception_data__append_info_exception_name(void)
                0x000000000800b79c                ada__exceptions__exception_data__exception_info_maxlengthXn
                0x000000000800b7c0                ada__exceptions__exception_data__append_info_natXn
                0x000000000800b82c                ada__exceptions__exception_data__append_info_nlXn
                0x000000000800b854                ada__exceptions__exception_data__append_info_stringXn
                0x000000000800b8d8                __gnat_append_info_u_e_info
                0x000000000800b914                ada__exceptions__exception_data__append_info_untailored_exception_tracebackXn
                0x000000000800ba24                ada__exceptions__exception_data__basic_exception_info_maxlengthXn
                0x000000000800ba50                ada__exceptions__exception_data__exception_informationXn
                0x000000000800bb98                __gnat_exception_msg_len
                0x000000000800bbb4                ada__exceptions__exception_data__exception_name_lengthXn
                0x000000000800bbd0                Xn::ada__exceptions__exception_data__exception_name_length(void)
                0x000000000800bbf0                ada__exceptions__exception_data__untailored_exception_tracebackXn
                0x000000000800bc98                ada__exceptions__exception_data__untailored_exception_informationXn
                0x000000000800be0c                ada__exceptions__exception_data__set_exception_c_msgXn
                0x000000000800bf28                ada__exceptions__exception_data__set_exception_msgXn
                0x000000000800bfa0                ada__exceptions__exception_data__tailored_exception_tracebackXn
                0x000000000800bff8                ada__exceptions__exception_data__untailored_exception_traceback_maxlengthXn
                0x000000000800c020                ada__exceptions__exception_propagation__allocate_occurrenceXn
                0x000000000800c050                ada__exceptions__exception_propagation__gnat_gcc_exception_cleanupXn
                0x000000000800c078                ada__exceptions__exception_propagation__set_foreign_occurrenceXn
                0x000000000800c0c0                __gnat_setup_current_excep
                0x000000000800c118                __gnat_begin_handler
                0x000000000800c12c                __gnat_end_handler
                0x000000000800c148                __gnat_reraise_zcx
                0x000000000800c158                ada__exceptions__exception_propagation__propagate_gcc_exceptionXn
                0x000000000800c190                ada__exceptions__exception_propagation__propagate_exceptionXn
                0x000000000800c1a4                __gnat_set_exception_parameter
                0x000000000800c1e8                __gnat_unhandled_except_handler
                0x000000000800c204                __gnat_eid_for
                0x000000000800c220                __gnat_foreign_data_for
                0x000000000800c23c                __gnat_is_handled_by_others
                0x000000000800c25c                __gnat_language_for
                0x000000000800c294                ada__exceptions__exception_traces__notify_exceptionXn
                0x000000000800c3d0                __gnat_notify_handled_exception
                0x000000000800c3e8                __gnat_notify_unhandled_exception
                0x000000000800c414                ada__exceptions__exception_traces__unhandled_exception_terminateXn
                0x000000000800c440                ada__exceptions__stream_attributes__eid_to_stringXn
                0x000000000800c494                ada__exceptions__stream_attributes__eo_to_stringXn
                0x000000000800c4ec                ada__exceptions__stream_attributes__string_to_eidXn
                0x000000000800c544                ada__exceptions__stream_attributes__string_to_eoXn
                0x000000000800ca14                ada__exceptions__poll
                0x000000000800ca24                ada__exceptions__code_address_for_aaa
                0x000000000800ca3c                ada__exceptions__call_chain
                0x000000000800caa8                ada__exceptions__eid_to_string
                0x000000000800cad0                ada__exceptions__eo_to_string
                0x000000000800caf8                ada__exceptions__exception_identity
                0x000000000800cb14                ada__exceptions__exception_information
                0x000000000800cb54                ada__exceptions__exception_message
                0x000000000800cbcc                ada__exceptions__exception_name
                0x000000000800cc3c                ada__exceptions__exception_name__2
                0x000000000800cc68                ada__exceptions__exception_name_simple
                0x000000000800cd80                __gnat_get_exception_machine_occurrence
                0x000000000800cd9c                ada__exceptions__image
                0x000000000800cea0                __gnat_raise_constraint_error
                0x000000000800cec0                __gnat_raise_constraint_error_msg
                0x000000000800cee4                ada__exceptions__complete_occurrence
                0x000000000800cf1c                ada__exceptions__complete_and_propagate_occurrence
                0x000000000800cf30                ada__exceptions__raise_exception
                0x000000000800cf58                __gnat_raise_exception
                0x000000000800cf80                ada__exceptions__raise_exception_no_defer
                0x000000000800cfc4                __gnat_raise_from_controlled_operation
                0x000000000800d2e0                ada__exceptions__create_occurrence_from_signal_handler
                0x000000000800d318                __gnat_create_machine_occurrence_from_signal_handler
                0x000000000800d33c                ada__exceptions__raise_from_signal_handler
                0x000000000800d358                __gnat_raise_program_error
                0x000000000800d378                __gnat_raise_program_error_msg
                0x000000000800d398                __gnat_raise_storage_error
                0x000000000800d3b8                __gnat_raise_storage_error_msg
                0x000000000800d3d8                ada__exceptions__raise_with_location_and_msg
                0x000000000800d408                __gnat_raise_with_msg
                0x000000000800d46c                __gnat_rcheck_CE_Access_Check
                0x000000000800d488                __gnat_rcheck_CE_Null_Access_Parameter
                0x000000000800d4a4                __gnat_rcheck_CE_Discriminant_Check
                0x000000000800d4c0                __gnat_rcheck_CE_Divide_By_Zero
                0x000000000800d4dc                __gnat_rcheck_CE_Explicit_Raise
                0x000000000800d4f8                __gnat_rcheck_CE_Index_Check
                0x000000000800d514                __gnat_rcheck_CE_Invalid_Data
                0x000000000800d530                __gnat_rcheck_CE_Length_Check
                0x000000000800d54c                __gnat_rcheck_CE_Null_Exception_Id
                0x000000000800d568                __gnat_rcheck_CE_Null_Not_Allowed
                0x000000000800d584                __gnat_rcheck_CE_Overflow_Check
                0x000000000800d5a0                __gnat_rcheck_CE_Partition_Check
                0x000000000800d5bc                __gnat_rcheck_CE_Range_Check
                0x000000000800d5d8                __gnat_rcheck_CE_Tag_Check
                0x000000000800d5f4                __gnat_rcheck_PE_Access_Before_Elaboration
                0x000000000800d60c                __gnat_rcheck_PE_Accessibility_Check
                0x000000000800d624                __gnat_rcheck_PE_Address_Of_Intrinsic
                0x000000000800d63c                __gnat_rcheck_PE_Aliased_Parameters
                0x000000000800d654                __gnat_rcheck_PE_All_Guards_Closed
                0x000000000800d66c                __gnat_rcheck_PE_Bad_Predicated_Generic_Type
                0x000000000800d684                __gnat_rcheck_PE_Build_In_Place_Mismatch
                0x000000000800d69c                __gnat_rcheck_PE_Current_Task_In_Entry_Body
                0x000000000800d6b4                __gnat_rcheck_PE_Duplicated_Entry_Address
                0x000000000800d6cc                __gnat_rcheck_PE_Explicit_Raise
                0x000000000800d6e4                __gnat_rcheck_PE_Implicit_Return
                0x000000000800d6fc                __gnat_rcheck_PE_Misaligned_Address_Value
                0x000000000800d714                __gnat_rcheck_PE_Missing_Return
                0x000000000800d72c                __gnat_rcheck_PE_Non_Transportable_Actual
                0x000000000800d744                __gnat_rcheck_PE_Overlaid_Controlled_Object
                0x000000000800d75c                __gnat_rcheck_PE_Potentially_Blocking_Operation
                0x000000000800d774                __gnat_rcheck_PE_Stream_Operation_Not_Allowed
                0x000000000800d78c                __gnat_rcheck_PE_Stubbed_Subprogram_Called
                0x000000000800d7a4                __gnat_rcheck_PE_Unchecked_Union_Restriction
                0x000000000800d7bc                __gnat_rcheck_SE_Empty_Storage_Pool
                0x000000000800d7d4                __gnat_rcheck_SE_Explicit_Raise
                0x000000000800d7ec                __gnat_rcheck_SE_Infinite_Recursion
                0x000000000800d804                __gnat_rcheck_SE_Object_Too_Large
                0x000000000800d81c                __gnat_rcheck_CE_Access_Check_ext
                0x000000000800d854                __gnat_rcheck_CE_Index_Check_ext
                0x000000000800da74                __gnat_rcheck_CE_Invalid_Data_ext
                0x000000000800dc8c                __gnat_rcheck_CE_Range_Check_ext
                0x000000000800de90                __gnat_rcheck_PE_Finalize_Raised_Exception
                0x000000000800dec4                __gnat_reraise
                0x000000000800def4                __gnat_reraise_library_exception_if_any
                0x000000000800df58                ada__exceptions__reraise_occurrence
                0x000000000800df78                ada__exceptions__reraise_occurrence_always
                0x000000000800df88                ada__exceptions__reraise_occurrence_no_defer
                0x000000000800dfc0                ada__exceptions__save_occurrence
                0x000000000800e038                ada__exceptions__save_occurrence__2
                0x000000000800e068                ada__exceptions__string_to_eid
                0x000000000800e088                ada__exceptions__string_to_eo
                0x000000000800e0a8                __gnat_to_stderr_char
                0x000000000800e0c0                __gnat_to_stderr
                0x000000000800e114                __gnat_transfer_occurrence
                0x000000000800e12c                ada__exceptions__triggered_by_abort
                0x000000000800e16c                ada__exceptions__wide_exception_name
                0x000000000800e298                ada__exceptions__wide_exception_name__2
                0x000000000800e3c4                ada__exceptions__wide_wide_exception_name
                0x000000000800e4e8                ada__exceptions__wide_wide_exception_name__2
                0x000000000800e60c                ada__exceptions__code_address_for_zzz
 .text          0x000000000800e624     0x1108 /home/aquox/Scrivania/Arm/fps-ravenscar-arm/build/s-bbthqu.o
                0x000000000800e624                system__bb__threads__queues__table_recordIP
                0x000000000800e638                system__bb__threads__queues__Tarray_table_recordBIP
                0x000000000800e64c                system__bb__threads__queues__initialize_task_table
                0x000000000800e6dc                system__bb__threads__queues__get_check
                0x000000000800e728                system__bb__threads__queues__set_check
                0x000000000800e770                system__bb__threads__queues__add_dm
                0x000000000800e7dc                system__bb__threads__queues__add_execution
                0x000000000800e848                system__bb__threads__queues__print_table
                0x000000000800e984                system__bb__threads__queues__change_priority
                0x000000000800ebc8                system__bb__threads__queues__change_fake_number_id
                0x000000000800ebf4                system__bb__threads__queues__change_relative_deadline
                0x000000000800ec30                system__bb__threads__queues__change_absolute_deadline
                0x000000000800ec6c                __gnat_context_switch_needed
                0x000000000800edd0                system__bb__threads__queues__current_priority
                0x000000000800ee28                system__bb__threads__queues__extract
                0x000000000800efc4                system__bb__threads__queues__extract_first_alarm
                0x000000000800f044                system__bb__threads__queues__first_thread
                0x000000000800f064                system__bb__threads__queues__get_next_alarm_time
                0x000000000800f0ac                system__bb__threads__queues__insert
                0x000000000800f34c                system__bb__threads__queues__insert_alarm
                0x000000000800f4fc                system__bb__threads__queues__running_thread
                0x000000000800f51c                system__bb__threads__queues__wakeup_expired_alarms
                0x000000000800f59c                system__bb__threads__queues__yield
 .text          0x000000000800f72c       0x60 /home/aquox/Scrivania/Arm/fps-ravenscar-arm/build/s-bbprot.o
                0x000000000800f72c                system__bb__protection__enter_kernel
                0x000000000800f738                system__bb__protection__leave_kernel
 .text          0x000000000800f78c      0x570 /home/aquox/Scrivania/Arm/fps-ravenscar-arm/build/s-bbthre.o
                0x000000000800f78c                system__bb__threads__thread_descriptorIP
                0x000000000800f7b8                system__bb__threads__get_affinity
                0x000000000800f7e4                system__bb__threads__get_cpu
                0x000000000800f838                system__bb__threads__get_atcb
                0x000000000800f85c                system__bb__threads__get_priority
                0x000000000800f9e8                system__bb__threads__initialize
                0x000000000800fa70                system__bb__threads__initialize_slave
                0x000000000800fae8                system__bb__threads__set_atcb
                0x000000000800fb14                system__bb__threads__set_priority
                0x000000000800fb38                system__bb__threads__set_fake_number_id
                0x000000000800fb5c                system__bb__threads__set_relative_deadline
                0x000000000800fb84                system__bb__threads(short, long,...)(...)( *)
                0x000000000800fbf8                system__bb__threads__thread_create
                0x000000000800fc48                system__bb__threads__thread_self
                0x000000000800fc58                system__bb__threads__wakeup
 .text          0x000000000800fcfc      0x298 /home/aquox/Scrivania/Arm/fps-ravenscar-arm/build/s-bbinte.o
                0x000000000800fcfc                system__bb__interrupts__Tinterrupt_stacksBIP
                0x000000000800fd10                system__bb__interrupts__Tinterrupt_stack_tableBIP
                0x000000000800fd24                system__bb__interrupts__attach_handler
                0x000000000800fd68                system__bb__interrupts__current_interrupt
                0x000000000800fdb8                system__bb__interrupts__interrupt_wrapper
                0x000000000800fef8                system__bb__interrupts__within_interrupt_stack
                0x000000000800ff40                system__bb__interrupts__initialize_interrupts
 .text          0x000000000800ff94      0x468 /home/aquox/Scrivania/Arm/fps-ravenscar-arm/build/s-bbcppr.o
                0x000000000800ff94                system__bb__cpu_primitives__Tcontext_bufferBIP
                0x000000000800ffa8                system__bb__cpu_primitives__hardware_contextIP
                0x000000000800ffbc                primask
                0x000000000800ffd8                system__bb__cpu_primitives__initialize_cpu
                0x000000000801006c                system__bb__cpu_primitives__context_switch
                0x0000000008010078                system__bb__cpu_primitives__get_context
                0x000000000801009c                system__bb__cpu_primitives__gnat_error_handler
                0x0000000008010178                __gnat_irq_trap
                0x00000000080101cc                __gnat_sv_call_trap
                0x00000000080101d8                system__bb__cpu_primitives__set_context
                0x0000000008010210                __gnat_sys_tick_trap
                0x00000000080102ac                system__bb__cpu_primitives__initialize_context
                0x0000000008010328                system__bb__cpu_primitives__install_error_handlers
                0x0000000008010390                system__bb__cpu_primitives__install_trap_handler
                0x00000000080103cc                system__bb__cpu_primitives__disable_interrupts
                0x00000000080103dc                system__bb__cpu_primitives__enable_interrupts
 .text          0x00000000080103fc        0x0 /home/aquox/Scrivania/Arm/fps-ravenscar-arm/build/s-osinte.o
 .text          0x00000000080103fc      0x2b0 /home/aquox/Scrivania/Arm/fps-ravenscar-arm/build/a-elchha.o
                0x0000000008010418                __gnat_last_chance_handler
 .text          0x00000000080106ac       0x28 /home/aquox/Scrivania/Arm/fps-ravenscar-arm/build/s-taspri.o
                0x00000000080106ac                system__task_primitives__private_dataIP
 .text          0x00000000080106d4      0x64c /home/aquox/Scrivania/Arm/fps-ravenscar-arm/build/s-bbtiev.o
                0x00000000080106d4                system__bb__timing_events__timing_eventIP
                0x0000000008010718                system__bb__timing_events___size
                0x0000000008010734                system__bb__timing_events__timing_eventDF
                0x000000000801074c                system__bb__timing_events__Ttiming_eventCFD
                0x000000000801077c                system__bb__timing_events__finalize_spec
                0x0000000008010790                system__bb__timing_events__set_handler
                0x0000000008010830                system__bb__timing_events__cancel_handler
                0x00000000080108ac                system__bb__timing_events__execute_expired_timing_events
                0x000000000801097c                system__bb__timing_events__get_next_timeout
                0x00000000080109c0                system__bb__timing_events__time_of_event
                0x0000000008010cd8                system__bb__timing_events___elabb
                0x0000000008010d04                system__bb__timing_events___elabs
 .text          0x0000000008010d20      0xfe8 /home/aquox/Scrivania/Arm/fps-ravenscar-arm/build/s-bbtime.o
                0x0000000008010d20                system__bb__time__composite_execution_timeIP
                0x0000000008010d34                system__bb__time__composite_timeIP
                0x0000000008010de8                system__bb__time__clock
                0x0000000008010e94                system__bb__time__delay_until
                0x0000000008010f74                system__bb__time__epoch
                0x0000000008010f8c                system__bb__time__get_next_timeout
                0x0000000008010fdc                system__bb__time__initialize_timers
                0x0000000008011078                system__bb__time__update_alarm
                0x00000000080111b4                system__bb__time__Omultiply
                0x00000000080112b8                system__bb__time__Omultiply__2
                0x00000000080112e0                system__bb__time__Oadd
                0x00000000080113d0                system__bb__time__Oadd__2
                0x00000000080114c0                system__bb__time__Oadd__3
                0x0000000008011520                system__bb__time__Osubtract
                0x000000000801160c                system__bb__time__Osubtract__2
                0x0000000008011710                system__bb__time__Osubtract__3
                0x0000000008011770                system__bb__time__Osubtract__4
                0x00000000080117ac                system__bb__time(double &&, int, void, int, double,...)
                0x0000000008011830                system__bb__time__Odivide__2
                0x0000000008011894                system__bb__time__microseconds
                0x00000000080118dc                system__bb__time__milliseconds
                0x0000000008011b50                system__bb__time__nanoseconds
                0x0000000008011c54                system__bb__time__to_duration
                0x0000000008011c84                system__bb__time__to_time_span
                0x0000000008011cb4                system__bb__time__Oconcat
 .text          0x0000000008011d08      0x1a4 /home/aquox/Scrivania/Arm/fps-ravenscar-arm/build/s-mufalo.o
                0x0000000008011d08                system__multiprocessors__fair_locks__Tspinning_arrayBIP
                0x0000000008011d1c                system__multiprocessors__fair_locks__fair_lockIP
                0x0000000008011d3c                system__multiprocessors__fair_locks__initialize
                0x0000000008011d5c                system__multiprocessors__fair_locks__lock
                0x0000000008011dec                system__multiprocessors__fair_locks__locked
                0x0000000008011e0c                system__multiprocessors__fair_locks__next_spinning
                0x0000000008011e30                system__multiprocessors__fair_locks__try_lock
                0x0000000008011e54                system__multiprocessors__fair_locks__unlock
 .text          0x0000000008011eac       0x4c /home/aquox/Scrivania/Arm/fps-ravenscar-arm/build/s-tasdeb.o
                0x0000000008011eac                system__tasking__debug__add_task_id
 .text          0x0000000008011ef8      0x2a4 /home/aquox/Scrivania/Arm/fps-ravenscar-arm/build/s-taskin.o
                0x0000000008011ef8                system__tasking__E5sIP
                0x0000000008011f10                system__tasking__entry_queueIP
                0x0000000008011f30                system__tasking__activation_chainIP
                0x0000000008011f48                __gnat_get_secondary_stack
                0x0000000008011f6c                system__tasking__initialize_atcb
                0x0000000008012070                system__tasking__initialize
                0x0000000008012160                system__tasking(short,...)(long, float)
                0x0000000008012170                system__tasking__storage_size
 .text          0x000000000801219c      0x1f0 /home/aquox/Scrivania/Arm/fps-ravenscar-arm/build/s-soflin.o
                0x000000000801219c                system__soft_links__abort_defer_raven
                0x00000000080121ac                system__soft_links__abort_undefer_raven
                0x00000000080121bc                system__soft_links__get_current_excep_soft
                0x00000000080121e0                system__soft_links__get_gnat_exception
                0x00000000080121f8                system__soft_links__adafinal_soft
                0x0000000008012210                system__soft_links__task_lock_soft
                0x000000000801227c                system__soft_links__task_termination_soft
                0x0000000008012320                system__soft_links__task_unlock_soft
                0x000000000801237c                system__soft_links___elabs
 .text          0x000000000801238c      0x62c /home/aquox/Scrivania/Arm/fps-ravenscar-arm/build/s-taprop.o
                0x000000000801238c                system__task_primitives__operations__Tidle_stacksBIP
                0x00000000080123a0                system__task_primitives__operations__Tidle_stacks_tableBIP
                0x00000000080123b4                system__task_primitives__operations__Tidle_tasksBIP
                0x00000000080123c8                system__task_primitives__operations(short,...)(long, float)
                0x00000000080123d8                system__task_primitives__operations(short, long,...)(...)( *)
                0x00000000080123f0                system__task_primitives__operations__delay_until
                0x0000000008012434                system__task_primitives__operations__monotonic_clock
                0x0000000008012448                system__task_primitives__operations__wakeup
                0x0000000008012478                system__task_primitives__operations__set_priority
                0x0000000008012490                system__task_primitives__operations__get_priority
                0x00000000080124d4                system__task_primitives__operations__set_relative_deadline
                0x00000000080124f0                system__task_primitives__operations__get_affinity
                0x0000000008012524                system__task_primitives__operations__get_cpu
                0x0000000008012558                system__task_primitives__operations__get_thread_id
                0x0000000008012584                system__task_primitives__operations__enter_task
                0x00000000080125cc                system__task_primitives__operations(int, double, long,...)
                0x00000000080125fc                system__task_primitives__operations__initialize_tcb
                0x0000000008012618                __gnat_initialize_slave
                0x00000000080126e8                system__task_primitives__operations__create_task
                0x0000000008012780                system__task_primitives__operations__initialize
                0x00000000080128b4                system__task_primitives__operations__initialize_idle
                0x000000000801299c                system__task_primitives__operations__is_task_context
 .text          0x00000000080129b8      0xda4 /home/aquox/Scrivania/Arm/fps-ravenscar-arm/build/a-reatim.o
                0x00000000080129b8                ada__real_time__Oadd__2
                0x00000000080129e4                ada__real_time__Omultiply
                0x0000000008012ae4                ada__real_time__Omultiply__2
                0x0000000008012b0c                ada__real_time__Oadd
                0x0000000008012bf8                ada__real_time__Oadd__3
                0x0000000008012c54                ada__real_time__Osubtract
                0x0000000008012d3c                ada__real_time__Osubtract__2
                0x0000000008012e40                ada__real_time__Osubtract__3
                0x0000000008012ea0                ada__real_time__Osubtract__4
                0x0000000008012edc                ada__real_time(double &&, int, void, int, double,...)
                0x0000000008012f60                ada__real_time__Odivide__2
                0x0000000008012fc4                ada__real_time__clock
                0x0000000008012fd8                ada__real_time__microseconds
                0x0000000008013020                ada__real_time__milliseconds
                0x0000000008013068                ada__real_time__minutes
                0x0000000008013364                ada__real_time__nanoseconds
                0x00000000080133b4                ada__real_time__rounded_div
                0x000000000801346c                ada__real_time__seconds
                0x00000000080134a4                ada__real_time__split
                0x000000000801352c                ada__real_time__time_of
                0x00000000080136f0                ada__real_time__to_duration
                0x0000000008013720                ada__real_time__to_time_span
                0x0000000008013750                ada__real_time___elabb
 .text          0x000000000801375c       0x60 /home/aquox/Scrivania/Arm/fps-ravenscar-arm/build/a-retide.o
                0x000000000801375c                ada__real_time__delays__delay_until
                0x000000000801379c                ada__real_time__delays__to_duration
 .text          0x00000000080137bc      0x1e8 /home/aquox/Scrivania/Arm/fps-ravenscar-arm/build/s-taprob.o
                0x00000000080137bc                system__tasking__protected_objects__entry_bodyIP
                0x00000000080137dc                system__tasking__protected_objects__initialize_protection
                0x0000000008013850                system__tasking__protected_objects__lock
                0x0000000008013924                system__tasking__protected_objects__unlock
                0x0000000008013998                system__tasking__protected_objects___elabb
 .text          0x00000000080139a4      0x294 /home/aquox/Scrivania/Arm/fps-ravenscar-arm/build/s-tpoben.o
                0x00000000080139a4                system__tasking__protected_objects__entries__protected_entry_body_arrayIP
                0x00000000080139e0                system__tasking__protected_objects__entries__protected_entry_queue_arrayIP
                0x0000000008013a1c                system__tasking__protected_objects__entries__protected_entry_queue_max_arrayIP
                0x0000000008013a30                system__tasking__protected_objects__entries__protection_entriesIP
                0x0000000008013a90                system__tasking__protected_objects__entries__initialize_protection_entries
                0x0000000008013be0                system__tasking__protected_objects__entries__lock_entries
                0x0000000008013c0c                system__tasking__protected_objects__entries__unlock_entries
 .text          0x0000000008013c38      0x210 /home/aquox/Scrivania/Arm/fps-ravenscar-arm/build/s-tpobmu.o
                0x0000000008013c38                system__tasking__protected_objects__multiprocessors__entry_call_listIP
                0x0000000008013c58                system__tasking__protected_objects__multiprocessors(short,...)(long double, void,...)(double)
                0x0000000008013d78                system__tasking__protected_objects__multiprocessors__wakeup_served_entry
                0x0000000008013e18                system__tasking__protected_objects__multiprocessors___elabb
 .text          0x0000000008013e48      0x238 /home/aquox/Scrivania/Arm/fps-ravenscar-arm/build/s-tposen.o
                0x0000000008013e48                system__tasking__protected_objects__single_entry__exceptional_complete_single_entry_body
                0x0000000008013e64                system__tasking__protected_objects__single_entry__initialize_protection_entry
                0x0000000008013e9c                system__tasking__protected_objects__single_entry__lock_entry
                0x0000000008013eb4                system__tasking__protected_objects__single_entry__protected_count_entry
                0x0000000008013ed8                system__tasking__protected_objects__single_entry__protected_single_entry_call
                0x0000000008013fd8                system__tasking__protected_objects__single_entry__protected_single_entry_caller
                0x0000000008013ff4                system__tasking__protected_objects__single_entry__service_entry
                0x0000000008014068                system__tasking__protected_objects__single_entry__unlock_entry
 .text          0x0000000008014080      0x478 /home/aquox/Scrivania/Arm/fps-ravenscar-arm/build/s-tasque.o
                0x0000000008014154                system__tasking__queuing__count_waiting
                0x0000000008014294                system__tasking__queuing__enqueue
                0x0000000008014338                system__tasking__queuing__select_protected_entry_call
 .text          0x00000000080144f8      0x718 /home/aquox/Scrivania/Arm/fps-ravenscar-arm/build/s-tpobop.o
                0x00000000080144f8                system__tasking__protected_objects__operations__communication_blockIP
                0x0000000008014510                system__tasking__protected_objects__operations__complete_entry_body
                0x0000000008014528                system__tasking__protected_objects__operations__exceptional_complete_entry_body
                0x0000000008014980                system__tasking__protected_objects__operations__po_service_entries
                0x0000000008014ac0                system__tasking__protected_objects__operations__protected_count
                0x0000000008014b04                system__tasking__protected_objects__operations__protected_entry_call
                0x0000000008014bbc                system__tasking__protected_objects__operations__protected_entry_caller
                0x0000000008014bec                system__tasking__protected_objects__operations__service_entries
 .text          0x0000000008014c10        0x0 /home/aquox/Scrivania/Arm/fps-ravenscar-arm/build/s-tasres.o
 .text          0x0000000008014c10      0x4ec /home/aquox/Scrivania/Arm/fps-ravenscar-arm/build/s-tarest.o
                0x0000000008014ce8                __gnat_activate_all_tasks
                0x0000000008014d04                system__tasking__restricted__stages__activate_restricted_tasks
                0x0000000008014dfc                system__tasking__restricted__stages__complete_restricted_activation
                0x0000000008014e0c                system__tasking__restricted__stages__complete_restricted_task
                0x0000000008014f80                system__tasking__restricted__stages__create_restricted_task
                0x0000000008015034                system__tasking__restricted__stages__create_restricted_task_sequential
                0x00000000080150a4                system__tasking__restricted__stages__finalize_global_tasks
                0x00000000080150b8                system__tasking__restricted__stages__restricted_terminated
                0x00000000080150f0                system__tasking__restricted__stages___elabb
 .text          0x00000000080150fc      0x1b4 /home/aquox/Scrivania/Arm/fps-ravenscar-arm/build/a-taside.o
                0x00000000080150fc                ada__task_identification__Oeq
                0x000000000801512c                ada__task_identification__abort_task
                0x0000000008015140                ada__task_identification__activation_is_complete
                0x000000000801518c                ada__task_identification__convert_ids
                0x00000000080151a4                ada__task_identification__convert_ids__2
                0x00000000080151bc                ada__task_identification__current_task
                0x00000000080151f0                ada__task_identification__environment_task
                0x000000000801520c                ada__task_identification__image
                0x0000000008015244                ada__task_identification__is_callable
                0x0000000008015274                ada__task_identification__is_terminated
 .text          0x00000000080152b0      0x2c0 /home/aquox/Scrivania/Arm/fps-ravenscar-arm/build/a-sytaco.o
                0x00000000080152b0                ada__synchronous_task_control__suspension_objectVIP
                0x00000000080152d8                ada__synchronous_task_control__suspension_object__wait_B2s
                0x00000000080152f4                ada__synchronous_task_control__suspension_object__get_openN
                0x0000000008015334                ada__synchronous_task_control__suspension_object__get_openP
                0x0000000008015388                ada__synchronous_task_control__suspension_object__set_falseN
                0x00000000080153c8                ada__synchronous_task_control__suspension_object__set_falseP
                0x0000000008015414                ada__synchronous_task_control__suspension_object__set_trueN
                0x0000000008015454                ada__synchronous_task_control__suspension_object__set_trueP
                0x00000000080154a0                ada__synchronous_task_control__suspension_object__wait_E1s
                0x0000000008015510                ada__synchronous_task_control__current_state
                0x000000000801552c                ada__synchronous_task_control__set_false
                0x0000000008015540                ada__synchronous_task_control__set_true
                0x0000000008015554                ada__synchronous_task_control__suspend_until_true
 .text          0x0000000008015570        0x0 /home/aquox/Scrivania/Arm/fps-ravenscar-arm/build/activation_log_parameters.o
 .text          0x0000000008015570      0x218 /home/aquox/Scrivania/Arm/fps-ravenscar-arm/build/activation_log.o
                0x0000000008015570                activation_log__activation_logTVIP
                0x0000000008015590                activation_log__write
                0x00000000080155a0                activation_log__read
                0x00000000080155d4                activation_log__finalize_spec
                0x00000000080155ec                activation_log__activation_log__writeN
                0x000000000801565c                activation_log__activation_log__writeP
                0x00000000080156a8                activation_log__activation_log__readN
                0x00000000080156fc                activation_log__activation_log__readP
                0x000000000801576c                activation_log___elabs
 .text          0x0000000008015788       0x9c /home/aquox/Scrivania/Arm/fps-ravenscar-arm/build/activation_manager.o
                0x0000000008015788                activation_manager__activation_sporadic
                0x00000000080157a0                activation_manager__activation_cyclic
                0x00000000080157d4                activation_manager___elabs
 .text          0x0000000008015824       0xc4 /home/aquox/Scrivania/Arm/fps-ravenscar-arm/build/auxiliary.o
                0x0000000008015824                auxiliary__due_activation
                0x0000000008015878                auxiliary__check_due
 .text          0x00000000080158e8        0xc /home/aquox/Scrivania/Arm/fps-ravenscar-arm/build/external_event_server_parameters.o
                0x00000000080158e8                external_event_server_parameters__server_operation
 .text          0x00000000080158f4      0x1c0 /home/aquox/Scrivania/Arm/fps-ravenscar-arm/build/event_queue.o
                0x00000000080158f4                event_queue__handlerTVIP
                0x0000000008015968                event_queue__handler__wait_B4s
                0x0000000008015984                event_queue__handler__signalN
                0x00000000080159c4                event_queue__handler__signalP
                0x0000000008015a10                event_queue__handler__wait_E3s
                0x0000000008015a8c                event_queue__handlerTF
                0x0000000008015aa4                event_queue___elabs
 .text          0x0000000008015ab4      0x300 /home/aquox/Scrivania/Arm/fps-ravenscar-arm/build/external_event_server.o
                0x0000000008015ab4                external_event_server__external_event_serverTKVIP
                0x0000000008015b9c                external_event_server__external_event_serverTKB
                0x0000000008015d4c                external_event_server__init
                0x0000000008015d5c                external_event_server___elabb
                0x0000000008015d78                external_event_server___elabs
 .text          0x0000000008015db4      0x500 /home/aquox/Scrivania/Arm/fps-ravenscar-arm/build/production_workload.o
                0x0000000008015df0                production_workload__small_whetstone
 .text          0x00000000080162b4       0x44 /home/aquox/Scrivania/Arm/fps-ravenscar-arm/build/activation_log_reader_parameters.o
                0x00000000080162b4                activation_log_reader_parameters__activation_log_reader_operation
 .text          0x00000000080162f8      0x2fc /home/aquox/Scrivania/Arm/fps-ravenscar-arm/build/activation_log_reader.o
                0x00000000080162f8                activation_log_reader__activation_log_readerTKVIP
                0x00000000080163a0                activation_log_reader__signal
                0x00000000080163b0                activation_log_reader__wait
                0x00000000080163d4                activation_log_reader__activation_log_readerTKB
                0x0000000008016584                activation_log_reader__init
                0x0000000008016594                activation_log_reader___elabb
                0x00000000080165b8                activation_log_reader___elabs
 .text          0x00000000080165f4       0x28 /home/aquox/Scrivania/Arm/fps-ravenscar-arm/build/on_call_producer_parameters.o
                0x00000000080165f4                on_call_producer_parameters__on_call_producer_operation
 .text          0x000000000801661c        0x0 /home/aquox/Scrivania/Arm/fps-ravenscar-arm/build/request_buffer_parameters.o
 .text          0x000000000801661c      0x3a4 /home/aquox/Scrivania/Arm/fps-ravenscar-arm/build/request_buffer.o
                0x000000000801661c                request_buffer__Trequest_buffer_tBIP
                0x0000000008016630                request_buffer__request_bufferTVIP
                0x00000000080166b8                request_buffer__P4bIP
                0x00000000080166d4                request_buffer__deposit
                0x00000000080166f8                request_buffer__extract
                0x00000000080169b0                request_buffer___elabb
 .text          0x00000000080169c0      0x2f8 /home/aquox/Scrivania/Arm/fps-ravenscar-arm/build/on_call_producer.o
                0x00000000080169c0                on_call_producer__on_call_producerTKVIP
                0x0000000008016a68                on_call_producer__start
                0x0000000008016a98                on_call_producer__on_call_producerTKB
                0x0000000008016c50                on_call_producer__init
                0x0000000008016c60                on_call_producer___elabb
                0x0000000008016c7c                on_call_producer___elabs
 .text          0x0000000008016cb8       0x70 /home/aquox/Scrivania/Arm/fps-ravenscar-arm/build/regular_producer_parameters.o
                0x0000000008016cb8                regular_producer_parameters__regular_producer_operation
 .text          0x0000000008016d28      0x334 /home/aquox/Scrivania/Arm/fps-ravenscar-arm/build/regular_producer.o
                0x0000000008016d28                regular_producer__regular_producerTKVIP
                0x0000000008016de4                regular_producer__regular_producerTKB
                0x0000000008016fcc                regular_producer__init
                0x0000000008016ff0                regular_producer___elabb
                0x0000000008017020                regular_producer___elabs
 .text          0x000000000801705c        0x0 /usr/local/gnat-arm/arm-eabi/lib/gnat/ravenscar-full-stm32f4/adalib/libgnat.a(a-nuelfu.o)
 .text.ada__numerics__elementary_functions__Oexpon
                0x000000000801705c       0x70 /usr/local/gnat-arm/arm-eabi/lib/gnat/ravenscar-full-stm32f4/adalib/libgnat.a(a-nuelfu.o)
                0x000000000801705c                ada__numerics__elementary_functions__Oexpon
 .text.ada__numerics__elementary_functions__arccos
                0x00000000080170cc       0x28 /usr/local/gnat-arm/arm-eabi/lib/gnat/ravenscar-full-stm32f4/adalib/libgnat.a(a-nuelfu.o)
                0x00000000080170cc                ada__numerics__elementary_functions__arccos
 .text.ada__numerics__elementary_functions__arccos__2
                0x00000000080170f4       0xb4 /usr/local/gnat-arm/arm-eabi/lib/gnat/ravenscar-full-stm32f4/adalib/libgnat.a(a-nuelfu.o)
                0x00000000080170f4                ada__numerics__elementary_functions__arccos__2
 .text.ada__numerics__elementary_functions__arccosh
                0x00000000080171a8       0x2c /usr/local/gnat-arm/arm-eabi/lib/gnat/ravenscar-full-stm32f4/adalib/libgnat.a(a-nuelfu.o)
                0x00000000080171a8                ada__numerics__elementary_functions__arccosh
 .text.ada__numerics__elementary_functions__arccoth
                0x00000000080171d4       0x98 /usr/local/gnat-arm/arm-eabi/lib/gnat/ravenscar-full-stm32f4/adalib/libgnat.a(a-nuelfu.o)
                0x00000000080171d4                ada__numerics__elementary_functions__arccoth
 .text.ada__numerics__elementary_functions__arcsin
                0x000000000801726c       0x5c /usr/local/gnat-arm/arm-eabi/lib/gnat/ravenscar-full-stm32f4/adalib/libgnat.a(a-nuelfu.o)
                0x000000000801726c                ada__numerics__elementary_functions__arcsin
 .text.ada__numerics__elementary_functions__arcsin__2
                0x00000000080172c8       0xa0 /usr/local/gnat-arm/arm-eabi/lib/gnat/ravenscar-full-stm32f4/adalib/libgnat.a(a-nuelfu.o)
                0x00000000080172c8                ada__numerics__elementary_functions__arcsin__2
 .text.ada__numerics__elementary_functions__arcsinh
                0x0000000008017368        0x4 /usr/local/gnat-arm/arm-eabi/lib/gnat/ravenscar-full-stm32f4/adalib/libgnat.a(a-nuelfu.o)
                0x0000000008017368                ada__numerics__elementary_functions__arcsinh
 .text.ada__numerics__elementary_functions__arctan
                0x000000000801736c       0x30 /usr/local/gnat-arm/arm-eabi/lib/gnat/ravenscar-full-stm32f4/adalib/libgnat.a(a-nuelfu.o)
                0x000000000801736c                ada__numerics__elementary_functions__arctan
 .text.ada__numerics__elementary_functions__arccot
                0x000000000801739c       0x3c /usr/local/gnat-arm/arm-eabi/lib/gnat/ravenscar-full-stm32f4/adalib/libgnat.a(a-nuelfu.o)
                0x000000000801739c                ada__numerics__elementary_functions__arccot
 .text.ada__numerics__elementary_functions__arctan__2
                0x00000000080173d8       0xc4 /usr/local/gnat-arm/arm-eabi/lib/gnat/ravenscar-full-stm32f4/adalib/libgnat.a(a-nuelfu.o)
                0x00000000080173d8                ada__numerics__elementary_functions__arctan__2
 .text.ada__numerics__elementary_functions__arccot__2
                0x000000000801749c       0x3c /usr/local/gnat-arm/arm-eabi/lib/gnat/ravenscar-full-stm32f4/adalib/libgnat.a(a-nuelfu.o)
                0x000000000801749c                ada__numerics__elementary_functions__arccot__2
 .text.ada__numerics__elementary_functions__arctanh
                0x00000000080174d8       0x40 /usr/local/gnat-arm/arm-eabi/lib/gnat/ravenscar-full-stm32f4/adalib/libgnat.a(a-nuelfu.o)
                0x00000000080174d8                ada__numerics__elementary_functions__arctanh
 .text.ada__numerics__elementary_functions__cos
                0x0000000008017518        0x4 /usr/local/gnat-arm/arm-eabi/lib/gnat/ravenscar-full-stm32f4/adalib/libgnat.a(a-nuelfu.o)
                0x0000000008017518                ada__numerics__elementary_functions__cos
 .text.ada__numerics__elementary_functions__cosh
                0x000000000801751c        0x4 /usr/local/gnat-arm/arm-eabi/lib/gnat/ravenscar-full-stm32f4/adalib/libgnat.a(a-nuelfu.o)
                0x000000000801751c                ada__numerics__elementary_functions__cosh
 .text.ada__numerics__elementary_functions__cot
                0x0000000008017520       0x28 /usr/local/gnat-arm/arm-eabi/lib/gnat/ravenscar-full-stm32f4/adalib/libgnat.a(a-nuelfu.o)
                0x0000000008017520                ada__numerics__elementary_functions__cot
 .text.ada__numerics__elementary_functions__cot__2
                0x0000000008017548       0x9c /usr/local/gnat-arm/arm-eabi/lib/gnat/ravenscar-full-stm32f4/adalib/libgnat.a(a-nuelfu.o)
                0x0000000008017548                ada__numerics__elementary_functions__cot__2
 .text.ada__numerics__elementary_functions__coth
                0x00000000080175e4       0x30 /usr/local/gnat-arm/arm-eabi/lib/gnat/ravenscar-full-stm32f4/adalib/libgnat.a(a-nuelfu.o)
                0x00000000080175e4                ada__numerics__elementary_functions__coth
 .text.ada__numerics__elementary_functions__exp
                0x0000000008017614        0x4 /usr/local/gnat-arm/arm-eabi/lib/gnat/ravenscar-full-stm32f4/adalib/libgnat.a(a-nuelfu.o)
                0x0000000008017614                ada__numerics__elementary_functions(...)(long long,  *)
 .text.ada__numerics__elementary_functions__log
                0x0000000008017618       0x40 /usr/local/gnat-arm/arm-eabi/lib/gnat/ravenscar-full-stm32f4/adalib/libgnat.a(a-nuelfu.o)
                0x0000000008017618                ada__numerics__elementary_functions__log
 .text.ada__numerics__elementary_functions__log__2
                0x0000000008017658       0x8c /usr/local/gnat-arm/arm-eabi/lib/gnat/ravenscar-full-stm32f4/adalib/libgnat.a(a-nuelfu.o)
                0x0000000008017658                ada__numerics__elementary_functions__log__2
 .text.ada__numerics__elementary_functions__sin
                0x00000000080176e4        0x4 /usr/local/gnat-arm/arm-eabi/lib/gnat/ravenscar-full-stm32f4/adalib/libgnat.a(a-nuelfu.o)
                0x00000000080176e4                ada__numerics__elementary_functions__sin
 .text.ada__numerics__elementary_functions__sin__2
                0x00000000080176e8       0x80 /usr/local/gnat-arm/arm-eabi/lib/gnat/ravenscar-full-stm32f4/adalib/libgnat.a(a-nuelfu.o)
                0x00000000080176e8                ada__numerics__elementary_functions__sin__2
 .text.ada__numerics__elementary_functions__cos__2
                0x0000000008017768       0x18 /usr/local/gnat-arm/arm-eabi/lib/gnat/ravenscar-full-stm32f4/adalib/libgnat.a(a-nuelfu.o)
                0x0000000008017768                ada__numerics__elementary_functions__cos__2
 .text.ada__numerics__elementary_functions__sinh
                0x0000000008017780        0x4 /usr/local/gnat-arm/arm-eabi/lib/gnat/ravenscar-full-stm32f4/adalib/libgnat.a(a-nuelfu.o)
                0x0000000008017780                ada__numerics__elementary_functions__sinh
 .text.ada__numerics__elementary_functions__sqrt
                0x0000000008017784       0x28 /usr/local/gnat-arm/arm-eabi/lib/gnat/ravenscar-full-stm32f4/adalib/libgnat.a(a-nuelfu.o)
                0x0000000008017784                ada__numerics__elementary_functions__sqrt
 .text.ada__numerics__elementary_functions__tan
                0x00000000080177ac        0x4 /usr/local/gnat-arm/arm-eabi/lib/gnat/ravenscar-full-stm32f4/adalib/libgnat.a(a-nuelfu.o)
                0x00000000080177ac                ada__numerics__elementary_functions__tan
 .text.ada__numerics__elementary_functions__tan__2
                0x00000000080177b0       0x8c /usr/local/gnat-arm/arm-eabi/lib/gnat/ravenscar-full-stm32f4/adalib/libgnat.a(a-nuelfu.o)
                0x00000000080177b0                ada__numerics__elementary_functions__tan__2
 .text.ada__numerics__elementary_functions__tanh
                0x000000000801783c        0x4 /usr/local/gnat-arm/arm-eabi/lib/gnat/ravenscar-full-stm32f4/adalib/libgnat.a(a-nuelfu.o)
                0x000000000801783c                ada__numerics__elementary_functions__tanh
 .text          0x0000000008017840        0x0 /usr/local/gnat-arm/arm-eabi/lib/gnat/ravenscar-full-stm32f4/adalib/libgnat.a(a-numeri.o)
 .text          0x0000000008017840        0x0 /usr/local/gnat-arm/arm-eabi/lib/gnat/ravenscar-full-stm32f4/adalib/libgnat.a(a-textio.o)
 .text.ada__text_io__get
                0x0000000008017840        0x4 /usr/local/gnat-arm/arm-eabi/lib/gnat/ravenscar-full-stm32f4/adalib/libgnat.a(a-textio.o)
                0x0000000008017840                ada__text_io__get
 .text.ada__text_io__new_line
                0x0000000008017844       0x10 /usr/local/gnat-arm/arm-eabi/lib/gnat/ravenscar-full-stm32f4/adalib/libgnat.a(a-textio.o)
                0x0000000008017844                ada__text_io__new_line
 .text.ada__text_io__put
                0x0000000008017854        0x4 /usr/local/gnat-arm/arm-eabi/lib/gnat/ravenscar-full-stm32f4/adalib/libgnat.a(a-textio.o)
                0x0000000008017854                ada__text_io__put
 .text.ada__text_io__put__2
                0x0000000008017858        0x4 /usr/local/gnat-arm/arm-eabi/lib/gnat/ravenscar-full-stm32f4/adalib/libgnat.a(a-textio.o)
                0x0000000008017858                ada__text_io__put__2
 .text.ada__text_io__put_line
                0x000000000801785c       0x8c /usr/local/gnat-arm/arm-eabi/lib/gnat/ravenscar-full-stm32f4/adalib/libgnat.a(a-textio.o)
                0x000000000801785c                ada__text_io__put_line
 .text          0x00000000080178e8        0x0 /usr/local/gnat-arm/arm-eabi/lib/gnat/ravenscar-full-stm32f4/adalib/libgnat.a(adaint-xi.o)
 .text.__gnat_get_executable_load_address
                0x00000000080178e8        0x4 /usr/local/gnat-arm/arm-eabi/lib/gnat/ravenscar-full-stm32f4/adalib/libgnat.a(adaint-xi.o)
                0x00000000080178e8                __gnat_get_executable_load_address
 *fill*         0x00000000080178ec      0x114 
 .text          0x0000000008017a00      0x194 /usr/local/gnat-arm/arm-eabi/lib/gnat/ravenscar-full-stm32f4/adalib/libgnat.a(handler.o)
                0x0000000008017a00                __vectors
 .text          0x0000000008017b94        0x0 /usr/local/gnat-arm/arm-eabi/lib/gnat/ravenscar-full-stm32f4/adalib/libgnat.a(raise-gcc.o)
 .text.read_encoded_value_with_base
                0x0000000008017b94       0xc0 /usr/local/gnat-arm/arm-eabi/lib/gnat/ravenscar-full-stm32f4/adalib/libgnat.a(raise-gcc.o)
 .text.base_of_encoded_value.part.2
                0x0000000008017c54       0x38 /usr/local/gnat-arm/arm-eabi/lib/gnat/ravenscar-full-stm32f4/adalib/libgnat.a(raise-gcc.o)
 .text.__gnat_personality_v0
                0x0000000008017c8c      0x3d8 /usr/local/gnat-arm/arm-eabi/lib/gnat/ravenscar-full-stm32f4/adalib/libgnat.a(raise-gcc.o)
                0x0000000008017c8c                __gnat_personality_v0
 .text.__gnat_cleanupunwind_handler
                0x0000000008018064       0x14 /usr/local/gnat-arm/arm-eabi/lib/gnat/ravenscar-full-stm32f4/adalib/libgnat.a(raise-gcc.o)
                0x0000000008018064                __gnat_cleanupunwind_handler
 .text.__gnat_Unwind_RaiseException
                0x0000000008018078        0x4 /usr/local/gnat-arm/arm-eabi/lib/gnat/ravenscar-full-stm32f4/adalib/libgnat.a(raise-gcc.o)
                0x0000000008018078                __gnat_Unwind_RaiseException
 .text.__gnat_Unwind_ForcedUnwind
                0x000000000801807c        0x4 /usr/local/gnat-arm/arm-eabi/lib/gnat/ravenscar-full-stm32f4/adalib/libgnat.a(raise-gcc.o)
                0x000000000801807c                __gnat_Unwind_ForcedUnwind
 .text          0x0000000008018080        0x0 /usr/local/gnat-arm/arm-eabi/lib/gnat/ravenscar-full-stm32f4/adalib/libgnat.a(s-fatflt.o)
 .text.system__fat_flt__attr_float__ceiling
                0x0000000008018080       0x70 /usr/local/gnat-arm/arm-eabi/lib/gnat/ravenscar-full-stm32f4/adalib/libgnat.a(s-fatflt.o)
                0x0000000008018080                system__fat_flt__attr_float__ceiling
 .text.system__fat_flt__attr_float__copy_sign
                0x00000000080180f0       0x24 /usr/local/gnat-arm/arm-eabi/lib/gnat/ravenscar-full-stm32f4/adalib/libgnat.a(s-fatflt.o)
                0x00000000080180f0                system__fat_flt__attr_float__copy_sign
 .text.system__fat_flt__attr_float__decompose
                0x0000000008018114      0x164 /usr/local/gnat-arm/arm-eabi/lib/gnat/ravenscar-full-stm32f4/adalib/libgnat.a(s-fatflt.o)
                0x0000000008018114                system__fat_flt__attr_float__decompose
 .text.system__fat_flt__attr_float__exponent
                0x0000000008018278       0x14 /usr/local/gnat-arm/arm-eabi/lib/gnat/ravenscar-full-stm32f4/adalib/libgnat.a(s-fatflt.o)
                0x0000000008018278                system__fat_flt__attr_float__exponent
 .text.system__fat_flt__attr_float__floor
                0x000000000801828c       0x70 /usr/local/gnat-arm/arm-eabi/lib/gnat/ravenscar-full-stm32f4/adalib/libgnat.a(s-fatflt.o)
                0x000000000801828c                system__fat_flt__attr_float__floor
 .text.system__fat_flt__attr_float__fraction
                0x00000000080182fc       0x14 /usr/local/gnat-arm/arm-eabi/lib/gnat/ravenscar-full-stm32f4/adalib/libgnat.a(s-fatflt.o)
                0x00000000080182fc                system__fat_flt__attr_float__fraction
 .text.system__fat_flt__attr_float__machine
                0x0000000008018310       0x10 /usr/local/gnat-arm/arm-eabi/lib/gnat/ravenscar-full-stm32f4/adalib/libgnat.a(s-fatflt.o)
                0x0000000008018310                system__fat_flt__attr_float__machine
 .text.system__fat_flt__attr_float__machine_rounding
                0x0000000008018320       0x7c /usr/local/gnat-arm/arm-eabi/lib/gnat/ravenscar-full-stm32f4/adalib/libgnat.a(s-fatflt.o)
                0x0000000008018320                system__fat_flt__attr_float__machine_rounding
 .text.system__fat_flt__attr_float__model
                0x000000000801839c        0x4 /usr/local/gnat-arm/arm-eabi/lib/gnat/ravenscar-full-stm32f4/adalib/libgnat.a(s-fatflt.o)
                0x000000000801839c                system__fat_flt__attr_float__model
 .text.system__fat_flt__attr_float__rounding
                0x00000000080183a0        0x4 /usr/local/gnat-arm/arm-eabi/lib/gnat/ravenscar-full-stm32f4/adalib/libgnat.a(s-fatflt.o)
                0x00000000080183a0                system__fat_flt__attr_float__rounding
 .text.system__fat_flt__attr_float__scaling
                0x00000000080183a4       0xbc /usr/local/gnat-arm/arm-eabi/lib/gnat/ravenscar-full-stm32f4/adalib/libgnat.a(s-fatflt.o)
                0x00000000080183a4                system__fat_flt__attr_float__scaling
 .text.system__fat_flt__attr_float__compose
                0x0000000008018460       0x1c /usr/local/gnat-arm/arm-eabi/lib/gnat/ravenscar-full-stm32f4/adalib/libgnat.a(s-fatflt.o)
                0x0000000008018460                system__fat_flt__attr_float__compose
 .text.system__fat_flt__attr_float__remainder
                0x000000000801847c       0xe4 /usr/local/gnat-arm/arm-eabi/lib/gnat/ravenscar-full-stm32f4/adalib/libgnat.a(s-fatflt.o)
                0x000000000801847c                system__fat_flt__attr_float__remainder
 .text.system__fat_flt__attr_float__gradual_scaling
                0x0000000008018560       0x34 /usr/local/gnat-arm/arm-eabi/lib/gnat/ravenscar-full-stm32f4/adalib/libgnat.a(s-fatflt.o)
                0x0000000008018560                system__fat_flt__attr_float__gradual_scaling
 .text.system__fat_flt__attr_float__leading_part
                0x0000000008018594       0x98 /usr/local/gnat-arm/arm-eabi/lib/gnat/ravenscar-full-stm32f4/adalib/libgnat.a(s-fatflt.o)
                0x0000000008018594                system__fat_flt__attr_float__leading_part
 .text.system__fat_flt__attr_float__succ
                0x000000000801862c       0xac /usr/local/gnat-arm/arm-eabi/lib/gnat/ravenscar-full-stm32f4/adalib/libgnat.a(s-fatflt.o)
                0x000000000801862c                system__fat_flt__attr_float(short, char __restrict, char)
 .text.system__fat_flt__attr_float__pred
                0x00000000080186d8       0x9c /usr/local/gnat-arm/arm-eabi/lib/gnat/ravenscar-full-stm32f4/adalib/libgnat.a(s-fatflt.o)
                0x00000000080186d8                system__fat_flt__attr_float(long double *,...)(double)
 .text.system__fat_flt__attr_float__adjacent
                0x0000000008018774       0x20 /usr/local/gnat-arm/arm-eabi/lib/gnat/ravenscar-full-stm32f4/adalib/libgnat.a(s-fatflt.o)
                0x0000000008018774                system__fat_flt__attr_float__adjacent
 .text.system__fat_flt__attr_float__truncation
                0x0000000008018794       0x4c /usr/local/gnat-arm/arm-eabi/lib/gnat/ravenscar-full-stm32f4/adalib/libgnat.a(s-fatflt.o)
                0x0000000008018794                system__fat_flt__attr_float__truncation
 .text.system__fat_flt__attr_float__unbiased_rounding
                0x00000000080187e0       0xd0 /usr/local/gnat-arm/arm-eabi/lib/gnat/ravenscar-full-stm32f4/adalib/libgnat.a(s-fatflt.o)
                0x00000000080187e0                system__fat_flt__attr_float__unbiased_rounding
 .text.system__fat_flt__attr_float__valid
                0x00000000080188b0       0x10 /usr/local/gnat-arm/arm-eabi/lib/gnat/ravenscar-full-stm32f4/adalib/libgnat.a(s-fatflt.o)
                0x00000000080188b0                system__fat_flt__attr_float__valid
 .text          0x00000000080188c0        0x0 /usr/local/gnat-arm/arm-eabi/lib/gnat/ravenscar-full-stm32f4/adalib/libgnat.a(s-init.o)
 .text.__gnat_finalize
                0x00000000080188c0        0x4 /usr/local/gnat-arm/arm-eabi/lib/gnat/ravenscar-full-stm32f4/adalib/libgnat.a(s-init.o)
                0x00000000080188c0                __gnat_finalize
 .text.__gnat_initialize
                0x00000000080188c4        0x4 /usr/local/gnat-arm/arm-eabi/lib/gnat/ravenscar-full-stm32f4/adalib/libgnat.a(s-init.o)
                0x00000000080188c4                __gnat_initialize
 .text.__gnat_install_handler
                0x00000000080188c8       0x54 /usr/local/gnat-arm/arm-eabi/lib/gnat/ravenscar-full-stm32f4/adalib/libgnat.a(s-init.o)
                0x00000000080188c8                __gnat_install_handler
 .text.__gnat_runtime_initialize
                0x000000000801891c       0x58 /usr/local/gnat-arm/arm-eabi/lib/gnat/ravenscar-full-stm32f4/adalib/libgnat.a(s-init.o)
                0x000000000801891c                __gnat_runtime_initialize
 .text.__gnat_runtime_finalize
                0x0000000008018974        0x4 /usr/local/gnat-arm/arm-eabi/lib/gnat/ravenscar-full-stm32f4/adalib/libgnat.a(s-init.o)
                0x0000000008018974                __gnat_runtime_finalize
 .text          0x0000000008018978        0x0 /usr/local/gnat-arm/arm-eabi/lib/gnat/ravenscar-full-stm32f4/adalib/libgnat.a(s-libsin.o)
 .text.system__libm_single__reduce_half_pi
                0x0000000008018978      0x1a8 /usr/local/gnat-arm/arm-eabi/lib/gnat/ravenscar-full-stm32f4/adalib/libgnat.a(s-libsin.o)
 .text.system__libm_single__identity
                0x0000000008018b20        0x4 /usr/local/gnat-arm/arm-eabi/lib/gnat/ravenscar-full-stm32f4/adalib/libgnat.a(s-libsin.o)
                0x0000000008018b20                system__libm_single__identity
 .text.system__libm_single__nan
                0x0000000008018b24        0xc /usr/local/gnat-arm/arm-eabi/lib/gnat/ravenscar-full-stm32f4/adalib/libgnat.a(s-libsin.o)
                0x0000000008018b24                system__libm_single__nan
 .text.system__libm_single__exact
                0x0000000008018b30       0x10 /usr/local/gnat-arm/arm-eabi/lib/gnat/ravenscar-full-stm32f4/adalib/libgnat.a(s-libsin.o)
                0x0000000008018b30                system__libm_single__exact
 .text.system__libm_single__epsilon
                0x0000000008018b40        0xc /usr/local/gnat-arm/arm-eabi/lib/gnat/ravenscar-full-stm32f4/adalib/libgnat.a(s-libsin.o)
                0x0000000008018b40                system__libm_single__epsilon
 .text.system__libm_single__maximum_relative_error
                0x0000000008018b4c       0x10 /usr/local/gnat-arm/arm-eabi/lib/gnat/ravenscar-full-stm32f4/adalib/libgnat.a(s-libsin.o)
                0x0000000008018b4c                system__libm_single__maximum_relative_error
 .text.system__libm_single__float_approximations__float_polynomials__compute_hornerXnb
                0x0000000008018b5c       0x38 /usr/local/gnat-arm/arm-eabi/lib/gnat/ravenscar-full-stm32f4/adalib/libgnat.a(s-libsin.o)
                0x0000000008018b5c                system__libm_single__float_approximations__float_polynomials__compute_hornerXnb
 .text.system__libm_single__float_approximations__float_polynomials__polynomialIPXnb
                0x0000000008018b94        0x4 /usr/local/gnat-arm/arm-eabi/lib/gnat/ravenscar-full-stm32f4/adalib/libgnat.a(s-libsin.o)
                0x0000000008018b94                system__libm_single__float_approximations__float_polynomials__polynomialIPXnb
 .text.system__libm_single__float_approximations__approx_asinXn
                0x0000000008018b98       0x38 /usr/local/gnat-arm/arm-eabi/lib/gnat/ravenscar-full-stm32f4/adalib/libgnat.a(s-libsin.o)
                0x0000000008018b98                system__libm_single__float_approximations__approx_asinXn
 .text.system__libm_single__float_approximations__approx_atanXn
                0x0000000008018bd0       0x34 /usr/local/gnat-arm/arm-eabi/lib/gnat/ravenscar-full-stm32f4/adalib/libgnat.a(s-libsin.o)
                0x0000000008018bd0                system__libm_single__float_approximations__approx_atanXn
 .text.system__libm_single__float_approximations__approx_cosXn
                0x0000000008018c04       0x50 /usr/local/gnat-arm/arm-eabi/lib/gnat/ravenscar-full-stm32f4/adalib/libgnat.a(s-libsin.o)
                0x0000000008018c04                system__libm_single__float_approximations__approx_cosXn
 .text.system__libm_single__float_approximations__approx_expXn
                0x0000000008018c54       0x40 /usr/local/gnat-arm/arm-eabi/lib/gnat/ravenscar-full-stm32f4/adalib/libgnat.a(s-libsin.o)
                0x0000000008018c54                system__libm_single__float_approximations__approx_expXn
 .text.expf.part.1
                0x0000000008018c94       0xb4 /usr/local/gnat-arm/arm-eabi/lib/gnat/ravenscar-full-stm32f4/adalib/libgnat.a(s-libsin.o)
 .text.system__libm_single__float_approximations__approx_logXn
                0x0000000008018d48       0x4c /usr/local/gnat-arm/arm-eabi/lib/gnat/ravenscar-full-stm32f4/adalib/libgnat.a(s-libsin.o)
                0x0000000008018d48                system__libm_single__float_approximations__approx_logXn
 .text.system__libm_single__float_approximations__approx_power_logXn
                0x0000000008018d94       0x2c /usr/local/gnat-arm/arm-eabi/lib/gnat/ravenscar-full-stm32f4/adalib/libgnat.a(s-libsin.o)
                0x0000000008018d94                system__libm_single__float_approximations__approx_power_logXn
 .text.system__libm_single__float_approximations__approx_exp2Xn
                0x0000000008018dc0       0x30 /usr/local/gnat-arm/arm-eabi/lib/gnat/ravenscar-full-stm32f4/adalib/libgnat.a(s-libsin.o)
                0x0000000008018dc0                system__libm_single__float_approximations__approx_exp2Xn
 .text.system__libm_single__float_approximations__approx_sinXn
                0x0000000008018df0       0x44 /usr/local/gnat-arm/arm-eabi/lib/gnat/ravenscar-full-stm32f4/adalib/libgnat.a(s-libsin.o)
                0x0000000008018df0                system__libm_single__float_approximations__approx_sinXn
 .text.system__libm_single__float_approximations__approx_sinhXn
                0x0000000008018e34       0x34 /usr/local/gnat-arm/arm-eabi/lib/gnat/ravenscar-full-stm32f4/adalib/libgnat.a(s-libsin.o)
                0x0000000008018e34                system__libm_single__float_approximations__approx_sinhXn
 .text.system__libm_single__float_approximations__approx_tanXn
                0x0000000008018e68       0x3c /usr/local/gnat-arm/arm-eabi/lib/gnat/ravenscar-full-stm32f4/adalib/libgnat.a(s-libsin.o)
                0x0000000008018e68                system__libm_single__float_approximations__approx_tanXn
 .text.system__libm_single__float_approximations__approx_cotXn
                0x0000000008018ea4       0x3c /usr/local/gnat-arm/arm-eabi/lib/gnat/ravenscar-full-stm32f4/adalib/libgnat.a(s-libsin.o)
                0x0000000008018ea4                system__libm_single__float_approximations__approx_cotXn
 .text.system__libm_single__float_approximations__approx_tanhXn
                0x0000000008018ee0       0x34 /usr/local/gnat-arm/arm-eabi/lib/gnat/ravenscar-full-stm32f4/adalib/libgnat.a(s-libsin.o)
                0x0000000008018ee0                system__libm_single__float_approximations__approx_tanhXn
 .text.system__libm_single__float_approximations__asinXn
                0x0000000008018f14       0x7c /usr/local/gnat-arm/arm-eabi/lib/gnat/ravenscar-full-stm32f4/adalib/libgnat.a(s-libsin.o)
                0x0000000008018f14                system__libm_single__float_approximations__asinXn
 .text.system__libm_single__float_approximations__multiply_addXn
                0x0000000008018f90        0xc /usr/local/gnat-arm/arm-eabi/lib/gnat/ravenscar-full-stm32f4/adalib/libgnat.a(s-libsin.o)
                0x0000000008018f90                system__libm_single__float_approximations__multiply_addXn
 .text.system__libm_single__instantiations__acosXn
                0x0000000008018f9c       0x8c /usr/local/gnat-arm/arm-eabi/lib/gnat/ravenscar-full-stm32f4/adalib/libgnat.a(s-libsin.o)
                0x0000000008018f9c                system__libm_single__instantiations__acosXn
 .text.system__libm_single__instantiations__atan2Xn
                0x0000000008019028      0x248 /usr/local/gnat-arm/arm-eabi/lib/gnat/ravenscar-full-stm32f4/adalib/libgnat.a(s-libsin.o)
                0x0000000008019028                system__libm_single__instantiations__atan2Xn
 .text.system__libm_single__float_tableIP
                0x0000000008019270        0x4 /usr/local/gnat-arm/arm-eabi/lib/gnat/ravenscar-full-stm32f4/adalib/libgnat.a(s-libsin.o)
                0x0000000008019270                system__libm_single__float_tableIP
 .text.acosf    0x0000000008019274        0x4 /usr/local/gnat-arm/arm-eabi/lib/gnat/ravenscar-full-stm32f4/adalib/libgnat.a(s-libsin.o)
                0x0000000008019274                acosf
 .text.asinf    0x0000000008019278        0x4 /usr/local/gnat-arm/arm-eabi/lib/gnat/ravenscar-full-stm32f4/adalib/libgnat.a(s-libsin.o)
                0x0000000008019278                asinf
 .text.atanf    0x000000000801927c        0x8 /usr/local/gnat-arm/arm-eabi/lib/gnat/ravenscar-full-stm32f4/adalib/libgnat.a(s-libsin.o)
                0x000000000801927c                atanf
 .text.atan2f   0x0000000008019284        0x4 /usr/local/gnat-arm/arm-eabi/lib/gnat/ravenscar-full-stm32f4/adalib/libgnat.a(s-libsin.o)
                0x0000000008019284                atan2f
 .text.atanhf   0x0000000008019288       0x44 /usr/local/gnat-arm/arm-eabi/lib/gnat/ravenscar-full-stm32f4/adalib/libgnat.a(s-libsin.o)
                0x0000000008019288                atanhf
 .text.cosf     0x00000000080192cc       0x30 /usr/local/gnat-arm/arm-eabi/lib/gnat/ravenscar-full-stm32f4/adalib/libgnat.a(s-libsin.o)
                0x00000000080192cc                cosf
 .text.coshf    0x00000000080192fc       0xc0 /usr/local/gnat-arm/arm-eabi/lib/gnat/ravenscar-full-stm32f4/adalib/libgnat.a(s-libsin.o)
                0x00000000080192fc                coshf
 .text.expf     0x00000000080193bc       0x54 /usr/local/gnat-arm/arm-eabi/lib/gnat/ravenscar-full-stm32f4/adalib/libgnat.a(s-libsin.o)
                0x00000000080193bc                expf
 .text.exp2f    0x0000000008019410       0xb4 /usr/local/gnat-arm/arm-eabi/lib/gnat/ravenscar-full-stm32f4/adalib/libgnat.a(s-libsin.o)
                0x0000000008019410                exp2f
 .text.logf     0x00000000080194c4       0xa8 /usr/local/gnat-arm/arm-eabi/lib/gnat/ravenscar-full-stm32f4/adalib/libgnat.a(s-libsin.o)
                0x00000000080194c4                logf
 .text.log1pf   0x000000000801956c       0x4c /usr/local/gnat-arm/arm-eabi/lib/gnat/ravenscar-full-stm32f4/adalib/libgnat.a(s-libsin.o)
                0x000000000801956c                log1pf
 .text.acoshf   0x00000000080195b8       0x80 /usr/local/gnat-arm/arm-eabi/lib/gnat/ravenscar-full-stm32f4/adalib/libgnat.a(s-libsin.o)
                0x00000000080195b8                acoshf
 .text.asinhf   0x0000000008019638       0xa0 /usr/local/gnat-arm/arm-eabi/lib/gnat/ravenscar-full-stm32f4/adalib/libgnat.a(s-libsin.o)
                0x0000000008019638                asinhf
 .text.log2f    0x00000000080196d8       0x14 /usr/local/gnat-arm/arm-eabi/lib/gnat/ravenscar-full-stm32f4/adalib/libgnat.a(s-libsin.o)
                0x00000000080196d8                log2f
 .text.powf     0x00000000080196ec      0x4b4 /usr/local/gnat-arm/arm-eabi/lib/gnat/ravenscar-full-stm32f4/adalib/libgnat.a(s-libsin.o)
                0x00000000080196ec                powf
 .text.sinf     0x0000000008019ba0       0x54 /usr/local/gnat-arm/arm-eabi/lib/gnat/ravenscar-full-stm32f4/adalib/libgnat.a(s-libsin.o)
                0x0000000008019ba0                sinf
 .text.sinhf    0x0000000008019bf4      0x12c /usr/local/gnat-arm/arm-eabi/lib/gnat/ravenscar-full-stm32f4/adalib/libgnat.a(s-libsin.o)
                0x0000000008019bf4                sinhf
 .text.system__libm_single__sqrt
                0x0000000008019d20        0x4 /usr/local/gnat-arm/arm-eabi/lib/gnat/ravenscar-full-stm32f4/adalib/libgnat.a(s-libsin.o)
                0x0000000008019d20                system__libm_single__sqrt
 .text.tanf     0x0000000008019d24       0x48 /usr/local/gnat-arm/arm-eabi/lib/gnat/ravenscar-full-stm32f4/adalib/libgnat.a(s-libsin.o)
                0x0000000008019d24                tanf
 .text.tanhf    0x0000000008019d6c       0xcc /usr/local/gnat-arm/arm-eabi/lib/gnat/ravenscar-full-stm32f4/adalib/libgnat.a(s-libsin.o)
                0x0000000008019d6c                tanhf
 .text          0x0000000008019e38        0x0 /usr/local/gnat-arm/arm-eabi/lib/gnat/ravenscar-full-stm32f4/adalib/libgnat.a(s-lisisq.o)
 .text.sqrtf    0x0000000008019e38        0x8 /usr/local/gnat-arm/arm-eabi/lib/gnat/ravenscar-full-stm32f4/adalib/libgnat.a(s-lisisq.o)
                0x0000000008019e38                sqrtf
 .text          0x0000000008019e40        0x0 /usr/local/gnat-arm/arm-eabi/lib/gnat/ravenscar-full-stm32f4/adalib/libgnat.a(s-macres.o)
 .text.abort    0x0000000008019e40       0x10 /usr/local/gnat-arm/arm-eabi/lib/gnat/ravenscar-full-stm32f4/adalib/libgnat.a(s-macres.o)
                0x0000000008019e40                abort
 .text._exit    0x0000000008019e50       0x10 /usr/local/gnat-arm/arm-eabi/lib/gnat/ravenscar-full-stm32f4/adalib/libgnat.a(s-macres.o)
                0x0000000008019e50                _exit
 .text.system__machine_reset__stop
                0x0000000008019e60       0x10 /usr/local/gnat-arm/arm-eabi/lib/gnat/ravenscar-full-stm32f4/adalib/libgnat.a(s-macres.o)
                0x0000000008019e60                system__machine_reset__stop
 .text          0x0000000008019e70        0x0 /usr/local/gnat-arm/arm-eabi/lib/gnat/ravenscar-full-stm32f4/adalib/libgnat.a(s-restri.o)
 .text.system__restrictions__rident__Trestriction_flagsBIP
                0x0000000008019e70        0x4 /usr/local/gnat-arm/arm-eabi/lib/gnat/ravenscar-full-stm32f4/adalib/libgnat.a(s-restri.o)
                0x0000000008019e70                system__restrictions__rident__Trestriction_flagsBIP
 .text.system__restrictions__rident__Trestriction_valuesBIP
                0x0000000008019e74        0x4 /usr/local/gnat-arm/arm-eabi/lib/gnat/ravenscar-full-stm32f4/adalib/libgnat.a(s-restri.o)
                0x0000000008019e74                system__restrictions__rident__Trestriction_valuesBIP
 .text.system__restrictions__rident__Tparameter_flagsBIP
                0x0000000008019e78        0x4 /usr/local/gnat-arm/arm-eabi/lib/gnat/ravenscar-full-stm32f4/adalib/libgnat.a(s-restri.o)
                0x0000000008019e78                system__restrictions__rident__Tparameter_flagsBIP
 .text.system__restrictions__rident__restrictions_infoIP
                0x0000000008019e7c        0x4 /usr/local/gnat-arm/arm-eabi/lib/gnat/ravenscar-full-stm32f4/adalib/libgnat.a(s-restri.o)
                0x0000000008019e7c                system__restrictions__rident__restrictions_infoIP
 .text.system__restrictions__rident__profile_dataIP
                0x0000000008019e80        0x4 /usr/local/gnat-arm/arm-eabi/lib/gnat/ravenscar-full-stm32f4/adalib/libgnat.a(s-restri.o)
                0x0000000008019e80                system__restrictions__rident__profile_dataIP
 .text.system__restrictions__abort_allowed
                0x0000000008019e84       0x14 /usr/local/gnat-arm/arm-eabi/lib/gnat/ravenscar-full-stm32f4/adalib/libgnat.a(s-restri.o)
                0x0000000008019e84                system__restrictions__abort_allowed
 .text.system__restrictions__tasking_allowed
                0x0000000008019e98       0x14 /usr/local/gnat-arm/arm-eabi/lib/gnat/ravenscar-full-stm32f4/adalib/libgnat.a(s-restri.o)
                0x0000000008019e98                system__restrictions__tasking_allowed
 .text          0x0000000008019eac       0x70 /usr/local/gnat-arm/arm-eabi/lib/gnat/ravenscar-full-stm32f4/adalib/libgnat.a(start-rom.o)
                0x0000000008019eac                _start_rom
 .text          0x0000000008019f1c       0x20 /usr/local/gnat-arm/arm-eabi/lib/gnat/ravenscar-full-stm32f4/adalib/libgnat.a(breakpoint_handler-cortexm.o)
                0x0000000008019f1c                __gnat_bkpt_trap
 .text          0x0000000008019f3c        0x0 /usr/local/gnat-arm/arm-eabi/lib/gnat/ravenscar-full-stm32f4/adalib/libgnat.a(setup_pll.o)
 .text._ada_setup_pll
                0x0000000008019f3c      0x394 /usr/local/gnat-arm/arm-eabi/lib/gnat/ravenscar-full-stm32f4/adalib/libgnat.a(setup_pll.o)
                0x0000000008019f3c                _ada_setup_pll
 .text          0x000000000801a2d0      0x104 /usr/local/gnat-arm/arm-eabi/lib/gnat/ravenscar-full-stm32f4/adalib/libgnat.a(start-common.o)
                0x000000000801a2d0                _stm32_start_common
 .text          0x000000000801a3d4       0x20 /usr/local/gnat-arm/bin/../lib/gcc/arm-eabi/7.3.1/../../../../arm-eabi/lib/thumb/v7e-m/fpv4-sp/hard/libc.a(lib_a-malloc.o)
                0x000000000801a3d4                malloc
                0x000000000801a3e4                free
 .text          0x000000000801a3f4      0x538 /usr/local/gnat-arm/bin/../lib/gcc/arm-eabi/7.3.1/../../../../arm-eabi/lib/thumb/v7e-m/fpv4-sp/hard/libc.a(lib_a-mallocr.o)
                0x000000000801a3f4                _malloc_r
 .text          0x000000000801a92c       0x64 /usr/local/gnat-arm/bin/../lib/gcc/arm-eabi/7.3.1/../../../../arm-eabi/lib/thumb/v7e-m/fpv4-sp/hard/libc.a(lib_a-memcmp.o)
                0x000000000801a92c                memcmp
 .text          0x000000000801a990      0x134 /usr/local/gnat-arm/bin/../lib/gcc/arm-eabi/7.3.1/../../../../arm-eabi/lib/thumb/v7e-m/fpv4-sp/hard/libc.a(lib_a-memcpy.o)
                0x000000000801a990                memcpy
 .text          0x000000000801aac4       0xc8 /usr/local/gnat-arm/bin/../lib/gcc/arm-eabi/7.3.1/../../../../arm-eabi/lib/thumb/v7e-m/fpv4-sp/hard/libc.a(lib_a-memmove.o)
                0x000000000801aac4                memmove
 .text          0x000000000801ab8c       0x94 /usr/local/gnat-arm/bin/../lib/gcc/arm-eabi/7.3.1/../../../../arm-eabi/lib/thumb/v7e-m/fpv4-sp/hard/libc.a(lib_a-memset.o)
                0x000000000801ab8c                memset
 .text          0x000000000801ac20        0x8 /usr/local/gnat-arm/bin/../lib/gcc/arm-eabi/7.3.1/../../../../arm-eabi/lib/thumb/v7e-m/fpv4-sp/hard/libc.a(lib_a-mlock.o)
                0x000000000801ac20                __malloc_lock
                0x000000000801ac24                __malloc_unlock
 .text          0x000000000801ac28       0x10 /usr/local/gnat-arm/bin/../lib/gcc/arm-eabi/7.3.1/../../../../arm-eabi/lib/thumb/v7e-m/fpv4-sp/hard/libc.a(lib_a-realloc.o)
                0x000000000801ac28                realloc
 .text          0x000000000801ac38      0x35c /usr/local/gnat-arm/bin/../lib/gcc/arm-eabi/7.3.1/../../../../arm-eabi/lib/thumb/v7e-m/fpv4-sp/hard/libc.a(lib_a-reallocr.o)
                0x000000000801ac38                _realloc_r
 .text          0x000000000801af94       0x24 /usr/local/gnat-arm/bin/../lib/gcc/arm-eabi/7.3.1/../../../../arm-eabi/lib/thumb/v7e-m/fpv4-sp/hard/libc.a(lib_a-sbrkr.o)
                0x000000000801af94                _sbrk_r
 .text          0x000000000801afb8      0x288 /usr/local/gnat-arm/bin/../lib/gcc/arm-eabi/7.3.1/../../../../arm-eabi/lib/thumb/v7e-m/fpv4-sp/hard/libc.a(lib_a-freer.o)
                0x000000000801afb8                _malloc_trim_r
                0x000000000801b058                _free_r
 .text          0x000000000801b240        0x0 /usr/local/gnat-arm/bin/../lib/gcc/arm-eabi/7.3.1/../../../../arm-eabi/lib/thumb/v7e-m/fpv4-sp/hard/libc.a(lib_a-impure.o)
 .text          0x000000000801b240       0xb0 /usr/local/gnat-arm/bin/../lib/gcc/arm-eabi/7.3.1/../../../../arm-eabi/lib/thumb/v7e-m/fpv4-sp/hard/libc.a(lib_a-reent.o)
                0x000000000801b240                cleanup_glue
                0x000000000801b268                _reclaim_reent
 .text          0x000000000801b2f0      0x378 /usr/local/gnat-arm/bin/../lib/gcc/arm-eabi/7.3.1/thumb/v7e-m/fpv4-sp/hard/libgcc.a(_arm_addsubdf3.o)
                0x000000000801b2f0                __aeabi_drsub
                0x000000000801b2f8                __aeabi_dsub
                0x000000000801b2f8                __subdf3
                0x000000000801b2fc                __adddf3
                0x000000000801b2fc                __aeabi_dadd
                0x000000000801b574                __aeabi_ui2d
                0x000000000801b574                __floatunsidf
                0x000000000801b594                __floatsidf
                0x000000000801b594                __aeabi_i2d
                0x000000000801b5b8                __extendsfdf2
                0x000000000801b5b8                __aeabi_f2d
                0x000000000801b5fc                __aeabi_ul2d
                0x000000000801b5fc                __floatundidf
                0x000000000801b60c                __floatdidf
                0x000000000801b60c                __aeabi_l2d
 .text          0x000000000801b668       0xa0 /usr/local/gnat-arm/bin/../lib/gcc/arm-eabi/7.3.1/thumb/v7e-m/fpv4-sp/hard/libgcc.a(_arm_truncdfsf2.o)
                0x000000000801b668                __aeabi_d2f
                0x000000000801b668                __truncdfsf2
 .text          0x000000000801b708       0xa0 /usr/local/gnat-arm/bin/../lib/gcc/arm-eabi/7.3.1/thumb/v7e-m/fpv4-sp/hard/libgcc.a(_aeabi_ldivmod.o)
                0x000000000801b708                __aeabi_ldivmod
 .text          0x000000000801b7a8       0x30 /usr/local/gnat-arm/bin/../lib/gcc/arm-eabi/7.3.1/thumb/v7e-m/fpv4-sp/hard/libgcc.a(_aeabi_uldivmod.o)
                0x000000000801b7a8                __aeabi_uldivmod
 .text          0x000000000801b7d8       0x24 /usr/local/gnat-arm/bin/../lib/gcc/arm-eabi/7.3.1/thumb/v7e-m/fpv4-sp/hard/libgcc.a(_fixsfdi.o)
                0x000000000801b7d8                __aeabi_f2lz
                0x000000000801b7d8                __fixsfdi
 .text          0x000000000801b7fc       0x48 /usr/local/gnat-arm/bin/../lib/gcc/arm-eabi/7.3.1/thumb/v7e-m/fpv4-sp/hard/libgcc.a(_fixunssfdi.o)
                0x000000000801b7fc                __aeabi_f2ulz
                0x000000000801b7fc                __fixunssfdi
 .text          0x000000000801b844       0x44 /usr/local/gnat-arm/bin/../lib/gcc/arm-eabi/7.3.1/thumb/v7e-m/fpv4-sp/hard/libgcc.a(_fixunsdfdi.o)
                0x000000000801b844                __aeabi_d2ulz
                0x000000000801b844                __fixunsdfdi
 .text          0x000000000801b888      0x2cc /usr/local/gnat-arm/bin/../lib/gcc/arm-eabi/7.3.1/thumb/v7e-m/fpv4-sp/hard/libgcc.a(_udivmoddi4.o)
                0x000000000801b888                __udivmoddi4
 .text          0x000000000801bb54      0x9dc /usr/local/gnat-arm/bin/../lib/gcc/arm-eabi/7.3.1/thumb/v7e-m/fpv4-sp/hard/libgcc.a(unwind-arm.o)
                0x000000000801bdfc                _Unwind_GetCFA
                0x000000000801be00                __gnu_Unwind_RaiseException
                0x000000000801be60                __gnu_Unwind_ForcedUnwind
                0x000000000801be74                __gnu_Unwind_Resume
                0x000000000801beb8                __gnu_Unwind_Resume_or_Rethrow
                0x000000000801bec8                _Unwind_Complete
                0x000000000801becc                _Unwind_DeleteException
                0x000000000801bed8                _Unwind_VRS_Get
                0x000000000801bf1c                _Unwind_VRS_Set
                0x000000000801bf64                __gnu_Unwind_Backtrace
                0x000000000801c2a8                __aeabi_unwind_cpp_pr0
                0x000000000801c2ac                __aeabi_unwind_cpp_pr1
                0x000000000801c2b0                __aeabi_unwind_cpp_pr2
                0x000000000801c2b4                _Unwind_VRS_Pop
 .text          0x000000000801c530      0x1ac /usr/local/gnat-arm/bin/../lib/gcc/arm-eabi/7.3.1/thumb/v7e-m/fpv4-sp/hard/libgcc.a(libunwind.o)
                0x000000000801c530                __restore_core_regs
                0x000000000801c530                restore_core_regs
                0x000000000801c548                __gnu_Unwind_Restore_VFP
                0x000000000801c550                __gnu_Unwind_Save_VFP
                0x000000000801c558                __gnu_Unwind_Restore_VFP_D
                0x000000000801c560                __gnu_Unwind_Save_VFP_D
                0x000000000801c568                __gnu_Unwind_Restore_VFP_D_16_to_31
                0x000000000801c570                __gnu_Unwind_Save_VFP_D_16_to_31
                0x000000000801c578                __gnu_Unwind_Restore_WMMXD
                0x000000000801c5bc                __gnu_Unwind_Save_WMMXD
                0x000000000801c600                __gnu_Unwind_Restore_WMMXC
                0x000000000801c614                __gnu_Unwind_Save_WMMXC
                0x000000000801c628                ___Unwind_RaiseException
                0x000000000801c628                _Unwind_RaiseException
                0x000000000801c64c                ___Unwind_Resume
                0x000000000801c64c                _Unwind_Resume
                0x000000000801c670                _Unwind_Resume_or_Rethrow
                0x000000000801c670                ___Unwind_Resume_or_Rethrow
                0x000000000801c694                ___Unwind_ForcedUnwind
                0x000000000801c694                _Unwind_ForcedUnwind
                0x000000000801c6b8                _Unwind_Backtrace
                0x000000000801c6b8                ___Unwind_Backtrace
 .text          0x000000000801c6dc      0x374 /usr/local/gnat-arm/bin/../lib/gcc/arm-eabi/7.3.1/thumb/v7e-m/fpv4-sp/hard/libgcc.a(pr-support.o)
                0x000000000801c734                __gnu_unwind_execute
                0x000000000801c9f8                __gnu_unwind_frame
                0x000000000801ca20                _Unwind_GetRegionStart
                0x000000000801ca2c                _Unwind_GetLanguageSpecificData
                0x000000000801ca40                _Unwind_GetDataRelBase
                0x000000000801ca48                _Unwind_GetTextRelBase
 .text          0x000000000801ca50        0x4 /usr/local/gnat-arm/bin/../lib/gcc/arm-eabi/7.3.1/thumb/v7e-m/fpv4-sp/hard/libgcc.a(_dvmd_tls.o)
                0x000000000801ca50                __aeabi_ldiv0
                0x000000000801ca50                __aeabi_idiv0
 .text          0x000000000801ca54      0x424 /usr/local/gnat-arm/bin/../lib/gcc/arm-eabi/7.3.1/thumb/v7e-m/fpv4-sp/hard/libgcc.a(_arm_muldivdf3.o)
                0x000000000801ca54                __aeabi_dmul
                0x000000000801ca54                __muldf3
                0x000000000801cca8                __aeabi_ddiv
                0x000000000801cca8                __divdf3
 .text          0x000000000801ce78       0x40 /usr/local/gnat-arm/bin/../lib/gcc/arm-eabi/7.3.1/thumb/v7e-m/fpv4-sp/hard/libgcc.a(_arm_fixunsdfsi.o)
                0x000000000801ce78                __fixunsdfsi
                0x000000000801ce78                __aeabi_d2uiz
 .text          0x000000000801ceb8        0x0 /usr/local/gnat-arm/arm-eabi/lib/gnat/ravenscar-full-stm32f4/adalib//libgnat.a(newlib-bb.o)
 .text.isatty   0x000000000801ceb8        0x4 /usr/local/gnat-arm/arm-eabi/lib/gnat/ravenscar-full-stm32f4/adalib//libgnat.a(newlib-bb.o)
                0x000000000801ceb8                isatty
 .text.write    0x000000000801cebc       0x54 /usr/local/gnat-arm/arm-eabi/lib/gnat/ravenscar-full-stm32f4/adalib//libgnat.a(newlib-bb.o)
                0x000000000801cebc                write
 .text.close    0x000000000801cf10        0x4 /usr/local/gnat-arm/arm-eabi/lib/gnat/ravenscar-full-stm32f4/adalib//libgnat.a(newlib-bb.o)
                0x000000000801cf10                close
 .text.fstat    0x000000000801cf14        0x8 /usr/local/gnat-arm/arm-eabi/lib/gnat/ravenscar-full-stm32f4/adalib//libgnat.a(newlib-bb.o)
                0x000000000801cf14                fstat
 .text.lseek    0x000000000801cf1c       0x10 /usr/local/gnat-arm/arm-eabi/lib/gnat/ravenscar-full-stm32f4/adalib//libgnat.a(newlib-bb.o)
                0x000000000801cf1c                lseek
 .text.read     0x000000000801cf2c       0x54 /usr/local/gnat-arm/arm-eabi/lib/gnat/ravenscar-full-stm32f4/adalib//libgnat.a(newlib-bb.o)
                0x000000000801cf2c                read
 .text.sbrk     0x000000000801cf80       0x20 /usr/local/gnat-arm/arm-eabi/lib/gnat/ravenscar-full-stm32f4/adalib//libgnat.a(newlib-bb.o)
                0x000000000801cf80                sbrk
 .text          0x000000000801cfa0        0xc /usr/local/gnat-arm/bin/../lib/gcc/arm-eabi/7.3.1/../../../../arm-eabi/lib/thumb/v7e-m/fpv4-sp/hard/libc.a(lib_a-errno.o)
                0x000000000801cfa0                __errno
 *(.gnu.warning)

.glue_7         0x000000000801cfac        0x0
 .glue_7        0x000000000801cfac        0x0 linker stubs

.glue_7t        0x000000000801cfac        0x0
 .glue_7t       0x000000000801cfac        0x0 linker stubs

.vfp11_veneer   0x000000000801cfac        0x0
 .vfp11_veneer  0x000000000801cfac        0x0 linker stubs

.v4_bx          0x000000000801cfac        0x0
 .v4_bx         0x000000000801cfac        0x0 linker stubs

.iplt           0x000000000801cfac        0x0
 .iplt          0x000000000801cfac        0x0 gee.o

.ARM.extab      0x000000000801cfac     0x2150
 *(.ARM.extab* .gnu.linkonce.armextab.*)
 .ARM.extab     0x000000000801cfac        0x0 gee.o
 .ARM.extab     0x000000000801cfac       0x18 b__gee.o
 .ARM.extab     0x000000000801cfc4       0x24 /home/aquox/Scrivania/Arm/fps-ravenscar-arm/build/i-stm32-pwr.o
 .ARM.extab     0x000000000801cfe8        0x0 /home/aquox/Scrivania/Arm/fps-ravenscar-arm/build/s-bbmcpa.o
 .ARM.extab     0x000000000801cfe8       0x24 /home/aquox/Scrivania/Arm/fps-ravenscar-arm/build/s-imgint.o
 .ARM.extab     0x000000000801d00c       0x18 /home/aquox/Scrivania/Arm/fps-ravenscar-arm/build/s-maccod.o
 .ARM.extab     0x000000000801d024        0xc /home/aquox/Scrivania/Arm/fps-ravenscar-arm/build/s-parame.o
 .ARM.extab     0x000000000801d030       0x48 /home/aquox/Scrivania/Arm/fps-ravenscar-arm/build/s-semiho.o
 .ARM.extab     0x000000000801d078        0xc /home/aquox/Scrivania/Arm/fps-ravenscar-arm/build/s-stoele.o
 .ARM.extab     0x000000000801d084       0x48 /home/aquox/Scrivania/Arm/fps-ravenscar-arm/build/s-secsta.o
 .ARM.extab     0x000000000801d0cc       0x24 /home/aquox/Scrivania/Arm/fps-ravenscar-arm/build/g-debuti.o
 .ARM.extab     0x000000000801d0f0       0x18 /home/aquox/Scrivania/Arm/fps-ravenscar-arm/build/s-casuti.o
 .ARM.extab     0x000000000801d108       0x18 /home/aquox/Scrivania/Arm/fps-ravenscar-arm/build/s-textio.o
 .ARM.extab     0x000000000801d120       0x48 /home/aquox/Scrivania/Arm/fps-ravenscar-arm/build/s-io.o
 .ARM.extab     0x000000000801d168       0x24 /home/aquox/Scrivania/Arm/fps-ravenscar-arm/build/s-traent.o
 .ARM.extab     0x000000000801d18c      0x1a4 /home/aquox/Scrivania/Arm/fps-ravenscar-arm/build/i-stm32-rcc.o
 .ARM.extab     0x000000000801d330       0x54 /home/aquox/Scrivania/Arm/fps-ravenscar-arm/build/s-stm32.o
 .ARM.extab     0x000000000801d384       0x24 /home/aquox/Scrivania/Arm/fps-ravenscar-arm/build/s-wchcon.o
 .ARM.extab     0x000000000801d3a8       0x30 /home/aquox/Scrivania/Arm/fps-ravenscar-arm/build/s-wchjis.o
 .ARM.extab     0x000000000801d3d8        0xc /home/aquox/Scrivania/Arm/fps-ravenscar-arm/build/s-wchcnv.o
 .ARM.extab     0x000000000801d3e4        0xc /home/aquox/Scrivania/Arm/fps-ravenscar-arm/build/s-addima.o
 .ARM.extab     0x000000000801d3f0       0x34 /home/aquox/Scrivania/Arm/fps-ravenscar-arm/build/s-traceb.o
 .ARM.extab     0x000000000801d424       0x24 /home/aquox/Scrivania/Arm/fps-ravenscar-arm/build/s-excdeb.o
 .ARM.extab     0x000000000801d448       0x6c /home/aquox/Scrivania/Arm/fps-ravenscar-arm/build/s-excmac.o
 .ARM.extab     0x000000000801d4b4        0x0 /home/aquox/Scrivania/Arm/fps-ravenscar-arm/build/s-multip.o
 .ARM.extab     0x000000000801d4b4       0x3c /home/aquox/Scrivania/Arm/fps-ravenscar-arm/build/s-musplo.o
 .ARM.extab     0x000000000801d4f0       0xb8 /home/aquox/Scrivania/Arm/fps-ravenscar-arm/build/s-exctab.o
 .ARM.extab     0x000000000801d5a8        0x0 /home/aquox/Scrivania/Arm/fps-ravenscar-arm/build/s-bcpcst.o
 .ARM.extab     0x000000000801d5a8       0x9c /home/aquox/Scrivania/Arm/fps-ravenscar-arm/build/s-bbbosu.o
 .ARM.extab     0x000000000801d644        0x0 /home/aquox/Scrivania/Arm/fps-ravenscar-arm/build/a-exctra.o
 .ARM.extab     0x000000000801d644       0x24 /home/aquox/Scrivania/Arm/fps-ravenscar-arm/build/s-memory.o
 .ARM.extab     0x000000000801d668       0x5c /home/aquox/Scrivania/Arm/fps-ravenscar-arm/build/s-trasym.o
 .ARM.extab     0x000000000801d6c4       0x48 /home/aquox/Scrivania/Arm/fps-ravenscar-arm/build/s-wchstw.o
 .ARM.extab     0x000000000801d70c      0x258 /home/aquox/Scrivania/Arm/fps-ravenscar-arm/build/a-tags.o
 .ARM.extab     0x000000000801d964       0x30 /home/aquox/Scrivania/Arm/fps-ravenscar-arm/build/s-valuti.o
 .ARM.extab     0x000000000801d994        0xc /home/aquox/Scrivania/Arm/fps-ravenscar-arm/build/s-valuns.o
 .ARM.extab     0x000000000801d9a0        0xc /home/aquox/Scrivania/Arm/fps-ravenscar-arm/build/s-stalib.o
 .ARM.extab     0x000000000801d9ac      0x678 /home/aquox/Scrivania/Arm/fps-ravenscar-arm/build/a-except.o
 .ARM.extab     0x000000000801e024       0xfc /home/aquox/Scrivania/Arm/fps-ravenscar-arm/build/s-bbthqu.o
 .ARM.extab     0x000000000801e120        0x0 /home/aquox/Scrivania/Arm/fps-ravenscar-arm/build/s-bbprot.o
 .ARM.extab     0x000000000801e120       0xa8 /home/aquox/Scrivania/Arm/fps-ravenscar-arm/build/s-bbthre.o
 .ARM.extab     0x000000000801e1c8       0x54 /home/aquox/Scrivania/Arm/fps-ravenscar-arm/build/s-bbinte.o
 .ARM.extab     0x000000000801e21c       0x78 /home/aquox/Scrivania/Arm/fps-ravenscar-arm/build/s-bbcppr.o
 .ARM.extab     0x000000000801e294       0x40 /home/aquox/Scrivania/Arm/fps-ravenscar-arm/build/a-elchha.o
 .ARM.extab     0x000000000801e2d4        0xc /home/aquox/Scrivania/Arm/fps-ravenscar-arm/build/s-taspri.o
 .ARM.extab     0x000000000801e2e0       0x84 /home/aquox/Scrivania/Arm/fps-ravenscar-arm/build/s-bbtiev.o
 .ARM.extab     0x000000000801e364      0x138 /home/aquox/Scrivania/Arm/fps-ravenscar-arm/build/s-bbtime.o
 .ARM.extab     0x000000000801e49c       0x60 /home/aquox/Scrivania/Arm/fps-ravenscar-arm/build/s-mufalo.o
 .ARM.extab     0x000000000801e4fc        0xc /home/aquox/Scrivania/Arm/fps-ravenscar-arm/build/s-tasdeb.o
 .ARM.extab     0x000000000801e508       0x48 /home/aquox/Scrivania/Arm/fps-ravenscar-arm/build/s-taskin.o
 .ARM.extab     0x000000000801e550       0x24 /home/aquox/Scrivania/Arm/fps-ravenscar-arm/build/s-soflin.o
 .ARM.extab     0x000000000801e574       0xf0 /home/aquox/Scrivania/Arm/fps-ravenscar-arm/build/s-taprop.o
 .ARM.extab     0x000000000801e664       0xe4 /home/aquox/Scrivania/Arm/fps-ravenscar-arm/build/a-reatim.o
 .ARM.extab     0x000000000801e748       0x18 /home/aquox/Scrivania/Arm/fps-ravenscar-arm/build/a-retide.o
 .ARM.extab     0x000000000801e760       0x30 /home/aquox/Scrivania/Arm/fps-ravenscar-arm/build/s-taprob.o
 .ARM.extab     0x000000000801e790       0x3c /home/aquox/Scrivania/Arm/fps-ravenscar-arm/build/s-tpoben.o
 .ARM.extab     0x000000000801e7cc       0x24 /home/aquox/Scrivania/Arm/fps-ravenscar-arm/build/s-tpobmu.o
 .ARM.extab     0x000000000801e7f0       0x60 /home/aquox/Scrivania/Arm/fps-ravenscar-arm/build/s-tposen.o
 .ARM.extab     0x000000000801e850       0x48 /home/aquox/Scrivania/Arm/fps-ravenscar-arm/build/s-tasque.o
 .ARM.extab     0x000000000801e898       0x6c /home/aquox/Scrivania/Arm/fps-ravenscar-arm/build/s-tpobop.o
 .ARM.extab     0x000000000801e904       0x54 /home/aquox/Scrivania/Arm/fps-ravenscar-arm/build/s-tarest.o
 .ARM.extab     0x000000000801e958       0x60 /home/aquox/Scrivania/Arm/fps-ravenscar-arm/build/a-taside.o
 .ARM.extab     0x000000000801e9b8      0x10c /home/aquox/Scrivania/Arm/fps-ravenscar-arm/build/a-sytaco.o
 .ARM.extab     0x000000000801eac4       0x7c /home/aquox/Scrivania/Arm/fps-ravenscar-arm/build/activation_log.o
 .ARM.extab     0x000000000801eb40       0x24 /home/aquox/Scrivania/Arm/fps-ravenscar-arm/build/activation_manager.o
 .ARM.extab     0x000000000801eb64       0x18 /home/aquox/Scrivania/Arm/fps-ravenscar-arm/build/auxiliary.o
 .ARM.extab     0x000000000801eb7c        0x0 /home/aquox/Scrivania/Arm/fps-ravenscar-arm/build/external_event_server_parameters.o
 .ARM.extab     0x000000000801eb7c       0x78 /home/aquox/Scrivania/Arm/fps-ravenscar-arm/build/event_queue.o
 .ARM.extab     0x000000000801ebf4       0x88 /home/aquox/Scrivania/Arm/fps-ravenscar-arm/build/external_event_server.o
 .ARM.extab     0x000000000801ec7c       0x50 /home/aquox/Scrivania/Arm/fps-ravenscar-arm/build/production_workload.o
 .ARM.extab     0x000000000801eccc        0x0 /home/aquox/Scrivania/Arm/fps-ravenscar-arm/build/activation_log_reader_parameters.o
 .ARM.extab     0x000000000801eccc       0x7c /home/aquox/Scrivania/Arm/fps-ravenscar-arm/build/activation_log_reader.o
 .ARM.extab     0x000000000801ed48        0xc /home/aquox/Scrivania/Arm/fps-ravenscar-arm/build/on_call_producer_parameters.o
 .ARM.extab     0x000000000801ed54       0xa8 /home/aquox/Scrivania/Arm/fps-ravenscar-arm/build/request_buffer.o
 .ARM.extab     0x000000000801edfc       0x88 /home/aquox/Scrivania/Arm/fps-ravenscar-arm/build/on_call_producer.o
 .ARM.extab     0x000000000801ee84        0xc /home/aquox/Scrivania/Arm/fps-ravenscar-arm/build/regular_producer_parameters.o
 .ARM.extab     0x000000000801ee90       0x8c /home/aquox/Scrivania/Arm/fps-ravenscar-arm/build/regular_producer.o
 .ARM.extab.text.ada__numerics__elementary_functions__Oexpon
                0x000000000801ef1c        0xc /usr/local/gnat-arm/arm-eabi/lib/gnat/ravenscar-full-stm32f4/adalib/libgnat.a(a-nuelfu.o)
 .ARM.extab.text.ada__numerics__elementary_functions__arccos
                0x000000000801ef28        0xc /usr/local/gnat-arm/arm-eabi/lib/gnat/ravenscar-full-stm32f4/adalib/libgnat.a(a-nuelfu.o)
 .ARM.extab.text.ada__numerics__elementary_functions__arccos__2
                0x000000000801ef34        0xc /usr/local/gnat-arm/arm-eabi/lib/gnat/ravenscar-full-stm32f4/adalib/libgnat.a(a-nuelfu.o)
 .ARM.extab.text.ada__numerics__elementary_functions__arccosh
                0x000000000801ef40        0xc /usr/local/gnat-arm/arm-eabi/lib/gnat/ravenscar-full-stm32f4/adalib/libgnat.a(a-nuelfu.o)
 .ARM.extab.text.ada__numerics__elementary_functions__arccoth
                0x000000000801ef4c        0xc /usr/local/gnat-arm/arm-eabi/lib/gnat/ravenscar-full-stm32f4/adalib/libgnat.a(a-nuelfu.o)
 .ARM.extab.text.ada__numerics__elementary_functions__arcsin
                0x000000000801ef58        0xc /usr/local/gnat-arm/arm-eabi/lib/gnat/ravenscar-full-stm32f4/adalib/libgnat.a(a-nuelfu.o)
 .ARM.extab.text.ada__numerics__elementary_functions__arcsin__2
                0x000000000801ef64        0xc /usr/local/gnat-arm/arm-eabi/lib/gnat/ravenscar-full-stm32f4/adalib/libgnat.a(a-nuelfu.o)
 .ARM.extab.text.ada__numerics__elementary_functions__arcsinh
                0x000000000801ef70        0x0 /usr/local/gnat-arm/arm-eabi/lib/gnat/ravenscar-full-stm32f4/adalib/libgnat.a(a-nuelfu.o)
 .ARM.extab.text.ada__numerics__elementary_functions__arctan
                0x000000000801ef70        0xc /usr/local/gnat-arm/arm-eabi/lib/gnat/ravenscar-full-stm32f4/adalib/libgnat.a(a-nuelfu.o)
 .ARM.extab.text.ada__numerics__elementary_functions__arccot
                0x000000000801ef7c        0xc /usr/local/gnat-arm/arm-eabi/lib/gnat/ravenscar-full-stm32f4/adalib/libgnat.a(a-nuelfu.o)
 .ARM.extab.text.ada__numerics__elementary_functions__arctan__2
                0x000000000801ef88        0xc /usr/local/gnat-arm/arm-eabi/lib/gnat/ravenscar-full-stm32f4/adalib/libgnat.a(a-nuelfu.o)
 .ARM.extab.text.ada__numerics__elementary_functions__arccot__2
                0x000000000801ef94        0xc /usr/local/gnat-arm/arm-eabi/lib/gnat/ravenscar-full-stm32f4/adalib/libgnat.a(a-nuelfu.o)
 .ARM.extab.text.ada__numerics__elementary_functions__arctanh
                0x000000000801efa0        0xc /usr/local/gnat-arm/arm-eabi/lib/gnat/ravenscar-full-stm32f4/adalib/libgnat.a(a-nuelfu.o)
 .ARM.extab.text.ada__numerics__elementary_functions__cos
                0x000000000801efac        0x0 /usr/local/gnat-arm/arm-eabi/lib/gnat/ravenscar-full-stm32f4/adalib/libgnat.a(a-nuelfu.o)
 .ARM.extab.text.ada__numerics__elementary_functions__cosh
                0x000000000801efac        0x0 /usr/local/gnat-arm/arm-eabi/lib/gnat/ravenscar-full-stm32f4/adalib/libgnat.a(a-nuelfu.o)
 .ARM.extab.text.ada__numerics__elementary_functions__cot
                0x000000000801efac        0xc /usr/local/gnat-arm/arm-eabi/lib/gnat/ravenscar-full-stm32f4/adalib/libgnat.a(a-nuelfu.o)
 .ARM.extab.text.ada__numerics__elementary_functions__cot__2
                0x000000000801efb8        0xc /usr/local/gnat-arm/arm-eabi/lib/gnat/ravenscar-full-stm32f4/adalib/libgnat.a(a-nuelfu.o)
 .ARM.extab.text.ada__numerics__elementary_functions__coth
                0x000000000801efc4        0xc /usr/local/gnat-arm/arm-eabi/lib/gnat/ravenscar-full-stm32f4/adalib/libgnat.a(a-nuelfu.o)
 .ARM.extab.text.ada__numerics__elementary_functions__exp
                0x000000000801efd0        0x0 /usr/local/gnat-arm/arm-eabi/lib/gnat/ravenscar-full-stm32f4/adalib/libgnat.a(a-nuelfu.o)
 .ARM.extab.text.ada__numerics__elementary_functions__log
                0x000000000801efd0        0xc /usr/local/gnat-arm/arm-eabi/lib/gnat/ravenscar-full-stm32f4/adalib/libgnat.a(a-nuelfu.o)
 .ARM.extab.text.ada__numerics__elementary_functions__log__2
                0x000000000801efdc        0xc /usr/local/gnat-arm/arm-eabi/lib/gnat/ravenscar-full-stm32f4/adalib/libgnat.a(a-nuelfu.o)
 .ARM.extab.text.ada__numerics__elementary_functions__sin
                0x000000000801efe8        0x0 /usr/local/gnat-arm/arm-eabi/lib/gnat/ravenscar-full-stm32f4/adalib/libgnat.a(a-nuelfu.o)
 .ARM.extab.text.ada__numerics__elementary_functions__sin__2
                0x000000000801efe8        0xc /usr/local/gnat-arm/arm-eabi/lib/gnat/ravenscar-full-stm32f4/adalib/libgnat.a(a-nuelfu.o)
 .ARM.extab.text.ada__numerics__elementary_functions__cos__2
                0x000000000801eff4        0xc /usr/local/gnat-arm/arm-eabi/lib/gnat/ravenscar-full-stm32f4/adalib/libgnat.a(a-nuelfu.o)
 .ARM.extab.text.ada__numerics__elementary_functions__sinh
                0x000000000801f000        0x0 /usr/local/gnat-arm/arm-eabi/lib/gnat/ravenscar-full-stm32f4/adalib/libgnat.a(a-nuelfu.o)
 .ARM.extab.text.ada__numerics__elementary_functions__sqrt
                0x000000000801f000        0xc /usr/local/gnat-arm/arm-eabi/lib/gnat/ravenscar-full-stm32f4/adalib/libgnat.a(a-nuelfu.o)
 .ARM.extab.text.ada__numerics__elementary_functions__tan
                0x000000000801f00c        0x0 /usr/local/gnat-arm/arm-eabi/lib/gnat/ravenscar-full-stm32f4/adalib/libgnat.a(a-nuelfu.o)
 .ARM.extab.text.ada__numerics__elementary_functions__tan__2
                0x000000000801f00c        0xc /usr/local/gnat-arm/arm-eabi/lib/gnat/ravenscar-full-stm32f4/adalib/libgnat.a(a-nuelfu.o)
 .ARM.extab.text.ada__numerics__elementary_functions__tanh
                0x000000000801f018        0x0 /usr/local/gnat-arm/arm-eabi/lib/gnat/ravenscar-full-stm32f4/adalib/libgnat.a(a-nuelfu.o)
 .ARM.extab.text.ada__text_io__get
                0x000000000801f018        0x0 /usr/local/gnat-arm/arm-eabi/lib/gnat/ravenscar-full-stm32f4/adalib/libgnat.a(a-textio.o)
 .ARM.extab.text.ada__text_io__new_line
                0x000000000801f018        0x0 /usr/local/gnat-arm/arm-eabi/lib/gnat/ravenscar-full-stm32f4/adalib/libgnat.a(a-textio.o)
 .ARM.extab.text.ada__text_io__put
                0x000000000801f018        0x0 /usr/local/gnat-arm/arm-eabi/lib/gnat/ravenscar-full-stm32f4/adalib/libgnat.a(a-textio.o)
 .ARM.extab.text.ada__text_io__put__2
                0x000000000801f018        0x0 /usr/local/gnat-arm/arm-eabi/lib/gnat/ravenscar-full-stm32f4/adalib/libgnat.a(a-textio.o)
 .ARM.extab.text.ada__text_io__put_line
                0x000000000801f018        0x0 /usr/local/gnat-arm/arm-eabi/lib/gnat/ravenscar-full-stm32f4/adalib/libgnat.a(a-textio.o)
 .ARM.extab.text.read_encoded_value_with_base
                0x000000000801f018        0x0 /usr/local/gnat-arm/arm-eabi/lib/gnat/ravenscar-full-stm32f4/adalib/libgnat.a(raise-gcc.o)
 .ARM.extab.text.base_of_encoded_value.part.2
                0x000000000801f018        0x0 /usr/local/gnat-arm/arm-eabi/lib/gnat/ravenscar-full-stm32f4/adalib/libgnat.a(raise-gcc.o)
 .ARM.extab.text.__gnat_personality_v0
                0x000000000801f018        0x0 /usr/local/gnat-arm/arm-eabi/lib/gnat/ravenscar-full-stm32f4/adalib/libgnat.a(raise-gcc.o)
 .ARM.extab.text.__gnat_cleanupunwind_handler
                0x000000000801f018        0xc /usr/local/gnat-arm/arm-eabi/lib/gnat/ravenscar-full-stm32f4/adalib/libgnat.a(raise-gcc.o)
 .ARM.extab.text.__gnat_Unwind_RaiseException
                0x000000000801f024        0x0 /usr/local/gnat-arm/arm-eabi/lib/gnat/ravenscar-full-stm32f4/adalib/libgnat.a(raise-gcc.o)
 .ARM.extab.text.__gnat_Unwind_ForcedUnwind
                0x000000000801f024        0x0 /usr/local/gnat-arm/arm-eabi/lib/gnat/ravenscar-full-stm32f4/adalib/libgnat.a(raise-gcc.o)
 .ARM.extab.text.system__fat_flt__attr_float__ceiling
                0x000000000801f024        0x0 /usr/local/gnat-arm/arm-eabi/lib/gnat/ravenscar-full-stm32f4/adalib/libgnat.a(s-fatflt.o)
 .ARM.extab.text.system__fat_flt__attr_float__copy_sign
                0x000000000801f024        0x0 /usr/local/gnat-arm/arm-eabi/lib/gnat/ravenscar-full-stm32f4/adalib/libgnat.a(s-fatflt.o)
 .ARM.extab.text.system__fat_flt__attr_float__decompose
                0x000000000801f024        0x0 /usr/local/gnat-arm/arm-eabi/lib/gnat/ravenscar-full-stm32f4/adalib/libgnat.a(s-fatflt.o)
 .ARM.extab.text.system__fat_flt__attr_float__exponent
                0x000000000801f024        0x0 /usr/local/gnat-arm/arm-eabi/lib/gnat/ravenscar-full-stm32f4/adalib/libgnat.a(s-fatflt.o)
 .ARM.extab.text.system__fat_flt__attr_float__floor
                0x000000000801f024        0x0 /usr/local/gnat-arm/arm-eabi/lib/gnat/ravenscar-full-stm32f4/adalib/libgnat.a(s-fatflt.o)
 .ARM.extab.text.system__fat_flt__attr_float__fraction
                0x000000000801f024        0x0 /usr/local/gnat-arm/arm-eabi/lib/gnat/ravenscar-full-stm32f4/adalib/libgnat.a(s-fatflt.o)
 .ARM.extab.text.system__fat_flt__attr_float__machine
                0x000000000801f024        0x0 /usr/local/gnat-arm/arm-eabi/lib/gnat/ravenscar-full-stm32f4/adalib/libgnat.a(s-fatflt.o)
 .ARM.extab.text.system__fat_flt__attr_float__machine_rounding
                0x000000000801f024        0x0 /usr/local/gnat-arm/arm-eabi/lib/gnat/ravenscar-full-stm32f4/adalib/libgnat.a(s-fatflt.o)
 .ARM.extab.text.system__fat_flt__attr_float__model
                0x000000000801f024        0x0 /usr/local/gnat-arm/arm-eabi/lib/gnat/ravenscar-full-stm32f4/adalib/libgnat.a(s-fatflt.o)
 .ARM.extab.text.system__fat_flt__attr_float__rounding
                0x000000000801f024        0x0 /usr/local/gnat-arm/arm-eabi/lib/gnat/ravenscar-full-stm32f4/adalib/libgnat.a(s-fatflt.o)
 .ARM.extab.text.system__fat_flt__attr_float__scaling
                0x000000000801f024        0x0 /usr/local/gnat-arm/arm-eabi/lib/gnat/ravenscar-full-stm32f4/adalib/libgnat.a(s-fatflt.o)
 .ARM.extab.text.system__fat_flt__attr_float__compose
                0x000000000801f024        0x0 /usr/local/gnat-arm/arm-eabi/lib/gnat/ravenscar-full-stm32f4/adalib/libgnat.a(s-fatflt.o)
 .ARM.extab.text.system__fat_flt__attr_float__remainder
                0x000000000801f024        0x0 /usr/local/gnat-arm/arm-eabi/lib/gnat/ravenscar-full-stm32f4/adalib/libgnat.a(s-fatflt.o)
 .ARM.extab.text.system__fat_flt__attr_float__gradual_scaling
                0x000000000801f024        0x0 /usr/local/gnat-arm/arm-eabi/lib/gnat/ravenscar-full-stm32f4/adalib/libgnat.a(s-fatflt.o)
 .ARM.extab.text.system__fat_flt__attr_float__leading_part
                0x000000000801f024        0x0 /usr/local/gnat-arm/arm-eabi/lib/gnat/ravenscar-full-stm32f4/adalib/libgnat.a(s-fatflt.o)
 .ARM.extab.text.system__fat_flt__attr_float__succ
                0x000000000801f024        0x0 /usr/local/gnat-arm/arm-eabi/lib/gnat/ravenscar-full-stm32f4/adalib/libgnat.a(s-fatflt.o)
 .ARM.extab.text.system__fat_flt__attr_float__pred
                0x000000000801f024        0x0 /usr/local/gnat-arm/arm-eabi/lib/gnat/ravenscar-full-stm32f4/adalib/libgnat.a(s-fatflt.o)
 .ARM.extab.text.system__fat_flt__attr_float__adjacent
                0x000000000801f024        0x0 /usr/local/gnat-arm/arm-eabi/lib/gnat/ravenscar-full-stm32f4/adalib/libgnat.a(s-fatflt.o)
 .ARM.extab.text.system__fat_flt__attr_float__truncation
                0x000000000801f024        0x0 /usr/local/gnat-arm/arm-eabi/lib/gnat/ravenscar-full-stm32f4/adalib/libgnat.a(s-fatflt.o)
 .ARM.extab.text.system__fat_flt__attr_float__unbiased_rounding
                0x000000000801f024        0x0 /usr/local/gnat-arm/arm-eabi/lib/gnat/ravenscar-full-stm32f4/adalib/libgnat.a(s-fatflt.o)
 .ARM.extab.text.system__fat_flt__attr_float__valid
                0x000000000801f024        0x0 /usr/local/gnat-arm/arm-eabi/lib/gnat/ravenscar-full-stm32f4/adalib/libgnat.a(s-fatflt.o)
 .ARM.extab.text.__gnat_finalize
                0x000000000801f024        0x0 /usr/local/gnat-arm/arm-eabi/lib/gnat/ravenscar-full-stm32f4/adalib/libgnat.a(s-init.o)
 .ARM.extab.text.__gnat_initialize
                0x000000000801f024        0x0 /usr/local/gnat-arm/arm-eabi/lib/gnat/ravenscar-full-stm32f4/adalib/libgnat.a(s-init.o)
 .ARM.extab.text.__gnat_install_handler
                0x000000000801f024        0x0 /usr/local/gnat-arm/arm-eabi/lib/gnat/ravenscar-full-stm32f4/adalib/libgnat.a(s-init.o)
 .ARM.extab.text.__gnat_runtime_initialize
                0x000000000801f024        0x0 /usr/local/gnat-arm/arm-eabi/lib/gnat/ravenscar-full-stm32f4/adalib/libgnat.a(s-init.o)
 .ARM.extab.text.__gnat_runtime_finalize
                0x000000000801f024        0x0 /usr/local/gnat-arm/arm-eabi/lib/gnat/ravenscar-full-stm32f4/adalib/libgnat.a(s-init.o)
 .ARM.extab.text.system__libm_single__reduce_half_pi
                0x000000000801f024        0xc /usr/local/gnat-arm/arm-eabi/lib/gnat/ravenscar-full-stm32f4/adalib/libgnat.a(s-libsin.o)
 .ARM.extab.text.system__libm_single__identity
                0x000000000801f030        0x0 /usr/local/gnat-arm/arm-eabi/lib/gnat/ravenscar-full-stm32f4/adalib/libgnat.a(s-libsin.o)
 .ARM.extab.text.system__libm_single__nan
                0x000000000801f030        0x0 /usr/local/gnat-arm/arm-eabi/lib/gnat/ravenscar-full-stm32f4/adalib/libgnat.a(s-libsin.o)
 .ARM.extab.text.system__libm_single__exact
                0x000000000801f030        0x0 /usr/local/gnat-arm/arm-eabi/lib/gnat/ravenscar-full-stm32f4/adalib/libgnat.a(s-libsin.o)
 .ARM.extab.text.system__libm_single__epsilon
                0x000000000801f030        0x0 /usr/local/gnat-arm/arm-eabi/lib/gnat/ravenscar-full-stm32f4/adalib/libgnat.a(s-libsin.o)
 .ARM.extab.text.system__libm_single__maximum_relative_error
                0x000000000801f030        0x0 /usr/local/gnat-arm/arm-eabi/lib/gnat/ravenscar-full-stm32f4/adalib/libgnat.a(s-libsin.o)
 .ARM.extab.text.system__libm_single__float_approximations__float_polynomials__compute_hornerXnb
                0x000000000801f030        0x0 /usr/local/gnat-arm/arm-eabi/lib/gnat/ravenscar-full-stm32f4/adalib/libgnat.a(s-libsin.o)
 .ARM.extab.text.system__libm_single__float_approximations__float_polynomials__polynomialIPXnb
                0x000000000801f030        0x0 /usr/local/gnat-arm/arm-eabi/lib/gnat/ravenscar-full-stm32f4/adalib/libgnat.a(s-libsin.o)
 .ARM.extab.text.system__libm_single__float_approximations__approx_asinXn
                0x000000000801f030        0x0 /usr/local/gnat-arm/arm-eabi/lib/gnat/ravenscar-full-stm32f4/adalib/libgnat.a(s-libsin.o)
 .ARM.extab.text.system__libm_single__float_approximations__approx_atanXn
                0x000000000801f030        0x0 /usr/local/gnat-arm/arm-eabi/lib/gnat/ravenscar-full-stm32f4/adalib/libgnat.a(s-libsin.o)
 .ARM.extab.text.system__libm_single__float_approximations__approx_cosXn
                0x000000000801f030        0x0 /usr/local/gnat-arm/arm-eabi/lib/gnat/ravenscar-full-stm32f4/adalib/libgnat.a(s-libsin.o)
 .ARM.extab.text.system__libm_single__float_approximations__approx_expXn
                0x000000000801f030        0x0 /usr/local/gnat-arm/arm-eabi/lib/gnat/ravenscar-full-stm32f4/adalib/libgnat.a(s-libsin.o)
 .ARM.extab.text.expf.part.1
                0x000000000801f030        0xc /usr/local/gnat-arm/arm-eabi/lib/gnat/ravenscar-full-stm32f4/adalib/libgnat.a(s-libsin.o)
 .ARM.extab.text.system__libm_single__float_approximations__approx_logXn
                0x000000000801f03c        0x0 /usr/local/gnat-arm/arm-eabi/lib/gnat/ravenscar-full-stm32f4/adalib/libgnat.a(s-libsin.o)
 .ARM.extab.text.system__libm_single__float_approximations__approx_power_logXn
                0x000000000801f03c        0x0 /usr/local/gnat-arm/arm-eabi/lib/gnat/ravenscar-full-stm32f4/adalib/libgnat.a(s-libsin.o)
 .ARM.extab.text.system__libm_single__float_approximations__approx_exp2Xn
                0x000000000801f03c        0x0 /usr/local/gnat-arm/arm-eabi/lib/gnat/ravenscar-full-stm32f4/adalib/libgnat.a(s-libsin.o)
 .ARM.extab.text.system__libm_single__float_approximations__approx_sinXn
                0x000000000801f03c        0x0 /usr/local/gnat-arm/arm-eabi/lib/gnat/ravenscar-full-stm32f4/adalib/libgnat.a(s-libsin.o)
 .ARM.extab.text.system__libm_single__float_approximations__approx_sinhXn
                0x000000000801f03c        0x0 /usr/local/gnat-arm/arm-eabi/lib/gnat/ravenscar-full-stm32f4/adalib/libgnat.a(s-libsin.o)
 .ARM.extab.text.system__libm_single__float_approximations__approx_tanXn
                0x000000000801f03c        0x0 /usr/local/gnat-arm/arm-eabi/lib/gnat/ravenscar-full-stm32f4/adalib/libgnat.a(s-libsin.o)
 .ARM.extab.text.system__libm_single__float_approximations__approx_cotXn
                0x000000000801f03c        0x0 /usr/local/gnat-arm/arm-eabi/lib/gnat/ravenscar-full-stm32f4/adalib/libgnat.a(s-libsin.o)
 .ARM.extab.text.system__libm_single__float_approximations__approx_tanhXn
                0x000000000801f03c        0x0 /usr/local/gnat-arm/arm-eabi/lib/gnat/ravenscar-full-stm32f4/adalib/libgnat.a(s-libsin.o)
 .ARM.extab.text.system__libm_single__float_approximations__asinXn
                0x000000000801f03c        0xc /usr/local/gnat-arm/arm-eabi/lib/gnat/ravenscar-full-stm32f4/adalib/libgnat.a(s-libsin.o)
 .ARM.extab.text.system__libm_single__float_approximations__multiply_addXn
                0x000000000801f048        0x0 /usr/local/gnat-arm/arm-eabi/lib/gnat/ravenscar-full-stm32f4/adalib/libgnat.a(s-libsin.o)
 .ARM.extab.text.system__libm_single__instantiations__acosXn
                0x000000000801f048        0xc /usr/local/gnat-arm/arm-eabi/lib/gnat/ravenscar-full-stm32f4/adalib/libgnat.a(s-libsin.o)
 .ARM.extab.text.system__libm_single__instantiations__atan2Xn
                0x000000000801f054        0xc /usr/local/gnat-arm/arm-eabi/lib/gnat/ravenscar-full-stm32f4/adalib/libgnat.a(s-libsin.o)
 .ARM.extab.text.system__libm_single__float_tableIP
                0x000000000801f060        0x0 /usr/local/gnat-arm/arm-eabi/lib/gnat/ravenscar-full-stm32f4/adalib/libgnat.a(s-libsin.o)
 .ARM.extab.text.acosf
                0x000000000801f060        0x0 /usr/local/gnat-arm/arm-eabi/lib/gnat/ravenscar-full-stm32f4/adalib/libgnat.a(s-libsin.o)
 .ARM.extab.text.asinf
                0x000000000801f060        0x0 /usr/local/gnat-arm/arm-eabi/lib/gnat/ravenscar-full-stm32f4/adalib/libgnat.a(s-libsin.o)
 .ARM.extab.text.atanf
                0x000000000801f060        0x0 /usr/local/gnat-arm/arm-eabi/lib/gnat/ravenscar-full-stm32f4/adalib/libgnat.a(s-libsin.o)
 .ARM.extab.text.atan2f
                0x000000000801f060        0x0 /usr/local/gnat-arm/arm-eabi/lib/gnat/ravenscar-full-stm32f4/adalib/libgnat.a(s-libsin.o)
 .ARM.extab.text.atanhf
                0x000000000801f060        0xc /usr/local/gnat-arm/arm-eabi/lib/gnat/ravenscar-full-stm32f4/adalib/libgnat.a(s-libsin.o)
 .ARM.extab.text.cosf
                0x000000000801f06c        0x0 /usr/local/gnat-arm/arm-eabi/lib/gnat/ravenscar-full-stm32f4/adalib/libgnat.a(s-libsin.o)
 .ARM.extab.text.coshf
                0x000000000801f06c        0xc /usr/local/gnat-arm/arm-eabi/lib/gnat/ravenscar-full-stm32f4/adalib/libgnat.a(s-libsin.o)
 .ARM.extab.text.expf
                0x000000000801f078        0x0 /usr/local/gnat-arm/arm-eabi/lib/gnat/ravenscar-full-stm32f4/adalib/libgnat.a(s-libsin.o)
 .ARM.extab.text.exp2f
                0x000000000801f078        0xc /usr/local/gnat-arm/arm-eabi/lib/gnat/ravenscar-full-stm32f4/adalib/libgnat.a(s-libsin.o)
 .ARM.extab.text.logf
                0x000000000801f084        0x0 /usr/local/gnat-arm/arm-eabi/lib/gnat/ravenscar-full-stm32f4/adalib/libgnat.a(s-libsin.o)
 .ARM.extab.text.log1pf
                0x000000000801f084        0xc /usr/local/gnat-arm/arm-eabi/lib/gnat/ravenscar-full-stm32f4/adalib/libgnat.a(s-libsin.o)
 .ARM.extab.text.acoshf
                0x000000000801f090        0xc /usr/local/gnat-arm/arm-eabi/lib/gnat/ravenscar-full-stm32f4/adalib/libgnat.a(s-libsin.o)
 .ARM.extab.text.asinhf
                0x000000000801f09c        0xc /usr/local/gnat-arm/arm-eabi/lib/gnat/ravenscar-full-stm32f4/adalib/libgnat.a(s-libsin.o)
 .ARM.extab.text.log2f
                0x000000000801f0a8        0xc /usr/local/gnat-arm/arm-eabi/lib/gnat/ravenscar-full-stm32f4/adalib/libgnat.a(s-libsin.o)
 .ARM.extab.text.powf
                0x000000000801f0b4        0x0 /usr/local/gnat-arm/arm-eabi/lib/gnat/ravenscar-full-stm32f4/adalib/libgnat.a(s-libsin.o)
 .ARM.extab.text.sinf
                0x000000000801f0b4        0xc /usr/local/gnat-arm/arm-eabi/lib/gnat/ravenscar-full-stm32f4/adalib/libgnat.a(s-libsin.o)
 .ARM.extab.text.sinhf
                0x000000000801f0c0        0xc /usr/local/gnat-arm/arm-eabi/lib/gnat/ravenscar-full-stm32f4/adalib/libgnat.a(s-libsin.o)
 .ARM.extab.text.system__libm_single__sqrt
                0x000000000801f0cc        0x0 /usr/local/gnat-arm/arm-eabi/lib/gnat/ravenscar-full-stm32f4/adalib/libgnat.a(s-libsin.o)
 .ARM.extab.text.tanf
                0x000000000801f0cc        0xc /usr/local/gnat-arm/arm-eabi/lib/gnat/ravenscar-full-stm32f4/adalib/libgnat.a(s-libsin.o)
 .ARM.extab.text.tanhf
                0x000000000801f0d8        0xc /usr/local/gnat-arm/arm-eabi/lib/gnat/ravenscar-full-stm32f4/adalib/libgnat.a(s-libsin.o)
 .ARM.extab.text.sqrtf
                0x000000000801f0e4        0x0 /usr/local/gnat-arm/arm-eabi/lib/gnat/ravenscar-full-stm32f4/adalib/libgnat.a(s-lisisq.o)
 .ARM.extab.text.abort
                0x000000000801f0e4        0x0 /usr/local/gnat-arm/arm-eabi/lib/gnat/ravenscar-full-stm32f4/adalib/libgnat.a(s-macres.o)
 .ARM.extab.text._exit
                0x000000000801f0e4        0x0 /usr/local/gnat-arm/arm-eabi/lib/gnat/ravenscar-full-stm32f4/adalib/libgnat.a(s-macres.o)
 .ARM.extab.text.system__machine_reset__stop
                0x000000000801f0e4        0x0 /usr/local/gnat-arm/arm-eabi/lib/gnat/ravenscar-full-stm32f4/adalib/libgnat.a(s-macres.o)
 .ARM.extab.text.system__restrictions__rident__Trestriction_flagsBIP
                0x000000000801f0e4        0x0 /usr/local/gnat-arm/arm-eabi/lib/gnat/ravenscar-full-stm32f4/adalib/libgnat.a(s-restri.o)
 .ARM.extab.text.system__restrictions__rident__Trestriction_valuesBIP
                0x000000000801f0e4        0x0 /usr/local/gnat-arm/arm-eabi/lib/gnat/ravenscar-full-stm32f4/adalib/libgnat.a(s-restri.o)
 .ARM.extab.text.system__restrictions__rident__Tparameter_flagsBIP
                0x000000000801f0e4        0x0 /usr/local/gnat-arm/arm-eabi/lib/gnat/ravenscar-full-stm32f4/adalib/libgnat.a(s-restri.o)
 .ARM.extab.text.system__restrictions__rident__restrictions_infoIP
                0x000000000801f0e4        0x0 /usr/local/gnat-arm/arm-eabi/lib/gnat/ravenscar-full-stm32f4/adalib/libgnat.a(s-restri.o)
 .ARM.extab.text.system__restrictions__rident__profile_dataIP
                0x000000000801f0e4        0x0 /usr/local/gnat-arm/arm-eabi/lib/gnat/ravenscar-full-stm32f4/adalib/libgnat.a(s-restri.o)
 .ARM.extab.text.system__restrictions__abort_allowed
                0x000000000801f0e4        0x0 /usr/local/gnat-arm/arm-eabi/lib/gnat/ravenscar-full-stm32f4/adalib/libgnat.a(s-restri.o)
 .ARM.extab.text.system__restrictions__tasking_allowed
                0x000000000801f0e4        0x0 /usr/local/gnat-arm/arm-eabi/lib/gnat/ravenscar-full-stm32f4/adalib/libgnat.a(s-restri.o)
 .ARM.extab.text._ada_setup_pll
                0x000000000801f0e4        0x0 /usr/local/gnat-arm/arm-eabi/lib/gnat/ravenscar-full-stm32f4/adalib/libgnat.a(setup_pll.o)
 .ARM.extab     0x000000000801f0e4        0x0 /usr/local/gnat-arm/bin/../lib/gcc/arm-eabi/7.3.1/thumb/v7e-m/fpv4-sp/hard/libgcc.a(_udivmoddi4.o)
 .ARM.extab     0x000000000801f0e4        0x0 /usr/local/gnat-arm/bin/../lib/gcc/arm-eabi/7.3.1/thumb/v7e-m/fpv4-sp/hard/libgcc.a(unwind-arm.o)
 .ARM.extab     0x000000000801f0e4       0x18 /usr/local/gnat-arm/bin/../lib/gcc/arm-eabi/7.3.1/thumb/v7e-m/fpv4-sp/hard/libgcc.a(pr-support.o)

.ARM.exidx      0x000000000801f0fc     0x19c8
                0x000000000801f0fc                PROVIDE (__exidx_start, .)
 *(.ARM.exidx* .gnu.linkonce.armexidx.*)
 .ARM.exidx     0x000000000801f0fc        0x8 gee.o
 .ARM.exidx     0x000000000801f104       0x20 b__gee.o
                                         0x28 (size before relaxing)
 .ARM.exidx     0x000000000801f124       0x18 /home/aquox/Scrivania/Arm/fps-ravenscar-arm/build/i-stm32-pwr.o
 .ARM.exidx     0x000000000801f13c        0x8 /home/aquox/Scrivania/Arm/fps-ravenscar-arm/build/s-bbmcpa.o
                                         0x18 (size before relaxing)
 .ARM.exidx     0x000000000801f144       0x18 /home/aquox/Scrivania/Arm/fps-ravenscar-arm/build/s-imgint.o
 .ARM.exidx     0x000000000801f15c       0x10 /home/aquox/Scrivania/Arm/fps-ravenscar-arm/build/s-maccod.o
 .ARM.exidx     0x000000000801f16c        0x8 /home/aquox/Scrivania/Arm/fps-ravenscar-arm/build/s-parame.o
 .ARM.exidx     0x000000000801f174       0x30 /home/aquox/Scrivania/Arm/fps-ravenscar-arm/build/s-semiho.o
 .ARM.exidx     0x000000000801f1a4        0x8 /home/aquox/Scrivania/Arm/fps-ravenscar-arm/build/s-stoele.o
 .ARM.exidx     0x000000000801f1ac       0x38 /home/aquox/Scrivania/Arm/fps-ravenscar-arm/build/s-secsta.o
 .ARM.exidx     0x000000000801f1e4       0x20 /home/aquox/Scrivania/Arm/fps-ravenscar-arm/build/g-debuti.o
 .ARM.exidx     0x000000000801f204       0x40 /home/aquox/Scrivania/Arm/fps-ravenscar-arm/build/s-casuti.o
 .ARM.exidx     0x000000000801f244       0x20 /home/aquox/Scrivania/Arm/fps-ravenscar-arm/build/s-textio.o
                                         0x30 (size before relaxing)
 .ARM.exidx     0x000000000801f264       0x40 /home/aquox/Scrivania/Arm/fps-ravenscar-arm/build/s-io.o
                                         0x48 (size before relaxing)
 .ARM.exidx     0x000000000801f2a4       0x18 /home/aquox/Scrivania/Arm/fps-ravenscar-arm/build/s-traent.o
 .ARM.exidx     0x000000000801f2bc      0x118 /home/aquox/Scrivania/Arm/fps-ravenscar-arm/build/i-stm32-rcc.o
 .ARM.exidx     0x000000000801f3d4       0x38 /home/aquox/Scrivania/Arm/fps-ravenscar-arm/build/s-stm32.o
 .ARM.exidx     0x000000000801f40c       0x18 /home/aquox/Scrivania/Arm/fps-ravenscar-arm/build/s-wchcon.o
 .ARM.exidx     0x000000000801f424       0x20 /home/aquox/Scrivania/Arm/fps-ravenscar-arm/build/s-wchjis.o
 .ARM.exidx     0x000000000801f444        0x8 /home/aquox/Scrivania/Arm/fps-ravenscar-arm/build/s-wchcnv.o
 .ARM.exidx     0x000000000801f44c        0x8 /home/aquox/Scrivania/Arm/fps-ravenscar-arm/build/s-addima.o
 .ARM.exidx     0x000000000801f454       0x20 /home/aquox/Scrivania/Arm/fps-ravenscar-arm/build/s-traceb.o
 .ARM.exidx     0x000000000801f474       0x20 /home/aquox/Scrivania/Arm/fps-ravenscar-arm/build/s-excdeb.o
 .ARM.exidx     0x000000000801f494       0x48 /home/aquox/Scrivania/Arm/fps-ravenscar-arm/build/s-excmac.o
 .ARM.exidx     0x000000000801f4dc        0x8 /home/aquox/Scrivania/Arm/fps-ravenscar-arm/build/s-multip.o
 .ARM.exidx     0x000000000801f4e4       0x28 /home/aquox/Scrivania/Arm/fps-ravenscar-arm/build/s-musplo.o
 .ARM.exidx     0x000000000801f50c       0x78 /home/aquox/Scrivania/Arm/fps-ravenscar-arm/build/s-exctab.o
 .ARM.exidx     0x000000000801f584       0x10 /home/aquox/Scrivania/Arm/fps-ravenscar-arm/build/s-bcpcst.o
                                         0x18 (size before relaxing)
 .ARM.exidx     0x000000000801f594       0x98 /home/aquox/Scrivania/Arm/fps-ravenscar-arm/build/s-bbbosu.o
                                         0xa8 (size before relaxing)
 .ARM.exidx     0x000000000801f62c       0x10 /home/aquox/Scrivania/Arm/fps-ravenscar-arm/build/a-exctra.o
 .ARM.exidx     0x000000000801f63c       0x18 /home/aquox/Scrivania/Arm/fps-ravenscar-arm/build/s-memory.o
 .ARM.exidx     0x000000000801f654       0x38 /home/aquox/Scrivania/Arm/fps-ravenscar-arm/build/s-trasym.o
 .ARM.exidx     0x000000000801f68c       0x38 /home/aquox/Scrivania/Arm/fps-ravenscar-arm/build/s-wchstw.o
 .ARM.exidx     0x000000000801f6c4      0x1d8 /home/aquox/Scrivania/Arm/fps-ravenscar-arm/build/a-tags.o
                                        0x1f0 (size before relaxing)
 .ARM.exidx     0x000000000801f89c       0x38 /home/aquox/Scrivania/Arm/fps-ravenscar-arm/build/s-valuti.o
 .ARM.exidx     0x000000000801f8d4       0x18 /home/aquox/Scrivania/Arm/fps-ravenscar-arm/build/s-valuns.o
 .ARM.exidx     0x000000000801f8ec       0x18 /home/aquox/Scrivania/Arm/fps-ravenscar-arm/build/s-stalib.o
                                         0x20 (size before relaxing)
 .ARM.exidx     0x000000000801f904      0x460 /home/aquox/Scrivania/Arm/fps-ravenscar-arm/build/a-except.o
                                        0x490 (size before relaxing)
 .ARM.exidx     0x000000000801fd64       0xb8 /home/aquox/Scrivania/Arm/fps-ravenscar-arm/build/s-bbthqu.o
 .ARM.exidx     0x000000000801fe1c        0x8 /home/aquox/Scrivania/Arm/fps-ravenscar-arm/build/s-bbprot.o
                                         0x10 (size before relaxing)
 .ARM.exidx     0x000000000801fe24       0x80 /home/aquox/Scrivania/Arm/fps-ravenscar-arm/build/s-bbthre.o
 .ARM.exidx     0x000000000801fea4       0x38 /home/aquox/Scrivania/Arm/fps-ravenscar-arm/build/s-bbinte.o
 .ARM.exidx     0x000000000801fedc       0x70 /home/aquox/Scrivania/Arm/fps-ravenscar-arm/build/s-bbcppr.o
                                         0x80 (size before relaxing)
 .ARM.exidx     0x000000000801ff4c       0x18 /home/aquox/Scrivania/Arm/fps-ravenscar-arm/build/a-elchha.o
 .ARM.exidx     0x000000000801ff64        0x8 /home/aquox/Scrivania/Arm/fps-ravenscar-arm/build/s-taspri.o
 .ARM.exidx     0x000000000801ff6c       0x70 /home/aquox/Scrivania/Arm/fps-ravenscar-arm/build/s-bbtiev.o
 .ARM.exidx     0x000000000801ffdc       0xe8 /home/aquox/Scrivania/Arm/fps-ravenscar-arm/build/s-bbtime.o
 .ARM.exidx     0x00000000080200c4       0x40 /home/aquox/Scrivania/Arm/fps-ravenscar-arm/build/s-mufalo.o
 .ARM.exidx     0x0000000008020104        0x8 /home/aquox/Scrivania/Arm/fps-ravenscar-arm/build/s-tasdeb.o
 .ARM.exidx     0x000000000802010c       0x40 /home/aquox/Scrivania/Arm/fps-ravenscar-arm/build/s-taskin.o
 .ARM.exidx     0x000000000802014c       0x30 /home/aquox/Scrivania/Arm/fps-ravenscar-arm/build/s-soflin.o
                                         0x48 (size before relaxing)
 .ARM.exidx     0x000000000802017c       0xb0 /home/aquox/Scrivania/Arm/fps-ravenscar-arm/build/s-taprop.o
 .ARM.exidx     0x000000000802022c       0xc0 /home/aquox/Scrivania/Arm/fps-ravenscar-arm/build/a-reatim.o
 .ARM.exidx     0x00000000080202ec       0x10 /home/aquox/Scrivania/Arm/fps-ravenscar-arm/build/a-retide.o
 .ARM.exidx     0x00000000080202fc       0x28 /home/aquox/Scrivania/Arm/fps-ravenscar-arm/build/s-taprob.o
 .ARM.exidx     0x0000000008020324       0x30 /home/aquox/Scrivania/Arm/fps-ravenscar-arm/build/s-tpoben.o
                                         0x38 (size before relaxing)
 .ARM.exidx     0x0000000008020354       0x20 /home/aquox/Scrivania/Arm/fps-ravenscar-arm/build/s-tpobmu.o
 .ARM.exidx     0x0000000008020374       0x40 /home/aquox/Scrivania/Arm/fps-ravenscar-arm/build/s-tposen.o
 .ARM.exidx     0x00000000080203b4       0x30 /home/aquox/Scrivania/Arm/fps-ravenscar-arm/build/s-tasque.o
 .ARM.exidx     0x00000000080203e4       0x48 /home/aquox/Scrivania/Arm/fps-ravenscar-arm/build/s-tpobop.o
 .ARM.exidx     0x000000000802042c       0x60 /home/aquox/Scrivania/Arm/fps-ravenscar-arm/build/s-tarest.o
 .ARM.exidx     0x000000000802048c       0x48 /home/aquox/Scrivania/Arm/fps-ravenscar-arm/build/a-taside.o
                                         0x50 (size before relaxing)
 .ARM.exidx     0x00000000080204d4       0x80 /home/aquox/Scrivania/Arm/fps-ravenscar-arm/build/a-sytaco.o
 .ARM.exidx     0x0000000008020554       0x58 /home/aquox/Scrivania/Arm/fps-ravenscar-arm/build/activation_log.o
 .ARM.exidx     0x00000000080205ac       0x18 /home/aquox/Scrivania/Arm/fps-ravenscar-arm/build/activation_manager.o
 .ARM.exidx     0x00000000080205c4       0x10 /home/aquox/Scrivania/Arm/fps-ravenscar-arm/build/auxiliary.o
 .ARM.exidx     0x00000000080205d4        0x8 /home/aquox/Scrivania/Arm/fps-ravenscar-arm/build/external_event_server_parameters.o
 .ARM.exidx     0x00000000080205dc       0x40 /home/aquox/Scrivania/Arm/fps-ravenscar-arm/build/event_queue.o
 .ARM.exidx     0x000000000802061c       0x40 /home/aquox/Scrivania/Arm/fps-ravenscar-arm/build/external_event_server.o
 .ARM.exidx     0x000000000802065c       0x18 /home/aquox/Scrivania/Arm/fps-ravenscar-arm/build/production_workload.o
 .ARM.exidx     0x0000000008020674        0x8 /home/aquox/Scrivania/Arm/fps-ravenscar-arm/build/activation_log_reader_parameters.o
 .ARM.exidx     0x000000000802067c       0x40 /home/aquox/Scrivania/Arm/fps-ravenscar-arm/build/activation_log_reader.o
                                         0x48 (size before relaxing)
 .ARM.exidx     0x00000000080206bc        0x8 /home/aquox/Scrivania/Arm/fps-ravenscar-arm/build/on_call_producer_parameters.o
 .ARM.exidx     0x00000000080206c4       0x60 /home/aquox/Scrivania/Arm/fps-ravenscar-arm/build/request_buffer.o
 .ARM.exidx     0x0000000008020724       0x40 /home/aquox/Scrivania/Arm/fps-ravenscar-arm/build/on_call_producer.o
 .ARM.exidx     0x0000000008020764        0x8 /home/aquox/Scrivania/Arm/fps-ravenscar-arm/build/regular_producer_parameters.o
 .ARM.exidx     0x000000000802076c       0x38 /home/aquox/Scrivania/Arm/fps-ravenscar-arm/build/regular_producer.o
 .ARM.exidx.text.ada__numerics__elementary_functions__Oexpon
                0x00000000080207a4        0x8 /usr/local/gnat-arm/arm-eabi/lib/gnat/ravenscar-full-stm32f4/adalib/libgnat.a(a-nuelfu.o)
 .ARM.exidx.text.ada__numerics__elementary_functions__arccos
                0x00000000080207ac        0x8 /usr/local/gnat-arm/arm-eabi/lib/gnat/ravenscar-full-stm32f4/adalib/libgnat.a(a-nuelfu.o)
 .ARM.exidx.text.ada__numerics__elementary_functions__arccos__2
                0x00000000080207b4        0x8 /usr/local/gnat-arm/arm-eabi/lib/gnat/ravenscar-full-stm32f4/adalib/libgnat.a(a-nuelfu.o)
 .ARM.exidx.text.ada__numerics__elementary_functions__arccosh
                0x00000000080207bc        0x8 /usr/local/gnat-arm/arm-eabi/lib/gnat/ravenscar-full-stm32f4/adalib/libgnat.a(a-nuelfu.o)
 .ARM.exidx.text.ada__numerics__elementary_functions__arccoth
                0x00000000080207c4        0x8 /usr/local/gnat-arm/arm-eabi/lib/gnat/ravenscar-full-stm32f4/adalib/libgnat.a(a-nuelfu.o)
 .ARM.exidx.text.ada__numerics__elementary_functions__arcsin
                0x00000000080207cc        0x8 /usr/local/gnat-arm/arm-eabi/lib/gnat/ravenscar-full-stm32f4/adalib/libgnat.a(a-nuelfu.o)
 .ARM.exidx.text.ada__numerics__elementary_functions__arcsin__2
                0x00000000080207d4        0x8 /usr/local/gnat-arm/arm-eabi/lib/gnat/ravenscar-full-stm32f4/adalib/libgnat.a(a-nuelfu.o)
 .ARM.exidx.text.ada__numerics__elementary_functions__arcsinh
                0x00000000080207dc        0x8 /usr/local/gnat-arm/arm-eabi/lib/gnat/ravenscar-full-stm32f4/adalib/libgnat.a(a-nuelfu.o)
 .ARM.exidx.text.ada__numerics__elementary_functions__arctan
                0x00000000080207e4        0x8 /usr/local/gnat-arm/arm-eabi/lib/gnat/ravenscar-full-stm32f4/adalib/libgnat.a(a-nuelfu.o)
 .ARM.exidx.text.ada__numerics__elementary_functions__arccot
                0x00000000080207ec        0x8 /usr/local/gnat-arm/arm-eabi/lib/gnat/ravenscar-full-stm32f4/adalib/libgnat.a(a-nuelfu.o)
 .ARM.exidx.text.ada__numerics__elementary_functions__arctan__2
                0x00000000080207f4        0x8 /usr/local/gnat-arm/arm-eabi/lib/gnat/ravenscar-full-stm32f4/adalib/libgnat.a(a-nuelfu.o)
 .ARM.exidx.text.ada__numerics__elementary_functions__arccot__2
                0x00000000080207fc        0x8 /usr/local/gnat-arm/arm-eabi/lib/gnat/ravenscar-full-stm32f4/adalib/libgnat.a(a-nuelfu.o)
 .ARM.exidx.text.ada__numerics__elementary_functions__arctanh
                0x0000000008020804        0x8 /usr/local/gnat-arm/arm-eabi/lib/gnat/ravenscar-full-stm32f4/adalib/libgnat.a(a-nuelfu.o)
 .ARM.exidx.text.ada__numerics__elementary_functions__cos
                0x000000000802080c        0x8 /usr/local/gnat-arm/arm-eabi/lib/gnat/ravenscar-full-stm32f4/adalib/libgnat.a(a-nuelfu.o)
 .ARM.exidx.text.ada__numerics__elementary_functions__cosh
                0x0000000008020814        0x0 /usr/local/gnat-arm/arm-eabi/lib/gnat/ravenscar-full-stm32f4/adalib/libgnat.a(a-nuelfu.o)
                                          0x8 (size before relaxing)
 .ARM.exidx.text.ada__numerics__elementary_functions__cot
                0x0000000008020814        0x8 /usr/local/gnat-arm/arm-eabi/lib/gnat/ravenscar-full-stm32f4/adalib/libgnat.a(a-nuelfu.o)
 .ARM.exidx.text.ada__numerics__elementary_functions__cot__2
                0x000000000802081c        0x8 /usr/local/gnat-arm/arm-eabi/lib/gnat/ravenscar-full-stm32f4/adalib/libgnat.a(a-nuelfu.o)
 .ARM.exidx.text.ada__numerics__elementary_functions__coth
                0x0000000008020824        0x8 /usr/local/gnat-arm/arm-eabi/lib/gnat/ravenscar-full-stm32f4/adalib/libgnat.a(a-nuelfu.o)
 .ARM.exidx.text.ada__numerics__elementary_functions__exp
                0x000000000802082c        0x8 /usr/local/gnat-arm/arm-eabi/lib/gnat/ravenscar-full-stm32f4/adalib/libgnat.a(a-nuelfu.o)
 .ARM.exidx.text.ada__numerics__elementary_functions__log
                0x0000000008020834        0x8 /usr/local/gnat-arm/arm-eabi/lib/gnat/ravenscar-full-stm32f4/adalib/libgnat.a(a-nuelfu.o)
 .ARM.exidx.text.ada__numerics__elementary_functions__log__2
                0x000000000802083c        0x8 /usr/local/gnat-arm/arm-eabi/lib/gnat/ravenscar-full-stm32f4/adalib/libgnat.a(a-nuelfu.o)
 .ARM.exidx.text.ada__numerics__elementary_functions__sin
                0x0000000008020844        0x8 /usr/local/gnat-arm/arm-eabi/lib/gnat/ravenscar-full-stm32f4/adalib/libgnat.a(a-nuelfu.o)
 .ARM.exidx.text.ada__numerics__elementary_functions__sin__2
                0x000000000802084c        0x8 /usr/local/gnat-arm/arm-eabi/lib/gnat/ravenscar-full-stm32f4/adalib/libgnat.a(a-nuelfu.o)
 .ARM.exidx.text.ada__numerics__elementary_functions__cos__2
                0x0000000008020854        0x8 /usr/local/gnat-arm/arm-eabi/lib/gnat/ravenscar-full-stm32f4/adalib/libgnat.a(a-nuelfu.o)
 .ARM.exidx.text.ada__numerics__elementary_functions__sinh
                0x000000000802085c        0x8 /usr/local/gnat-arm/arm-eabi/lib/gnat/ravenscar-full-stm32f4/adalib/libgnat.a(a-nuelfu.o)
 .ARM.exidx.text.ada__numerics__elementary_functions__sqrt
                0x0000000008020864        0x8 /usr/local/gnat-arm/arm-eabi/lib/gnat/ravenscar-full-stm32f4/adalib/libgnat.a(a-nuelfu.o)
 .ARM.exidx.text.ada__numerics__elementary_functions__tan
                0x000000000802086c        0x8 /usr/local/gnat-arm/arm-eabi/lib/gnat/ravenscar-full-stm32f4/adalib/libgnat.a(a-nuelfu.o)
 .ARM.exidx.text.ada__numerics__elementary_functions__tan__2
                0x0000000008020874        0x8 /usr/local/gnat-arm/arm-eabi/lib/gnat/ravenscar-full-stm32f4/adalib/libgnat.a(a-nuelfu.o)
 .ARM.exidx.text.ada__numerics__elementary_functions__tanh
                0x000000000802087c        0x8 /usr/local/gnat-arm/arm-eabi/lib/gnat/ravenscar-full-stm32f4/adalib/libgnat.a(a-nuelfu.o)
 .ARM.exidx.text.ada__text_io__get
                0x0000000008020884        0x0 /usr/local/gnat-arm/arm-eabi/lib/gnat/ravenscar-full-stm32f4/adalib/libgnat.a(a-textio.o)
                                          0x8 (size before relaxing)
 .ARM.exidx.text.ada__text_io__new_line
                0x0000000008020884        0x0 /usr/local/gnat-arm/arm-eabi/lib/gnat/ravenscar-full-stm32f4/adalib/libgnat.a(a-textio.o)
                                          0x8 (size before relaxing)
 .ARM.exidx.text.ada__text_io__put
                0x0000000008020884        0x0 /usr/local/gnat-arm/arm-eabi/lib/gnat/ravenscar-full-stm32f4/adalib/libgnat.a(a-textio.o)
                                          0x8 (size before relaxing)
 .ARM.exidx.text.ada__text_io__put__2
                0x0000000008020884        0x0 /usr/local/gnat-arm/arm-eabi/lib/gnat/ravenscar-full-stm32f4/adalib/libgnat.a(a-textio.o)
                                          0x8 (size before relaxing)
 .ARM.exidx.text.ada__text_io__put_line
                0x0000000008020884       0x10 /usr/local/gnat-arm/arm-eabi/lib/gnat/ravenscar-full-stm32f4/adalib/libgnat.a(a-textio.o)
                                          0x8 (size before relaxing)
 .ARM.exidx.text.read_encoded_value_with_base
                0x0000000008020894        0x0 /usr/local/gnat-arm/arm-eabi/lib/gnat/ravenscar-full-stm32f4/adalib/libgnat.a(raise-gcc.o)
                                          0x8 (size before relaxing)
 .ARM.exidx.text.base_of_encoded_value.part.2
                0x0000000008020894        0x0 /usr/local/gnat-arm/arm-eabi/lib/gnat/ravenscar-full-stm32f4/adalib/libgnat.a(raise-gcc.o)
                                          0x8 (size before relaxing)
 .ARM.exidx.text.__gnat_personality_v0
                0x0000000008020894        0x8 /usr/local/gnat-arm/arm-eabi/lib/gnat/ravenscar-full-stm32f4/adalib/libgnat.a(raise-gcc.o)
 .ARM.exidx.text.__gnat_cleanupunwind_handler
                0x000000000802089c        0x8 /usr/local/gnat-arm/arm-eabi/lib/gnat/ravenscar-full-stm32f4/adalib/libgnat.a(raise-gcc.o)
 .ARM.exidx.text.__gnat_Unwind_RaiseException
                0x00000000080208a4        0x8 /usr/local/gnat-arm/arm-eabi/lib/gnat/ravenscar-full-stm32f4/adalib/libgnat.a(raise-gcc.o)
 .ARM.exidx.text.__gnat_Unwind_ForcedUnwind
                0x00000000080208ac        0x0 /usr/local/gnat-arm/arm-eabi/lib/gnat/ravenscar-full-stm32f4/adalib/libgnat.a(raise-gcc.o)
                                          0x8 (size before relaxing)
 .ARM.exidx.text.system__fat_flt__attr_float__ceiling
                0x00000000080208ac        0x0 /usr/local/gnat-arm/arm-eabi/lib/gnat/ravenscar-full-stm32f4/adalib/libgnat.a(s-fatflt.o)
                                          0x8 (size before relaxing)
 .ARM.exidx.text.system__fat_flt__attr_float__copy_sign
                0x00000000080208ac        0x0 /usr/local/gnat-arm/arm-eabi/lib/gnat/ravenscar-full-stm32f4/adalib/libgnat.a(s-fatflt.o)
                                          0x8 (size before relaxing)
 .ARM.exidx.text.system__fat_flt__attr_float__decompose
                0x00000000080208ac        0x0 /usr/local/gnat-arm/arm-eabi/lib/gnat/ravenscar-full-stm32f4/adalib/libgnat.a(s-fatflt.o)
                                          0x8 (size before relaxing)
 .ARM.exidx.text.system__fat_flt__attr_float__exponent
                0x00000000080208ac        0x0 /usr/local/gnat-arm/arm-eabi/lib/gnat/ravenscar-full-stm32f4/adalib/libgnat.a(s-fatflt.o)
                                          0x8 (size before relaxing)
 .ARM.exidx.text.system__fat_flt__attr_float__floor
                0x00000000080208ac        0x0 /usr/local/gnat-arm/arm-eabi/lib/gnat/ravenscar-full-stm32f4/adalib/libgnat.a(s-fatflt.o)
                                          0x8 (size before relaxing)
 .ARM.exidx.text.system__fat_flt__attr_float__fraction
                0x00000000080208ac        0x0 /usr/local/gnat-arm/arm-eabi/lib/gnat/ravenscar-full-stm32f4/adalib/libgnat.a(s-fatflt.o)
                                          0x8 (size before relaxing)
 .ARM.exidx.text.system__fat_flt__attr_float__machine
                0x00000000080208ac        0x0 /usr/local/gnat-arm/arm-eabi/lib/gnat/ravenscar-full-stm32f4/adalib/libgnat.a(s-fatflt.o)
                                          0x8 (size before relaxing)
 .ARM.exidx.text.system__fat_flt__attr_float__machine_rounding
                0x00000000080208ac        0x0 /usr/local/gnat-arm/arm-eabi/lib/gnat/ravenscar-full-stm32f4/adalib/libgnat.a(s-fatflt.o)
                                          0x8 (size before relaxing)
 .ARM.exidx.text.system__fat_flt__attr_float__model
                0x00000000080208ac        0x0 /usr/local/gnat-arm/arm-eabi/lib/gnat/ravenscar-full-stm32f4/adalib/libgnat.a(s-fatflt.o)
                                          0x8 (size before relaxing)
 .ARM.exidx.text.system__fat_flt__attr_float__rounding
                0x00000000080208ac        0x0 /usr/local/gnat-arm/arm-eabi/lib/gnat/ravenscar-full-stm32f4/adalib/libgnat.a(s-fatflt.o)
                                          0x8 (size before relaxing)
 .ARM.exidx.text.system__fat_flt__attr_float__scaling
                0x00000000080208ac        0x0 /usr/local/gnat-arm/arm-eabi/lib/gnat/ravenscar-full-stm32f4/adalib/libgnat.a(s-fatflt.o)
                                          0x8 (size before relaxing)
 .ARM.exidx.text.system__fat_flt__attr_float__compose
                0x00000000080208ac        0x0 /usr/local/gnat-arm/arm-eabi/lib/gnat/ravenscar-full-stm32f4/adalib/libgnat.a(s-fatflt.o)
                                          0x8 (size before relaxing)
 .ARM.exidx.text.system__fat_flt__attr_float__remainder
                0x00000000080208ac        0x8 /usr/local/gnat-arm/arm-eabi/lib/gnat/ravenscar-full-stm32f4/adalib/libgnat.a(s-fatflt.o)
 .ARM.exidx.text.system__fat_flt__attr_float__gradual_scaling
                0x00000000080208b4        0x8 /usr/local/gnat-arm/arm-eabi/lib/gnat/ravenscar-full-stm32f4/adalib/libgnat.a(s-fatflt.o)
 .ARM.exidx.text.system__fat_flt__attr_float__leading_part
                0x00000000080208bc        0x8 /usr/local/gnat-arm/arm-eabi/lib/gnat/ravenscar-full-stm32f4/adalib/libgnat.a(s-fatflt.o)
 .ARM.exidx.text.system__fat_flt__attr_float__succ
                0x00000000080208c4        0x8 /usr/local/gnat-arm/arm-eabi/lib/gnat/ravenscar-full-stm32f4/adalib/libgnat.a(s-fatflt.o)
 .ARM.exidx.text.system__fat_flt__attr_float__pred
                0x00000000080208cc        0x0 /usr/local/gnat-arm/arm-eabi/lib/gnat/ravenscar-full-stm32f4/adalib/libgnat.a(s-fatflt.o)
                                          0x8 (size before relaxing)
 .ARM.exidx.text.system__fat_flt__attr_float__adjacent
                0x00000000080208cc        0x8 /usr/local/gnat-arm/arm-eabi/lib/gnat/ravenscar-full-stm32f4/adalib/libgnat.a(s-fatflt.o)
 .ARM.exidx.text.system__fat_flt__attr_float__truncation
                0x00000000080208d4        0x8 /usr/local/gnat-arm/arm-eabi/lib/gnat/ravenscar-full-stm32f4/adalib/libgnat.a(s-fatflt.o)
 .ARM.exidx.text.system__fat_flt__attr_float__unbiased_rounding
                0x00000000080208dc        0x0 /usr/local/gnat-arm/arm-eabi/lib/gnat/ravenscar-full-stm32f4/adalib/libgnat.a(s-fatflt.o)
                                          0x8 (size before relaxing)
 .ARM.exidx.text.system__fat_flt__attr_float__valid
                0x00000000080208dc        0x8 /usr/local/gnat-arm/arm-eabi/lib/gnat/ravenscar-full-stm32f4/adalib/libgnat.a(s-fatflt.o)
 .ARM.exidx.text.__gnat_finalize
                0x00000000080208e4        0x8 /usr/local/gnat-arm/arm-eabi/lib/gnat/ravenscar-full-stm32f4/adalib/libgnat.a(s-init.o)
 .ARM.exidx.text.__gnat_initialize
                0x00000000080208ec        0x0 /usr/local/gnat-arm/arm-eabi/lib/gnat/ravenscar-full-stm32f4/adalib/libgnat.a(s-init.o)
                                          0x8 (size before relaxing)
 .ARM.exidx.text.__gnat_install_handler
                0x00000000080208ec        0x8 /usr/local/gnat-arm/arm-eabi/lib/gnat/ravenscar-full-stm32f4/adalib/libgnat.a(s-init.o)
 .ARM.exidx.text.__gnat_runtime_initialize
                0x00000000080208f4        0x0 /usr/local/gnat-arm/arm-eabi/lib/gnat/ravenscar-full-stm32f4/adalib/libgnat.a(s-init.o)
                                          0x8 (size before relaxing)
 .ARM.exidx.text.__gnat_runtime_finalize
                0x00000000080208f4        0x8 /usr/local/gnat-arm/arm-eabi/lib/gnat/ravenscar-full-stm32f4/adalib/libgnat.a(s-init.o)
 .ARM.exidx.text.system__libm_single__reduce_half_pi
                0x00000000080208fc        0x8 /usr/local/gnat-arm/arm-eabi/lib/gnat/ravenscar-full-stm32f4/adalib/libgnat.a(s-libsin.o)
 .ARM.exidx.text.system__libm_single__identity
                0x0000000008020904        0x8 /usr/local/gnat-arm/arm-eabi/lib/gnat/ravenscar-full-stm32f4/adalib/libgnat.a(s-libsin.o)
 .ARM.exidx.text.system__libm_single__nan
                0x000000000802090c        0x0 /usr/local/gnat-arm/arm-eabi/lib/gnat/ravenscar-full-stm32f4/adalib/libgnat.a(s-libsin.o)
                                          0x8 (size before relaxing)
 .ARM.exidx.text.system__libm_single__exact
                0x000000000802090c        0x0 /usr/local/gnat-arm/arm-eabi/lib/gnat/ravenscar-full-stm32f4/adalib/libgnat.a(s-libsin.o)
                                          0x8 (size before relaxing)
 .ARM.exidx.text.system__libm_single__epsilon
                0x000000000802090c        0x0 /usr/local/gnat-arm/arm-eabi/lib/gnat/ravenscar-full-stm32f4/adalib/libgnat.a(s-libsin.o)
                                          0x8 (size before relaxing)
 .ARM.exidx.text.system__libm_single__maximum_relative_error
                0x000000000802090c        0x0 /usr/local/gnat-arm/arm-eabi/lib/gnat/ravenscar-full-stm32f4/adalib/libgnat.a(s-libsin.o)
                                          0x8 (size before relaxing)
 .ARM.exidx.text.system__libm_single__float_approximations__float_polynomials__compute_hornerXnb
                0x000000000802090c        0x8 /usr/local/gnat-arm/arm-eabi/lib/gnat/ravenscar-full-stm32f4/adalib/libgnat.a(s-libsin.o)
 .ARM.exidx.text.system__libm_single__float_approximations__float_polynomials__polynomialIPXnb
                0x0000000008020914        0x8 /usr/local/gnat-arm/arm-eabi/lib/gnat/ravenscar-full-stm32f4/adalib/libgnat.a(s-libsin.o)
 .ARM.exidx.text.system__libm_single__float_approximations__approx_asinXn
                0x000000000802091c        0x0 /usr/local/gnat-arm/arm-eabi/lib/gnat/ravenscar-full-stm32f4/adalib/libgnat.a(s-libsin.o)
                                          0x8 (size before relaxing)
 .ARM.exidx.text.system__libm_single__float_approximations__approx_atanXn
                0x000000000802091c        0x0 /usr/local/gnat-arm/arm-eabi/lib/gnat/ravenscar-full-stm32f4/adalib/libgnat.a(s-libsin.o)
                                          0x8 (size before relaxing)
 .ARM.exidx.text.system__libm_single__float_approximations__approx_cosXn
                0x000000000802091c        0x8 /usr/local/gnat-arm/arm-eabi/lib/gnat/ravenscar-full-stm32f4/adalib/libgnat.a(s-libsin.o)
 .ARM.exidx.text.system__libm_single__float_approximations__approx_expXn
                0x0000000008020924        0x8 /usr/local/gnat-arm/arm-eabi/lib/gnat/ravenscar-full-stm32f4/adalib/libgnat.a(s-libsin.o)
 .ARM.exidx.text.expf.part.1
                0x000000000802092c        0x8 /usr/local/gnat-arm/arm-eabi/lib/gnat/ravenscar-full-stm32f4/adalib/libgnat.a(s-libsin.o)
 .ARM.exidx.text.system__libm_single__float_approximations__approx_logXn
                0x0000000008020934        0x8 /usr/local/gnat-arm/arm-eabi/lib/gnat/ravenscar-full-stm32f4/adalib/libgnat.a(s-libsin.o)
 .ARM.exidx.text.system__libm_single__float_approximations__approx_power_logXn
                0x000000000802093c        0x0 /usr/local/gnat-arm/arm-eabi/lib/gnat/ravenscar-full-stm32f4/adalib/libgnat.a(s-libsin.o)
                                          0x8 (size before relaxing)
 .ARM.exidx.text.system__libm_single__float_approximations__approx_exp2Xn
                0x000000000802093c        0x0 /usr/local/gnat-arm/arm-eabi/lib/gnat/ravenscar-full-stm32f4/adalib/libgnat.a(s-libsin.o)
                                          0x8 (size before relaxing)
 .ARM.exidx.text.system__libm_single__float_approximations__approx_sinXn
                0x000000000802093c        0x0 /usr/local/gnat-arm/arm-eabi/lib/gnat/ravenscar-full-stm32f4/adalib/libgnat.a(s-libsin.o)
                                          0x8 (size before relaxing)
 .ARM.exidx.text.system__libm_single__float_approximations__approx_sinhXn
                0x000000000802093c        0x0 /usr/local/gnat-arm/arm-eabi/lib/gnat/ravenscar-full-stm32f4/adalib/libgnat.a(s-libsin.o)
                                          0x8 (size before relaxing)
 .ARM.exidx.text.system__libm_single__float_approximations__approx_tanXn
                0x000000000802093c        0x0 /usr/local/gnat-arm/arm-eabi/lib/gnat/ravenscar-full-stm32f4/adalib/libgnat.a(s-libsin.o)
                                          0x8 (size before relaxing)
 .ARM.exidx.text.system__libm_single__float_approximations__approx_cotXn
                0x000000000802093c        0x0 /usr/local/gnat-arm/arm-eabi/lib/gnat/ravenscar-full-stm32f4/adalib/libgnat.a(s-libsin.o)
                                          0x8 (size before relaxing)
 .ARM.exidx.text.system__libm_single__float_approximations__approx_tanhXn
                0x000000000802093c        0x0 /usr/local/gnat-arm/arm-eabi/lib/gnat/ravenscar-full-stm32f4/adalib/libgnat.a(s-libsin.o)
                                          0x8 (size before relaxing)
 .ARM.exidx.text.system__libm_single__float_approximations__asinXn
                0x000000000802093c        0x8 /usr/local/gnat-arm/arm-eabi/lib/gnat/ravenscar-full-stm32f4/adalib/libgnat.a(s-libsin.o)
 .ARM.exidx.text.system__libm_single__float_approximations__multiply_addXn
                0x0000000008020944        0x8 /usr/local/gnat-arm/arm-eabi/lib/gnat/ravenscar-full-stm32f4/adalib/libgnat.a(s-libsin.o)
 .ARM.exidx.text.system__libm_single__instantiations__acosXn
                0x000000000802094c        0x8 /usr/local/gnat-arm/arm-eabi/lib/gnat/ravenscar-full-stm32f4/adalib/libgnat.a(s-libsin.o)
 .ARM.exidx.text.system__libm_single__instantiations__atan2Xn
                0x0000000008020954        0x8 /usr/local/gnat-arm/arm-eabi/lib/gnat/ravenscar-full-stm32f4/adalib/libgnat.a(s-libsin.o)
 .ARM.exidx.text.system__libm_single__float_tableIP
                0x000000000802095c        0x8 /usr/local/gnat-arm/arm-eabi/lib/gnat/ravenscar-full-stm32f4/adalib/libgnat.a(s-libsin.o)
 .ARM.exidx.text.acosf
                0x0000000008020964        0x8 /usr/local/gnat-arm/arm-eabi/lib/gnat/ravenscar-full-stm32f4/adalib/libgnat.a(s-libsin.o)
 .ARM.exidx.text.asinf
                0x000000000802096c        0x0 /usr/local/gnat-arm/arm-eabi/lib/gnat/ravenscar-full-stm32f4/adalib/libgnat.a(s-libsin.o)
                                          0x8 (size before relaxing)
 .ARM.exidx.text.atanf
                0x000000000802096c        0x0 /usr/local/gnat-arm/arm-eabi/lib/gnat/ravenscar-full-stm32f4/adalib/libgnat.a(s-libsin.o)
                                          0x8 (size before relaxing)
 .ARM.exidx.text.atan2f
                0x000000000802096c        0x0 /usr/local/gnat-arm/arm-eabi/lib/gnat/ravenscar-full-stm32f4/adalib/libgnat.a(s-libsin.o)
                                          0x8 (size before relaxing)
 .ARM.exidx.text.atanhf
                0x000000000802096c        0x8 /usr/local/gnat-arm/arm-eabi/lib/gnat/ravenscar-full-stm32f4/adalib/libgnat.a(s-libsin.o)
 .ARM.exidx.text.cosf
                0x0000000008020974        0x8 /usr/local/gnat-arm/arm-eabi/lib/gnat/ravenscar-full-stm32f4/adalib/libgnat.a(s-libsin.o)
 .ARM.exidx.text.coshf
                0x000000000802097c        0x8 /usr/local/gnat-arm/arm-eabi/lib/gnat/ravenscar-full-stm32f4/adalib/libgnat.a(s-libsin.o)
 .ARM.exidx.text.expf
                0x0000000008020984        0x8 /usr/local/gnat-arm/arm-eabi/lib/gnat/ravenscar-full-stm32f4/adalib/libgnat.a(s-libsin.o)
 .ARM.exidx.text.exp2f
                0x000000000802098c        0x8 /usr/local/gnat-arm/arm-eabi/lib/gnat/ravenscar-full-stm32f4/adalib/libgnat.a(s-libsin.o)
 .ARM.exidx.text.logf
                0x0000000008020994        0x8 /usr/local/gnat-arm/arm-eabi/lib/gnat/ravenscar-full-stm32f4/adalib/libgnat.a(s-libsin.o)
 .ARM.exidx.text.log1pf
                0x000000000802099c        0x8 /usr/local/gnat-arm/arm-eabi/lib/gnat/ravenscar-full-stm32f4/adalib/libgnat.a(s-libsin.o)
 .ARM.exidx.text.acoshf
                0x00000000080209a4        0x8 /usr/local/gnat-arm/arm-eabi/lib/gnat/ravenscar-full-stm32f4/adalib/libgnat.a(s-libsin.o)
 .ARM.exidx.text.asinhf
                0x00000000080209ac        0x8 /usr/local/gnat-arm/arm-eabi/lib/gnat/ravenscar-full-stm32f4/adalib/libgnat.a(s-libsin.o)
 .ARM.exidx.text.log2f
                0x00000000080209b4        0x8 /usr/local/gnat-arm/arm-eabi/lib/gnat/ravenscar-full-stm32f4/adalib/libgnat.a(s-libsin.o)
 .ARM.exidx.text.powf
                0x00000000080209bc        0x8 /usr/local/gnat-arm/arm-eabi/lib/gnat/ravenscar-full-stm32f4/adalib/libgnat.a(s-libsin.o)
 .ARM.exidx.text.sinf
                0x00000000080209c4        0x8 /usr/local/gnat-arm/arm-eabi/lib/gnat/ravenscar-full-stm32f4/adalib/libgnat.a(s-libsin.o)
 .ARM.exidx.text.sinhf
                0x00000000080209cc        0x8 /usr/local/gnat-arm/arm-eabi/lib/gnat/ravenscar-full-stm32f4/adalib/libgnat.a(s-libsin.o)
 .ARM.exidx.text.system__libm_single__sqrt
                0x00000000080209d4        0x8 /usr/local/gnat-arm/arm-eabi/lib/gnat/ravenscar-full-stm32f4/adalib/libgnat.a(s-libsin.o)
 .ARM.exidx.text.tanf
                0x00000000080209dc        0x8 /usr/local/gnat-arm/arm-eabi/lib/gnat/ravenscar-full-stm32f4/adalib/libgnat.a(s-libsin.o)
 .ARM.exidx.text.tanhf
                0x00000000080209e4        0x8 /usr/local/gnat-arm/arm-eabi/lib/gnat/ravenscar-full-stm32f4/adalib/libgnat.a(s-libsin.o)
 .ARM.exidx.text.sqrtf
                0x00000000080209ec        0x8 /usr/local/gnat-arm/arm-eabi/lib/gnat/ravenscar-full-stm32f4/adalib/libgnat.a(s-lisisq.o)
 .ARM.exidx.text.abort
                0x00000000080209f4        0x8 /usr/local/gnat-arm/arm-eabi/lib/gnat/ravenscar-full-stm32f4/adalib/libgnat.a(s-macres.o)
 .ARM.exidx.text._exit
                0x00000000080209fc        0x0 /usr/local/gnat-arm/arm-eabi/lib/gnat/ravenscar-full-stm32f4/adalib/libgnat.a(s-macres.o)
                                          0x8 (size before relaxing)
 .ARM.exidx.text.system__machine_reset__stop
                0x00000000080209fc        0x0 /usr/local/gnat-arm/arm-eabi/lib/gnat/ravenscar-full-stm32f4/adalib/libgnat.a(s-macres.o)
                                          0x8 (size before relaxing)
 .ARM.exidx.text.system__restrictions__rident__Trestriction_flagsBIP
                0x00000000080209fc        0x8 /usr/local/gnat-arm/arm-eabi/lib/gnat/ravenscar-full-stm32f4/adalib/libgnat.a(s-restri.o)
 .ARM.exidx.text.system__restrictions__rident__Trestriction_valuesBIP
                0x0000000008020a04        0x0 /usr/local/gnat-arm/arm-eabi/lib/gnat/ravenscar-full-stm32f4/adalib/libgnat.a(s-restri.o)
                                          0x8 (size before relaxing)
 .ARM.exidx.text.system__restrictions__rident__Tparameter_flagsBIP
                0x0000000008020a04        0x0 /usr/local/gnat-arm/arm-eabi/lib/gnat/ravenscar-full-stm32f4/adalib/libgnat.a(s-restri.o)
                                          0x8 (size before relaxing)
 .ARM.exidx.text.system__restrictions__rident__restrictions_infoIP
                0x0000000008020a04        0x0 /usr/local/gnat-arm/arm-eabi/lib/gnat/ravenscar-full-stm32f4/adalib/libgnat.a(s-restri.o)
                                          0x8 (size before relaxing)
 .ARM.exidx.text.system__restrictions__rident__profile_dataIP
                0x0000000008020a04        0x0 /usr/local/gnat-arm/arm-eabi/lib/gnat/ravenscar-full-stm32f4/adalib/libgnat.a(s-restri.o)
                                          0x8 (size before relaxing)
 .ARM.exidx.text.system__restrictions__abort_allowed
                0x0000000008020a04        0x0 /usr/local/gnat-arm/arm-eabi/lib/gnat/ravenscar-full-stm32f4/adalib/libgnat.a(s-restri.o)
                                          0x8 (size before relaxing)
 .ARM.exidx.text.system__restrictions__tasking_allowed
                0x0000000008020a04        0x0 /usr/local/gnat-arm/arm-eabi/lib/gnat/ravenscar-full-stm32f4/adalib/libgnat.a(s-restri.o)
                                          0x8 (size before relaxing)
 .ARM.exidx.text._ada_setup_pll
                0x0000000008020a04       0x10 /usr/local/gnat-arm/arm-eabi/lib/gnat/ravenscar-full-stm32f4/adalib/libgnat.a(setup_pll.o)
                                          0x8 (size before relaxing)
 .ARM.exidx     0x0000000008020a14        0x0 /usr/local/gnat-arm/bin/../lib/gcc/arm-eabi/7.3.1/thumb/v7e-m/fpv4-sp/hard/libgcc.a(_udivmoddi4.o)
                                          0x8 (size before relaxing)
 .ARM.exidx     0x0000000008020a14       0x78 /usr/local/gnat-arm/bin/../lib/gcc/arm-eabi/7.3.1/thumb/v7e-m/fpv4-sp/hard/libgcc.a(unwind-arm.o)
                                         0xd8 (size before relaxing)
 .ARM.exidx     0x0000000008020a8c       0x38 /usr/local/gnat-arm/bin/../lib/gcc/arm-eabi/7.3.1/thumb/v7e-m/fpv4-sp/hard/libgcc.a(pr-support.o)
                                         0x48 (size before relaxing)
                0x0000000008020ac4                PROVIDE (__exidx_end, .)

.rodata         0x0000000008020ac8     0x2ce8
 *(.lit)
 *(.rodata .rodata.* .gnu.linkonce.r*)
 .rodata        0x0000000008020ac8      0x159 b__gee.o
                0x0000000008020be4                __gnat_version
                0x0000000008020c10                __gnat_ada_main_program_name
 *fill*         0x0000000008020c21        0x3 
 .rodata        0x0000000008020c24       0x66 /home/aquox/Scrivania/Arm/fps-ravenscar-arm/build/system.o
                0x0000000008020c24                system__nameS
                0x0000000008020c34                system__nameN
                0x0000000008020c36                system__system_name
                0x0000000008020c38                system__bit_orderS
                0x0000000008020c58                system__bit_orderN
                0x0000000008020c5c                system__default_bit_order
                0x0000000008020c60                system__max_interrupt_priority
                0x0000000008020c64                system__max_priority
                0x0000000008020c68                system__default_priority
                0x0000000008020c6c                system__null_address
                0x0000000008020c70                system__atomic_sync_default
                0x0000000008020c71                system__backend_divide_checks
                0x0000000008020c72                system__backend_overflow_checks
                0x0000000008020c73                system__command_line_args
                0x0000000008020c74                system__configurable_run_time
                0x0000000008020c75                system__denorm
                0x0000000008020c76                system__duration_32_bits
                0x0000000008020c77                system__exit_status_supported
                0x0000000008020c78                system__fractional_fixed_ops
                0x0000000008020c79                system__frontend_layout
                0x0000000008020c7a                system__machine_overflows
                0x0000000008020c7b                system__machine_rounds
                0x0000000008020c7c                system__preallocated_stacks
                0x0000000008020c7d                system__signed_zeros
                0x0000000008020c7e                system__stack_check_default
                0x0000000008020c7f                system__stack_check_probes
                0x0000000008020c80                system__stack_check_limits
                0x0000000008020c81                system__support_aggregates
                0x0000000008020c82                system__support_composite_assign
                0x0000000008020c83                system__support_composite_compare
                0x0000000008020c84                system__support_long_shifts
                0x0000000008020c85                system__always_compatible_rep
                0x0000000008020c86                system__suppress_standard_library
                0x0000000008020c87                system__use_ada_main_program_name
                0x0000000008020c88                system__frontend_exceptions
                0x0000000008020c89                system__zcx_by_default
 *fill*         0x0000000008020c8a        0x2 
 .rodata        0x0000000008020c8c      0x124 /home/aquox/Scrivania/Arm/fps-ravenscar-arm/build/i-stm32.o
                0x0000000008020c8c                interfaces__stm32__rng_base
                0x0000000008020c90                interfaces__stm32__dcmi_base
                0x0000000008020c94                interfaces__stm32__fsmc_base
                0x0000000008020c98                interfaces__stm32__dbg_base
                0x0000000008020c9c                interfaces__stm32__dma2_base
                0x0000000008020ca0                interfaces__stm32__dma1_base
                0x0000000008020ca4                interfaces__stm32__rcc_base
                0x0000000008020ca8                interfaces__stm32__gpioi_base
                0x0000000008020cac                interfaces__stm32__gpioh_base
                0x0000000008020cb0                interfaces__stm32__gpiog_base
                0x0000000008020cb4                interfaces__stm32__gpiof_base
                0x0000000008020cb8                interfaces__stm32__gpioe_base
                0x0000000008020cbc                interfaces__stm32__gpiod_base
                0x0000000008020cc0                interfaces__stm32__gpioc_base
                0x0000000008020cc4                interfaces__stm32__gpiob_base
                0x0000000008020cc8                interfaces__stm32__gpioa_base
                0x0000000008020ccc                interfaces__stm32__syscfg_base
                0x0000000008020cd0                interfaces__stm32__spi1_base
                0x0000000008020cd4                interfaces__stm32__spi2_base
                0x0000000008020cd8                interfaces__stm32(short, int *, _ba, short,...)
                0x0000000008020cdc                interfaces__stm32__i2s2ext_base
                0x0000000008020ce0                interfaces__stm32__i2s3ext_base
                0x0000000008020ce4                interfaces__stm32__sdio_base
                0x0000000008020ce8                interfaces__stm32__adc1_base
                0x0000000008020cec                interfaces__stm32__adc2_base
                0x0000000008020cf0                interfaces__stm32__adc3_base
                0x0000000008020cf4                interfaces__stm32__usart6_base
                0x0000000008020cf8                interfaces__stm32__usart1_base
                0x0000000008020cfc                interfaces__stm32__usart2_base
                0x0000000008020d00                interfaces__stm32__usart3_base
                0x0000000008020d04                interfaces__stm32__dac_base
                0x0000000008020d08                interfaces__stm32__pwr_base
                0x0000000008020d0c                interfaces__stm32__i2c3_base
                0x0000000008020d10                interfaces__stm32__i2c2_base
                0x0000000008020d14                interfaces__stm32__i2c1_base
                0x0000000008020d18                interfaces__stm32__iwdg_base
                0x0000000008020d1c                interfaces__stm32__wwdg_base
                0x0000000008020d20                interfaces__stm32__rtc_base
                0x0000000008020d24                interfaces__stm32__uart4_base
                0x0000000008020d28                interfaces__stm32__uart5_base
                0x0000000008020d2c                interfaces__stm32__c_adc_base
                0x0000000008020d30                interfaces__stm32__tim1_base
                0x0000000008020d34                interfaces__stm32__tim8_base
                0x0000000008020d38                interfaces__stm32__tim2_base
                0x0000000008020d3c                interfaces__stm32__tim3_base
                0x0000000008020d40                interfaces__stm32__tim4_base
                0x0000000008020d44                interfaces__stm32__tim5_base
                0x0000000008020d48                interfaces__stm32__tim9_base
                0x0000000008020d4c                interfaces__stm32__tim12_base
                0x0000000008020d50                interfaces__stm32__tim10_base
                0x0000000008020d54                interfaces__stm32__tim13_base
                0x0000000008020d58                interfaces__stm32__tim14_base
                0x0000000008020d5c                interfaces__stm32__tim11_base
                0x0000000008020d60                interfaces__stm32__tim6_base
                0x0000000008020d64                interfaces__stm32__tim7_base
                0x0000000008020d68                interfaces__stm32__ethernet_mac_base
                0x0000000008020d6c                interfaces__stm32__ethernet_mmc_base
                0x0000000008020d70                interfaces__stm32__ethernet_ptp_base
                0x0000000008020d74                interfaces__stm32__ethernet_dma_base
                0x0000000008020d78                interfaces__stm32__crc_base
                0x0000000008020d7c                interfaces__stm32__otg_fs_global_base
                0x0000000008020d80                interfaces__stm32__otg_fs_host_base
                0x0000000008020d84                interfaces__stm32__otg_fs_device_base
                0x0000000008020d88                interfaces__stm32__otg_fs_pwrclk_base
                0x0000000008020d8c                interfaces__stm32__can1_base
                0x0000000008020d90                interfaces__stm32__can2_base
                0x0000000008020d94                interfaces__stm32__flash_base
                0x0000000008020d98                interfaces__stm32__exti_base
                0x0000000008020d9c                interfaces__stm32__otg_hs_global_base
                0x0000000008020da0                interfaces__stm32__otg_hs_host_base
                0x0000000008020da4                interfaces__stm32__otg_hs_device_base
                0x0000000008020da8                interfaces__stm32__otg_hs_pwrclk_base
                0x0000000008020dac                interfaces__stm32__nvic_base
 .rodata        0x0000000008020db0        0x4 /home/aquox/Scrivania/Arm/fps-ravenscar-arm/build/i-stm32-pwr.o
                0x0000000008020db0                interfaces__stm32__pwr__pwr_periph
 .rodata        0x0000000008020db4       0x2c /home/aquox/Scrivania/Arm/fps-ravenscar-arm/build/s-except.o
                0x0000000008020db4                system__exceptions__zcx_by_default
                0x0000000008020db8                system__exceptions__foreign_exceptionE
                0x0000000008020ddc                system__exceptions__R2s
 .rodata        0x0000000008020de0        0xd /home/aquox/Scrivania/Arm/fps-ravenscar-arm/build/s-imgint.o
 *fill*         0x0000000008020ded        0x3 
 .rodata        0x0000000008020df0        0x8 /home/aquox/Scrivania/Arm/fps-ravenscar-arm/build/s-maccod.o
                0x0000000008020df0                system__machine_code__no_input_operands
                0x0000000008020df4                system__machine_code__no_output_operands
 .rodata        0x0000000008020df8       0x24 /home/aquox/Scrivania/Arm/fps-ravenscar-arm/build/s-parame.o
                0x0000000008020df8                system__parameters__unspecified_size
                0x0000000008020dfc                system__parameters__default_stack_size
                0x0000000008020e00                system__parameters__minimum_stack_size
                0x0000000008020e04                system__parameters__stack_grows_down
                0x0000000008020e08                system__parameters__runtime_default_sec_stack_size
                0x0000000008020e0c                system__parameters__c_malloc_linkname
                0x0000000008020e19                system__parameters__garbage_collected
                0x0000000008020e1a                system__parameters__single_lock
                0x0000000008020e1b                system__parameters__no_abort
 .rodata        0x0000000008020e1c       0x1c /home/aquox/Scrivania/Arm/fps-ravenscar-arm/build/s-semiho.o
 .rodata        0x0000000008020e38        0xd /home/aquox/Scrivania/Arm/fps-ravenscar-arm/build/s-secsta.o
 *fill*         0x0000000008020e45        0x3 
 .rodata        0x0000000008020e48       0x28 /home/aquox/Scrivania/Arm/fps-ravenscar-arm/build/g-debuti.o
                0x0000000008020e5c                gnat__debug_utilities__address_64
 .rodata        0x0000000008020e70        0xd /home/aquox/Scrivania/Arm/fps-ravenscar-arm/build/s-casuti.o
 *fill*         0x0000000008020e7d        0x3 
 .rodata        0x0000000008020e80       0x2d /home/aquox/Scrivania/Arm/fps-ravenscar-arm/build/s-tasinf.o
                0x0000000008020e80                system__task_info__scope_typeS
                0x0000000008020ea8                system__task_info__scope_typeN
                0x0000000008020eac                system__task_info__unspecified_task_info
 *fill*         0x0000000008020ead        0x3 
 .rodata        0x0000000008020eb0       0x18 /home/aquox/Scrivania/Arm/fps-ravenscar-arm/build/s-io.o
                0x0000000008020eb8                system__io__file_typeS
                0x0000000008020ec4                system__io__file_typeN
 .rodata        0x0000000008020ec8        0x4 /home/aquox/Scrivania/Arm/fps-ravenscar-arm/build/s-traent.o
                0x0000000008020ec8                system__traceback_entries__null_tb_entry
 .rodata        0x0000000008020ecc       0x14 /home/aquox/Scrivania/Arm/fps-ravenscar-arm/build/i-stm32-rcc.o
                0x0000000008020edc                interfaces__stm32__rcc__rcc_periph
 .rodata        0x0000000008020ee0        0xe /home/aquox/Scrivania/Arm/fps-ravenscar-arm/build/s-bbpara.o
                0x0000000008020ee0                system__bb__parameters__ahb_pre
                0x0000000008020ee4                system__bb__parameters__apb1_pre
                0x0000000008020ee8                system__bb__parameters__apb2_pre
                0x0000000008020ee9                system__bb__parameters__has_fpu
                0x0000000008020eea                system__bb__parameters__has_vtor
                0x0000000008020eeb                system__bb__parameters__has_os_extensions
                0x0000000008020eec                system__bb__parameters__is_armv6m
                0x0000000008020eed                system__bb__parameters__multiprocessor
 *fill*         0x0000000008020eee        0x2 
 .rodata        0x0000000008020ef0      0x1d4 /home/aquox/Scrivania/Arm/fps-ravenscar-arm/build/s-stm32.o
                0x0000000008020f08                system__stm32__mode_in
                0x0000000008020f09                system__stm32__mode_out
                0x0000000008020f0a                system__stm32__mode_af
                0x0000000008020f0b                system__stm32__mode_an
                0x0000000008020f0c                system__stm32__push_pull
                0x0000000008020f0d                system__stm32__open_drain
                0x0000000008020f0e                system__stm32__speed_2mhz
                0x0000000008020f0f                system__stm32__speed_25mhz
                0x0000000008020f10                system__stm32__speed_50mhz
                0x0000000008020f11                system__stm32__speed_100mhz
                0x0000000008020f12                system__stm32__no_pull
                0x0000000008020f13                system__stm32__pull_up
                0x0000000008020f14                system__stm32__pull_down
                0x0000000008020f15                system__stm32__af_usart1
                0x0000000008020f16                system__stm32__af_usart6
                0x0000000008020f18                system__stm32__ahb_prescaler_enumS
                0x0000000008020f40                system__stm32__ahb_prescaler_enumN
                0x0000000008020f4c                system__stm32__ahbpre_div1
                0x0000000008020f50                system__stm32__pll_sourceS
                0x0000000008020f68                system__stm32__pll_sourceN
                0x0000000008020f6c                system__stm32__sysclk_sourceS
                0x0000000008020f98                system__stm32__sysclk_sourceN
                0x0000000008020f9c                system__stm32__apb_prescaler_enumS
                0x0000000008020fb0                system__stm32__apb_prescaler_enumN
                0x0000000008020fb8                system__stm32__i2s_clock_selectionS
                0x0000000008020fd0                system__stm32__i2s_clock_selectionN
                0x0000000008020fd4                system__stm32__mc01_clock_selectionS
                0x0000000008021000                system__stm32__mc01_clock_selectionN
                0x0000000008021008                system__stm32__mc02_clock_selectionS
                0x000000000802103c                system__stm32__mc02_clock_selectionN
                0x0000000008021044                system__stm32__mc0x_prescalerS
                0x0000000008021080                system__stm32__mc0x_prescalerN
                0x0000000008021088                system__stm32__mc0x_prescalerA
                0x0000000008021090                system__stm32__mcu_id
 .rodata        0x00000000080210c4       0x64 /home/aquox/Scrivania/Arm/fps-ravenscar-arm/build/s-wchcon.o
                0x0000000008021101                system__wch_con__wcem_hex
                0x0000000008021102                system__wch_con__wcem_upper
                0x0000000008021103                system__wch_con__wcem_shift_jis
                0x0000000008021104                system__wch_con__wcem_euc
                0x0000000008021105                system__wch_con__wcem_utf8
                0x0000000008021106                system__wch_con__wcem_brackets
                0x0000000008021108                system__wch_con__wc_encoding_letters
                0x0000000008021110                system__wch_con__wc_longest_sequences
 .rodata        0x0000000008021128        0xe /home/aquox/Scrivania/Arm/fps-ravenscar-arm/build/s-wchjis.o
 *fill*         0x0000000008021136        0x2 
 .rodata        0x0000000008021138       0x20 /home/aquox/Scrivania/Arm/fps-ravenscar-arm/build/s-addima.o
 .rodata        0x0000000008021158       0x1c /home/aquox/Scrivania/Arm/fps-ravenscar-arm/build/s-traceb.o
 .rodata        0x0000000008021174       0xc2 /home/aquox/Scrivania/Arm/fps-ravenscar-arm/build/s-excmac.o
                0x000000000802117c                system__exceptions__machine__us_virtual_unwind_frame
                0x0000000008021180                system__exceptions__machine__us_unwind_frame_starting
                0x0000000008021184                system__exceptions__machine__us_unwind_frame_resume
                0x0000000008021188                system__exceptions__machine__gnat_exception_class
                0x0000000008021190                system__exceptions__machine__unwind_reason_codeS
                0x0000000008021220                system__exceptions__machine__unwind_reason_codeN
 .rodata        0x0000000008021236        0x1 /home/aquox/Scrivania/Arm/fps-ravenscar-arm/build/s-multip.o
                0x0000000008021236                system__multiprocessors__not_a_specific_cpu
 *fill*         0x0000000008021237        0x1 
 .rodata        0x0000000008021238       0x22 /home/aquox/Scrivania/Arm/fps-ravenscar-arm/build/s-exctab.o
 *fill*         0x000000000802125a        0x2 
 .rodata        0x000000000802125c        0xc /home/aquox/Scrivania/Arm/fps-ravenscar-arm/build/s-bcpcst.o
 .rodata        0x0000000008021268       0x28 /home/aquox/Scrivania/Arm/fps-ravenscar-arm/build/s-bbbosu.o
                0x0000000008021275                system__bb__board_support__sys_tick_vector
                0x0000000008021276                system__bb__board_support__interrupt_request_vector
                0x0000000008021278                system__bb__board_support__alarm_interrupt_id
                0x000000000802127c                system__bb__board_support__tick_period
                0x0000000008021280                system__bb__board_support__nvic_iser0
                0x0000000008021284                system__bb__board_support(int,  *)
                0x0000000008021288                system__bb__board_support(int, char, short, long double)
                0x000000000802128c                system__bb__board_support__syst
 .rodata        0x0000000008021290       0x18 /home/aquox/Scrivania/Arm/fps-ravenscar-arm/build/s-bbdead.o
                0x0000000008021290                system__bb__deadlines__default_relative_deadline
                0x0000000008021298                system__bb__deadlines__unspecified_relative_deadline
                0x00000000080212a0                system__bb__deadlines__default_absolute_deadline
 .rodata        0x00000000080212a8        0xd /home/aquox/Scrivania/Arm/fps-ravenscar-arm/build/a-exctra.o
 *fill*         0x00000000080212b5        0x3 
 .rodata        0x00000000080212b8       0x34 /home/aquox/Scrivania/Arm/fps-ravenscar-arm/build/s-memory.o
 .rodata        0x00000000080212ec       0x13 /home/aquox/Scrivania/Arm/fps-ravenscar-arm/build/s-trasym.o
 *fill*         0x00000000080212ff        0x1 
 .rodata        0x0000000008021300       0xc4 /home/aquox/Scrivania/Arm/fps-ravenscar-arm/build/s-wchstw.o
 .rodata        0x00000000080213c4      0x2e5 /home/aquox/Scrivania/Arm/fps-ravenscar-arm/build/a-tags.o
                0x0000000008021504                ada__tags__tag_errorE
                0x0000000008021518                ada__tags__R4s
                0x000000000802151c                ada__tags__no_tag
                0x0000000008021520                ada__tags__dt_predef_prims_size
                0x0000000008021524                ada__tags__dt_offset_to_top_size
                0x0000000008021528                ada__tags__dt_typeinfo_ptr_size
                0x000000000802152c                ada__tags__dt_offset_to_top_offset
                0x0000000008021530                ada__tags__dt_predef_prims_offset
                0x0000000008021534                ada__tags__max_predef_prims
                0x0000000008021538                ada__tags__prim_op_kindS
                0x00000000080215c4                ada__tags__prim_op_kindN
                0x00000000080215d8                ada__tags__signature_kindS
                0x00000000080215f8                ada__tags__signature_kindN
                0x00000000080215fc                ada__tags__tagged_kindS
                0x0000000008021658                ada__tags__tagged_kindN
                0x0000000008021660                ada__tags__external_tag_htable__null_ptrXn
 *fill*         0x00000000080216a9        0x3 
 .rodata        0x00000000080216ac       0x38 /home/aquox/Scrivania/Arm/fps-ravenscar-arm/build/s-valuti.o
 .rodata        0x00000000080216e4       0x70 /home/aquox/Scrivania/Arm/fps-ravenscar-arm/build/s-valuns.o
 .rodata        0x0000000008021754       0xac /home/aquox/Scrivania/Arm/fps-ravenscar-arm/build/s-stalib.o
                0x0000000008021754                system__standard_library__constraint_error_name
                0x0000000008021768                system__standard_library__program_error_name
                0x0000000008021778                system__standard_library__storage_error_name
                0x0000000008021788                system__standard_library__tasking_error_name
                0x0000000008021798                system__standard_library__abort_signal_name
                0x00000000080217a8                system__standard_library__numeric_error_name
                0x00000000080217b8                system__standard_library__exception_trace_kindS
                0x00000000080217f8                system__standard_library__exception_trace_kindN
 .rodata        0x0000000008021800      0x94f /home/aquox/Scrivania/Arm/fps-ravenscar-arm/build/a-except.o
                0x0000000008021b4c                ada__exceptions__null_loc
                0x0000000008021b50                ada__exceptions__null_id
                0x0000000008021b54                ada__exceptions__null_occurrence
                0x0000000008021cfc                ada__exceptions__rmsg_00
                0x0000000008021d10                ada__exceptions__rmsg_01
                0x0000000008021d2c                ada__exceptions__rmsg_02
                0x0000000008021d48                ada__exceptions__rmsg_03
                0x0000000008021d58                ada__exceptions__rmsg_04
                0x0000000008021d68                ada__exceptions__rmsg_05
                0x0000000008021d7c                ada__exceptions__rmsg_06
                0x0000000008021d8c                ada__exceptions__rmsg_07
                0x0000000008021da0                ada__exceptions__rmsg_08
                0x0000000008021db4                ada__exceptions__rmsg_09
                0x0000000008021dd0                ada__exceptions__rmsg_10
                0x0000000008021de8                ada__exceptions__rmsg_11
                0x0000000008021e00                ada__exceptions__rmsg_12
                0x0000000008021e14                ada__exceptions__rmsg_13
                0x0000000008021e28                ada__exceptions__rmsg_14
                0x0000000008021e44                ada__exceptions__rmsg_15
                0x0000000008021e60                ada__exceptions__rmsg_16
                0x0000000008021e90                ada__exceptions__rmsg_17
                0x0000000008021ea4                ada__exceptions__rmsg_18
                0x0000000008021eb8                ada__exceptions__rmsg_19
                0x0000000008021ee8                ada__exceptions__rmsg_20
                0x0000000008021f10                ada__exceptions__rmsg_21
                0x0000000008021f2c                ada__exceptions__rmsg_22
                0x0000000008021f3c                ada__exceptions__rmsg_23
                0x0000000008021f60                ada__exceptions__rmsg_24
                0x0000000008021f80                ada__exceptions__rmsg_25
                0x0000000008021f9c                ada__exceptions__rmsg_26
                0x0000000008021fac                ada__exceptions__rmsg_27
                0x0000000008021fc8                ada__exceptions__rmsg_28
                0x0000000008021fe8                ada__exceptions__rmsg_29
                0x0000000008022004                ada__exceptions__rmsg_30
                0x0000000008022020                ada__exceptions__rmsg_31
                0x0000000008022054                ada__exceptions__rmsg_32
                0x0000000008022068                ada__exceptions__rmsg_33
                0x0000000008022078                ada__exceptions__rmsg_34
                0x000000000802208c                ada__exceptions__rmsg_35
                0x00000000080220a0                ada__exceptions__rmsg_36
                0x00000000080220c0                ada__exceptions__rmsg_37
                0x00000000080220d8                ada__exceptions__counter
                0x00000000080220dc                ada__exceptions__exception_data__bei_name_headerXn
                0x00000000080220e4                ada__exceptions__exception_data__bei_msg_headerXn
                0x00000000080220e8                ada__exceptions__exception_data__bei_pid_headerXn
                0x00000000080220f0                ada__exceptions__exception_data__betb_headerXn
                0x0000000008022110                ada__exceptions__exception_data__ldad_headerXn
                0x000000000802211e                __gnat_others_value
                0x000000000802211f                __gnat_all_others_value
                0x0000000008022120                __gnat_unhandled_others_value
                0x0000000008022124                ada__exceptions__exception_traces__nlineXn
 *fill*         0x000000000802214f        0x1 
 .rodata        0x0000000008022150       0x30 /home/aquox/Scrivania/Arm/fps-ravenscar-arm/build/s-bbthqu.o
 .rodata        0x0000000008022180        0xd /home/aquox/Scrivania/Arm/fps-ravenscar-arm/build/s-bbprot.o
 *fill*         0x000000000802218d        0x3 
 .rodata        0x0000000008022190       0x30 /home/aquox/Scrivania/Arm/fps-ravenscar-arm/build/s-bbthre.o
                0x00000000080221a0                system__bb__threads__null_thread_id
                0x00000000080221a4                system__bb__threads__thread_statesS
                0x00000000080221bc                system__bb__threads__thread_statesN
 .rodata        0x00000000080221c0       0x14 /home/aquox/Scrivania/Arm/fps-ravenscar-arm/build/s-bbinte.o
                0x00000000080221d0                system__bb__interrupts__no_interrupt
 .rodata        0x00000000080221d4      0x1d8 /home/aquox/Scrivania/Arm/fps-ravenscar-arm/build/s-bbcppr.o
                0x0000000008022380                system__bb__cpu_primitives__nl
                0x0000000008022382                system__bb__cpu_primitives__has_vtor
                0x0000000008022383                system__bb__cpu_primitives__has_os_extensions
                0x0000000008022384                system__bb__cpu_primitives__is_armv6m
                0x0000000008022385                system__bb__cpu_primitives__reset_vector
                0x0000000008022386                system__bb__cpu_primitives__nmi_vector
                0x0000000008022387                system__bb__cpu_primitives__hard_fault_vector
                0x0000000008022388                system__bb__cpu_primitives__bus_fault_vector
                0x0000000008022389                system__bb__cpu_primitives__usage_fault_vector
                0x000000000802238a                system__bb__cpu_primitives__sv_call_vector
                0x000000000802238b                system__bb__cpu_primitives__pend_sv_vector
                0x000000000802238c                system__bb__cpu_primitives__sys_tick_vector
                0x000000000802238d                system__bb__cpu_primitives__interrupt_request_vector
                0x000000000802238e                system__bb__cpu_primitives__sp_process
                0x0000000008022390                system__bb__cpu_primitives__vtor
                0x0000000008022394                system__bb__cpu_primitives__aircr
                0x0000000008022398                system__bb__cpu_primitives(char, char, long double)
                0x000000000802239c                system__bb__cpu_primitives__shpr1
                0x00000000080223a0                system__bb__cpu_primitives__shpr2
                0x00000000080223a4                system__bb__cpu_primitives__shpr3
                0x00000000080223a8                system__bb__cpu_primitives__shcsr
 .rodata        0x00000000080223ac        0xc /home/aquox/Scrivania/Arm/fps-ravenscar-arm/build/s-osinte.o
                0x00000000080223ac                system__os_interface__no_interrupt
                0x00000000080223b0                system__os_interface__null_thread_id
                0x00000000080223b4                system__os_interface__lwp_self
 .rodata        0x00000000080223b8       0x94 /home/aquox/Scrivania/Arm/fps-ravenscar-arm/build/a-elchha.o
 .rodata        0x000000000802244c       0xbc /home/aquox/Scrivania/Arm/fps-ravenscar-arm/build/s-bbtiev.o
                0x000000000802245c                system__bb__timing_events__timing_eventP
                0x0000000008022460                system__bb__timing_events__timing_eventY
                0x0000000008022464                system__bb__timing_events__timing_eventE12s
                0x000000000802248c                system__bb__timing_events__timing_eventB16s
                0x00000000080224b8                system__bb__timing_events__timing_eventR14s___UNC
                0x00000000080224e4                system__bb__timing_events__timing_eventR14s
                0x00000000080224e8                system__bb__timing_events__timing_eventT
 .rodata        0x0000000008022508       0x54 /home/aquox/Scrivania/Arm/fps-ravenscar-arm/build/s-bbtime.o
                0x0000000008022518                system__bb__time__initial_composite_execution_time
                0x0000000008022520                system__bb__time__time_first
                0x0000000008022528                system__bb__time__time_last
                0x0000000008022530                system__bb__time__time_span_first
                0x0000000008022538                system__bb__time__time_span_last
                0x0000000008022540                system__bb__time__time_span_zero
                0x0000000008022548                system__bb__time__time_span_unit
                0x0000000008022550                system__bb__time__update_in_progress
                0x0000000008022554                system__bb__time__periods_in_epoch
                0x0000000008022558                system__bb__time__duration_units
 .rodata        0x000000000802255c        0xe /home/aquox/Scrivania/Arm/fps-ravenscar-arm/build/s-mufalo.o
                0x0000000008022569                system__multiprocessors__fair_locks__multiprocessor
 *fill*         0x000000000802256a        0x2 
 .rodata        0x000000000802256c        0xd /home/aquox/Scrivania/Arm/fps-ravenscar-arm/build/s-tasdeb.o
 *fill*         0x0000000008022579        0x3 
 .rodata        0x000000000802257c      0x1f4 /home/aquox/Scrivania/Arm/fps-ravenscar-arm/build/s-taskin.o
                0x00000000080225d0                system__tasking__null_task
                0x00000000080225d4                system__tasking__idle_priority
                0x00000000080225d8                system__tasking__library_task_level
                0x00000000080225dc                system__tasking__task_statesS
                0x000000000802270c                system__tasking__task_statesN
                0x0000000008022730                system__tasking__call_modesS
                0x0000000008022768                system__tasking__call_modesN
 .rodata        0x0000000008022770       0x24 /home/aquox/Scrivania/Arm/fps-ravenscar-arm/build/s-soflin.o
                0x0000000008022788                system__soft_links__abort_defer
                0x000000000802278c                system__soft_links__abort_undefer
                0x0000000008022790                system__soft_links__get_current_excep
 .rodata        0x0000000008022794       0x28 /home/aquox/Scrivania/Arm/fps-ravenscar-arm/build/s-taprop.o
                0x00000000080227b8                system__task_primitives__operations__idle_stack_size
 *fill*         0x00000000080227bc        0x4 
 .rodata        0x00000000080227c0       0x4c /home/aquox/Scrivania/Arm/fps-ravenscar-arm/build/a-reatim.o
                0x00000000080227d0                ada__real_time__time_first
                0x00000000080227d8                ada__real_time__time_last
                0x00000000080227e0                ada__real_time__time_span_first
                0x00000000080227e8                ada__real_time__time_span_last
                0x00000000080227f0                ada__real_time__time_span_zero
                0x00000000080227f8                ada__real_time__time_span_unit
                0x0000000008022800                ada__real_time__tick
                0x0000000008022808                ada__real_time__duration_units
 .rodata        0x000000000802280c        0xd /home/aquox/Scrivania/Arm/fps-ravenscar-arm/build/a-retide.o
 *fill*         0x0000000008022819        0x3 
 .rodata        0x000000000802281c       0x15 /home/aquox/Scrivania/Arm/fps-ravenscar-arm/build/s-taprob.o
                0x000000000802282c                system__tasking__protected_objects__null_po
 *fill*         0x0000000008022831        0x3 
 .rodata        0x0000000008022834       0x1d /home/aquox/Scrivania/Arm/fps-ravenscar-arm/build/s-tpoben.o
 *fill*         0x0000000008022851        0x3 
 .rodata        0x0000000008022854        0xd /home/aquox/Scrivania/Arm/fps-ravenscar-arm/build/s-tpobmu.o
 *fill*         0x0000000008022861        0x3 
 .rodata        0x0000000008022864       0x91 /home/aquox/Scrivania/Arm/fps-ravenscar-arm/build/s-tposen.o
 *fill*         0x00000000080228f5        0x3 
 .rodata        0x00000000080228f8        0xd /home/aquox/Scrivania/Arm/fps-ravenscar-arm/build/s-tasque.o
 *fill*         0x0000000008022905        0x3 
 .rodata        0x0000000008022908       0x7d /home/aquox/Scrivania/Arm/fps-ravenscar-arm/build/s-tpobop.o
                0x0000000008022984                system__tasking__protected_objects__operations__multiprocessor
 *fill*         0x0000000008022985        0x3 
 .rodata        0x0000000008022988       0x6c /home/aquox/Scrivania/Arm/fps-ravenscar-arm/build/s-tarest.o
 .rodata        0x00000000080229f4       0x14 /home/aquox/Scrivania/Arm/fps-ravenscar-arm/build/a-taside.o
                0x0000000008022a04                ada__task_identification__null_task_id
 .rodata        0x0000000008022a08        0x8 /home/aquox/Scrivania/Arm/fps-ravenscar-arm/build/a-sytaco.o
                0x0000000008022a08                ada__synchronous_task_control__suspension_objectA
 .rodata        0x0000000008022a10        0x4 /home/aquox/Scrivania/Arm/fps-ravenscar-arm/build/activation_log_parameters.o
                0x0000000008022a10                activation_log_parameters__activation_log_priority
 .rodata        0x0000000008022a14        0x4 /home/aquox/Scrivania/Arm/fps-ravenscar-arm/build/activation_manager.o
                0x0000000008022a14                activation_manager__relative_offset
 .rodata        0x0000000008022a18        0x4 /home/aquox/Scrivania/Arm/fps-ravenscar-arm/build/auxiliary.o
                0x0000000008022a18                auxiliary__factor
 .rodata        0x0000000008022a1c        0x8 /home/aquox/Scrivania/Arm/fps-ravenscar-arm/build/external_event_server_parameters.o
                0x0000000008022a1c                external_event_server_parameters__event_queue_priority
                0x0000000008022a20                external_event_server_parameters__external_event_server_priority
 .rodata        0x0000000008022a24       0x18 /home/aquox/Scrivania/Arm/fps-ravenscar-arm/build/event_queue.o
                0x0000000008022a34                event_queue__handlerTA
 .rodata        0x0000000008022a3c       0x3d /home/aquox/Scrivania/Arm/fps-ravenscar-arm/build/external_event_server.o
                0x0000000008022a64                external_event_server__external_event_serverT1
 *fill*         0x0000000008022a79        0x3 
 .rodata        0x0000000008022a7c      0x10c /home/aquox/Scrivania/Arm/fps-ravenscar-arm/build/production_workload.o
                0x0000000008022b5c                production_workload__workload_failureE
                0x0000000008022b84                production_workload__R2s
 .rodata        0x0000000008022b88       0x3c /home/aquox/Scrivania/Arm/fps-ravenscar-arm/build/activation_log_reader_parameters.o
                0x0000000008022bbc                activation_log_reader_parameters__activation_log_reader_priority
 .rodata        0x0000000008022bc4       0x3d /home/aquox/Scrivania/Arm/fps-ravenscar-arm/build/activation_log_reader.o
                0x0000000008022bec                activation_log_reader__activation_log_readerT1
 *fill*         0x0000000008022c01        0x3 
 .rodata        0x0000000008022c04       0x28 /home/aquox/Scrivania/Arm/fps-ravenscar-arm/build/on_call_producer_parameters.o
                0x0000000008022c28                on_call_producer_parameters__on_call_producer_priority
 .rodata        0x0000000008022c2c        0x8 /home/aquox/Scrivania/Arm/fps-ravenscar-arm/build/request_buffer_parameters.o
                0x0000000008022c2c                request_buffer_parameters__request_buffer_priority
                0x0000000008022c30                request_buffer_parameters__request_buffer_range
 .rodata        0x0000000008022c34       0x2c /home/aquox/Scrivania/Arm/fps-ravenscar-arm/build/request_buffer.o
 .rodata        0x0000000008022c60       0x38 /home/aquox/Scrivania/Arm/fps-ravenscar-arm/build/on_call_producer.o
                0x0000000008022c88                on_call_producer__on_call_producerT1
 .rodata        0x0000000008022c98       0x59 /home/aquox/Scrivania/Arm/fps-ravenscar-arm/build/regular_producer_parameters.o
                0x0000000008022ce0                regular_producer_parameters__regular_producer_priority
                0x0000000008022ce4                regular_producer_parameters__regular_producer_period
 *fill*         0x0000000008022cf1        0x3 
 .rodata        0x0000000008022cf4       0x38 /home/aquox/Scrivania/Arm/fps-ravenscar-arm/build/regular_producer.o
                0x0000000008022d1c                regular_producer__regular_producerT1
 .rodata        0x0000000008022d2c       0x15 /usr/local/gnat-arm/arm-eabi/lib/gnat/ravenscar-full-stm32f4/adalib/libgnat.a(a-nuelfu.o)
 *fill*         0x0000000008022d41        0x3 
 .rodata.ada__numerics__elementary_functions__Oexpon.str1.4
                0x0000000008022d44       0x31 /usr/local/gnat-arm/arm-eabi/lib/gnat/ravenscar-full-stm32f4/adalib/libgnat.a(a-nuelfu.o)
 *fill*         0x0000000008022d75        0x3 
 .rodata.ada__numerics__elementary_functions__arccos.str1.4
                0x0000000008022d78       0x31 /usr/local/gnat-arm/arm-eabi/lib/gnat/ravenscar-full-stm32f4/adalib/libgnat.a(a-nuelfu.o)
 *fill*         0x0000000008022da9        0x3 
 .rodata.ada__numerics__elementary_functions__arccos__2.str1.4
                0x0000000008022dac       0x65 /usr/local/gnat-arm/arm-eabi/lib/gnat/ravenscar-full-stm32f4/adalib/libgnat.a(a-nuelfu.o)
 *fill*         0x0000000008022e11        0x3 
 .rodata.ada__numerics__elementary_functions__arccosh.str1.4
                0x0000000008022e14       0x31 /usr/local/gnat-arm/arm-eabi/lib/gnat/ravenscar-full-stm32f4/adalib/libgnat.a(a-nuelfu.o)
 *fill*         0x0000000008022e45        0x3 
 .rodata.ada__numerics__elementary_functions__arccot.str1.4
                0x0000000008022e48       0x31 /usr/local/gnat-arm/arm-eabi/lib/gnat/ravenscar-full-stm32f4/adalib/libgnat.a(a-nuelfu.o)
 *fill*         0x0000000008022e79        0x3 
 .rodata.ada__numerics__elementary_functions__arccot__2.str1.4
                0x0000000008022e7c       0x31 /usr/local/gnat-arm/arm-eabi/lib/gnat/ravenscar-full-stm32f4/adalib/libgnat.a(a-nuelfu.o)
 *fill*         0x0000000008022ead        0x3 
 .rodata.ada__numerics__elementary_functions__arccoth.str1.4
                0x0000000008022eb0       0x31 /usr/local/gnat-arm/arm-eabi/lib/gnat/ravenscar-full-stm32f4/adalib/libgnat.a(a-nuelfu.o)
 *fill*         0x0000000008022ee1        0x3 
 .rodata.ada__numerics__elementary_functions__arcsin.str1.4
                0x0000000008022ee4       0x31 /usr/local/gnat-arm/arm-eabi/lib/gnat/ravenscar-full-stm32f4/adalib/libgnat.a(a-nuelfu.o)
 *fill*         0x0000000008022f15        0x3 
 .rodata.ada__numerics__elementary_functions__arcsin__2.str1.4
                0x0000000008022f18       0x65 /usr/local/gnat-arm/arm-eabi/lib/gnat/ravenscar-full-stm32f4/adalib/libgnat.a(a-nuelfu.o)
 *fill*         0x0000000008022f7d        0x3 
 .rodata.ada__numerics__elementary_functions__arctan.str1.4
                0x0000000008022f80       0x31 /usr/local/gnat-arm/arm-eabi/lib/gnat/ravenscar-full-stm32f4/adalib/libgnat.a(a-nuelfu.o)
 *fill*         0x0000000008022fb1        0x3 
 .rodata.ada__numerics__elementary_functions__arctan__2.str1.4
                0x0000000008022fb4       0x65 /usr/local/gnat-arm/arm-eabi/lib/gnat/ravenscar-full-stm32f4/adalib/libgnat.a(a-nuelfu.o)
 *fill*         0x0000000008023019        0x3 
 .rodata.ada__numerics__elementary_functions__arctanh.str1.4
                0x000000000802301c       0x31 /usr/local/gnat-arm/arm-eabi/lib/gnat/ravenscar-full-stm32f4/adalib/libgnat.a(a-nuelfu.o)
 *fill*         0x000000000802304d        0x3 
 .rodata.ada__numerics__elementary_functions__cot__2.str1.4
                0x0000000008023050       0x31 /usr/local/gnat-arm/arm-eabi/lib/gnat/ravenscar-full-stm32f4/adalib/libgnat.a(a-nuelfu.o)
 *fill*         0x0000000008023081        0x3 
 .rodata.ada__numerics__elementary_functions__coth.str1.4
                0x0000000008023084       0x31 /usr/local/gnat-arm/arm-eabi/lib/gnat/ravenscar-full-stm32f4/adalib/libgnat.a(a-nuelfu.o)
 *fill*         0x00000000080230b5        0x3 
 .rodata.ada__numerics__elementary_functions__log.str1.4
                0x00000000080230b8       0x31 /usr/local/gnat-arm/arm-eabi/lib/gnat/ravenscar-full-stm32f4/adalib/libgnat.a(a-nuelfu.o)
 *fill*         0x00000000080230e9        0x3 
 .rodata.ada__numerics__elementary_functions__log__2.str1.4
                0x00000000080230ec       0x31 /usr/local/gnat-arm/arm-eabi/lib/gnat/ravenscar-full-stm32f4/adalib/libgnat.a(a-nuelfu.o)
 *fill*         0x000000000802311d        0x3 
 .rodata.ada__numerics__elementary_functions__sin__2.str1.4
                0x0000000008023120       0x31 /usr/local/gnat-arm/arm-eabi/lib/gnat/ravenscar-full-stm32f4/adalib/libgnat.a(a-nuelfu.o)
 *fill*         0x0000000008023151        0x3 
 .rodata.ada__numerics__elementary_functions__sqrt.str1.4
                0x0000000008023154       0x31 /usr/local/gnat-arm/arm-eabi/lib/gnat/ravenscar-full-stm32f4/adalib/libgnat.a(a-nuelfu.o)
 *fill*         0x0000000008023185        0x3 
 .rodata.ada__numerics__elementary_functions__tan__2.str1.4
                0x0000000008023188       0x31 /usr/local/gnat-arm/arm-eabi/lib/gnat/ravenscar-full-stm32f4/adalib/libgnat.a(a-nuelfu.o)
 *fill*         0x00000000080231b9        0x3 
 .rodata.ada__numerics__R2s
                0x00000000080231bc        0x4 /usr/local/gnat-arm/arm-eabi/lib/gnat/ravenscar-full-stm32f4/adalib/libgnat.a(a-numeri.o)
                0x00000000080231bc                ada__numerics__R2s
 .rodata.ada__numerics__argument_errorE
                0x00000000080231c0       0x1c /usr/local/gnat-arm/arm-eabi/lib/gnat/ravenscar-full-stm32f4/adalib/libgnat.a(a-numeri.o)
                0x00000000080231c0                ada__numerics__argument_errorE
 .rodata        0x00000000080231dc        0x8 /usr/local/gnat-arm/arm-eabi/lib/gnat/ravenscar-full-stm32f4/adalib/libgnat.a(a-textio.o)
 .rodata.ada__text_io__new_line.str1.4
                0x00000000080231e4        0x3 /usr/local/gnat-arm/arm-eabi/lib/gnat/ravenscar-full-stm32f4/adalib/libgnat.a(a-textio.o)
 *fill*         0x00000000080231e7        0x1 
 .rodata.__gnat_personality_v0.str1.4
                0x00000000080231e8       0x10 /usr/local/gnat-arm/arm-eabi/lib/gnat/ravenscar-full-stm32f4/adalib/libgnat.a(raise-gcc.o)
 .rodata.__gnat_unwind_exception_size
                0x00000000080231f8        0x4 /usr/local/gnat-arm/arm-eabi/lib/gnat/ravenscar-full-stm32f4/adalib/libgnat.a(raise-gcc.o)
                0x00000000080231f8                __gnat_unwind_exception_size
 .rodata        0x00000000080231fc       0x18 /usr/local/gnat-arm/arm-eabi/lib/gnat/ravenscar-full-stm32f4/adalib/libgnat.a(s-fatflt.o)
 .rodata.system__fat_flt__attr_float__float_radix
                0x0000000008023214        0x4 /usr/local/gnat-arm/arm-eabi/lib/gnat/ravenscar-full-stm32f4/adalib/libgnat.a(s-fatflt.o)
                0x0000000008023214                system__fat_flt__attr_float__float_radix
 .rodata.system__fat_flt__attr_float__invrad
                0x0000000008023218        0x4 /usr/local/gnat-arm/arm-eabi/lib/gnat/ravenscar-full-stm32f4/adalib/libgnat.a(s-fatflt.o)
                0x0000000008023218                system__fat_flt__attr_float__invrad
 .rodata.system__fat_flt__attr_float__log_power
                0x000000000802321c       0x1c /usr/local/gnat-arm/arm-eabi/lib/gnat/ravenscar-full-stm32f4/adalib/libgnat.a(s-fatflt.o)
                0x000000000802321c                system__fat_flt__attr_float__log_power
 .rodata.system__fat_flt__attr_float__pred.str1.4
                0x0000000008023238       0x40 /usr/local/gnat-arm/arm-eabi/lib/gnat/ravenscar-full-stm32f4/adalib/libgnat.a(s-fatflt.o)
 .rodata.system__fat_flt__attr_float__r_neg_power
                0x0000000008023278       0x1c /usr/local/gnat-arm/arm-eabi/lib/gnat/ravenscar-full-stm32f4/adalib/libgnat.a(s-fatflt.o)
                0x0000000008023278                system__fat_flt__attr_float__r_neg_power
 .rodata.system__fat_flt__attr_float__r_power
                0x0000000008023294       0x1c /usr/local/gnat-arm/arm-eabi/lib/gnat/ravenscar-full-stm32f4/adalib/libgnat.a(s-fatflt.o)
                0x0000000008023294                system__fat_flt__attr_float__r_power
 .rodata.system__fat_flt__attr_float__rad
                0x00000000080232b0        0x4 /usr/local/gnat-arm/arm-eabi/lib/gnat/ravenscar-full-stm32f4/adalib/libgnat.a(s-fatflt.o)
                0x00000000080232b0                system__fat_flt__attr_float__rad
 .rodata.system__fat_flt__attr_float__radix_to_m_minus_1
                0x00000000080232b4        0x4 /usr/local/gnat-arm/arm-eabi/lib/gnat/ravenscar-full-stm32f4/adalib/libgnat.a(s-fatflt.o)
                0x00000000080232b4                system__fat_flt__attr_float__radix_to_m_minus_1
 .rodata.system__fat_flt__attr_float__succ.str1.4
                0x00000000080232b8       0x40 /usr/local/gnat-arm/arm-eabi/lib/gnat/ravenscar-full-stm32f4/adalib/libgnat.a(s-fatflt.o)
 .rodata.system__libm_single__a1_tab_f
                0x00000000080232f8       0x44 /usr/local/gnat-arm/arm-eabi/lib/gnat/ravenscar-full-stm32f4/adalib/libgnat.a(s-libsin.o)
                0x00000000080232f8                system__libm_single__a1_tab_f
 .rodata.system__libm_single__a2_tab_f
                0x000000000802333c       0x20 /usr/local/gnat-arm/arm-eabi/lib/gnat/ravenscar-full-stm32f4/adalib/libgnat.a(s-libsin.o)
                0x000000000802333c                system__libm_single__a2_tab_f
 .rodata.system__libm_single__f_hm
                0x000000000802335c        0x4 /usr/local/gnat-arm/arm-eabi/lib/gnat/ravenscar-full-stm32f4/adalib/libgnat.a(s-libsin.o)
                0x000000000802335c                system__libm_single__f_hm
 .rodata.system__libm_single__float_approximations__epsilonXn
                0x0000000008023360        0x4 /usr/local/gnat-arm/arm-eabi/lib/gnat/ravenscar-full-stm32f4/adalib/libgnat.a(s-libsin.o)
                0x0000000008023360                system__libm_single__float_approximations__epsilonXn
 .rodata.system__libm_single__float_approximations__mantissaXn
                0x0000000008023364        0x4 /usr/local/gnat-arm/arm-eabi/lib/gnat/ravenscar-full-stm32f4/adalib/libgnat.a(s-libsin.o)
                0x0000000008023364                system__libm_single__float_approximations__mantissaXn
 .rodata.system__libm_single__sqrt_epsilon_f
                0x0000000008023368        0x4 /usr/local/gnat-arm/arm-eabi/lib/gnat/ravenscar-full-stm32f4/adalib/libgnat.a(s-libsin.o)
                0x0000000008023368                system__libm_single__sqrt_epsilon_f
 .rodata.system__restrictions__rident__boolean_entry_barriers
                0x000000000802336c        0x1 /usr/local/gnat-arm/arm-eabi/lib/gnat/ravenscar-full-stm32f4/adalib/libgnat.a(s-restri.o)
                0x000000000802336c                system__restrictions__rident__boolean_entry_barriers
 .rodata.system__restrictions__rident__max_entry_queue_depth
                0x000000000802336d        0x1 /usr/local/gnat-arm/arm-eabi/lib/gnat/ravenscar-full-stm32f4/adalib/libgnat.a(s-restri.o)
                0x000000000802336d                system__restrictions__rident__max_entry_queue_depth
 .rodata.system__restrictions__rident__no_dynamic_interrupts
                0x000000000802336e        0x1 /usr/local/gnat-arm/arm-eabi/lib/gnat/ravenscar-full-stm32f4/adalib/libgnat.a(s-restri.o)
                0x000000000802336e                system__restrictions__rident__no_dynamic_interrupts
 .rodata.system__restrictions__rident__no_requeue
                0x000000000802336f        0x1 /usr/local/gnat-arm/arm-eabi/lib/gnat/ravenscar-full-stm32f4/adalib/libgnat.a(s-restri.o)
                0x000000000802336f                system__restrictions__rident__no_requeue
 .rodata.system__restrictions__rident__no_restrictions
                0x0000000008023370      0x114 /usr/local/gnat-arm/arm-eabi/lib/gnat/ravenscar-full-stm32f4/adalib/libgnat.a(s-restri.o)
                0x0000000008023370                system__restrictions__rident__no_restrictions
 .rodata.system__restrictions__rident__no_task_attributes
                0x0000000008023484        0x1 /usr/local/gnat-arm/arm-eabi/lib/gnat/ravenscar-full-stm32f4/adalib/libgnat.a(s-restri.o)
                0x0000000008023484                system__restrictions__rident__no_task_attributes
 *fill*         0x0000000008023485        0x3 
 .rodata.system__restrictions__rident__profile_info
                0x0000000008023488      0x318 /usr/local/gnat-arm/arm-eabi/lib/gnat/ravenscar-full-stm32f4/adalib/libgnat.a(s-restri.o)
                0x0000000008023488                system__restrictions__rident__profile_info
 .rodata.system__restrictions__rident__spark
                0x00000000080237a0        0x1 /usr/local/gnat-arm/arm-eabi/lib/gnat/ravenscar-full-stm32f4/adalib/libgnat.a(s-restri.o)
                0x00000000080237a0                system__restrictions__rident__spark
 *fill*         0x00000000080237a1        0x3 
 .rodata        0x00000000080237a4        0x1 /usr/local/gnat-arm/arm-eabi/lib/gnat/ravenscar-full-stm32f4/adalib/libgnat.a(setup_pll.o)
 *fill*         0x00000000080237a5        0x3 
 .rodata        0x00000000080237a8        0x4 /usr/local/gnat-arm/bin/../lib/gcc/arm-eabi/7.3.1/../../../../arm-eabi/lib/thumb/v7e-m/fpv4-sp/hard/libc.a(lib_a-impure.o)
                0x00000000080237a8                _global_impure_ptr
 .rodata.str1.4
                0x00000000080237ac        0x4 /usr/local/gnat-arm/bin/../lib/gcc/arm-eabi/7.3.1/../../../../arm-eabi/lib/thumb/v7e-m/fpv4-sp/hard/libc.a(lib_a-impure.o)
                                          0x2 (size before relaxing)
                0x00000000080237b0                . = ALIGN (0x4)
                0x00000000080237b0                __rom_end = .
                0x00000000080237b0                __data_load = __rom_end

.rel.dyn        0x00000000080237b0        0x0
 .rel.iplt      0x00000000080237b0        0x0 gee.o

.data           0x0000000020000000      0xb0c load address 0x00000000080237b0
                0x0000000020000000                __data_start = .
 *(.data .data.* .gnu.linkonce.d*)
 .data          0x0000000020000000        0x0 gee.o
 .data          0x0000000020000000        0x3 b__gee.o
                0x0000000020000000                ada_main_E
 .data          0x0000000020000003        0x0 /home/aquox/Scrivania/Arm/fps-ravenscar-arm/build/ada.o
 *fill*         0x0000000020000003        0x1 
 .data          0x0000000020000004        0x2 /home/aquox/Scrivania/Arm/fps-ravenscar-arm/build/gnat.o
                0x0000000020000004                gnat_E
 .data          0x0000000020000006        0x0 /home/aquox/Scrivania/Arm/fps-ravenscar-arm/build/interfac.o
 .data          0x0000000020000006        0x0 /home/aquox/Scrivania/Arm/fps-ravenscar-arm/build/system.o
 .data          0x0000000020000006        0x0 /home/aquox/Scrivania/Arm/fps-ravenscar-arm/build/i-stm32.o
 .data          0x0000000020000006        0x0 /home/aquox/Scrivania/Arm/fps-ravenscar-arm/build/i-stm32-pwr.o
 .data          0x0000000020000006        0x0 /home/aquox/Scrivania/Arm/fps-ravenscar-arm/build/s-bb.o
 .data          0x0000000020000006        0x0 /home/aquox/Scrivania/Arm/fps-ravenscar-arm/build/s-bbbopa.o
 .data          0x0000000020000006        0x0 /home/aquox/Scrivania/Arm/fps-ravenscar-arm/build/s-bbcpsp.o
 .data          0x0000000020000006        0x2 /home/aquox/Scrivania/Arm/fps-ravenscar-arm/build/s-bbmcpa.o
                0x0000000020000006                system__bb__mcu_parameters_E
 .data          0x0000000020000008       0x1c /home/aquox/Scrivania/Arm/fps-ravenscar-arm/build/s-except.o
                0x0000000020000008                system__exceptions_E
                0x000000002000000c                system__exceptions__foreign_exception
 .data          0x0000000020000024        0x2 /home/aquox/Scrivania/Arm/fps-ravenscar-arm/build/s-imgint.o
                0x0000000020000024                system__img_int_E
 .data          0x0000000020000026        0x0 /home/aquox/Scrivania/Arm/fps-ravenscar-arm/build/s-maccod.o
 .data          0x0000000020000026        0x2 /home/aquox/Scrivania/Arm/fps-ravenscar-arm/build/s-parame.o
                0x0000000020000026                system__parameters_E
 .data          0x0000000020000028        0x4 /home/aquox/Scrivania/Arm/fps-ravenscar-arm/build/s-semiho.o
                0x0000000020000028                system__semihosting_E
 .data          0x000000002000002c        0x2 /home/aquox/Scrivania/Arm/fps-ravenscar-arm/build/s-stoele.o
                0x000000002000002c                system__storage_elements_E
 *fill*         0x000000002000002e        0x2 
 .data          0x0000000020000030        0x8 /home/aquox/Scrivania/Arm/fps-ravenscar-arm/build/s-secsta.o
                0x0000000020000030                system__secondary_stack_E
                0x0000000020000034                system__secondary_stack__num_of_assigned_stacks
 .data          0x0000000020000038        0x2 /home/aquox/Scrivania/Arm/fps-ravenscar-arm/build/g-debuti.o
                0x0000000020000038                gnat__debug_utilities_E
 .data          0x000000002000003a        0x2 /home/aquox/Scrivania/Arm/fps-ravenscar-arm/build/s-casuti.o
                0x000000002000003a                system__case_util_E
 .data          0x000000002000003c        0x2 /home/aquox/Scrivania/Arm/fps-ravenscar-arm/build/s-strhas.o
                0x000000002000003c                system__string_hash_E
 .data          0x000000002000003e        0x2 /home/aquox/Scrivania/Arm/fps-ravenscar-arm/build/s-htable.o
                0x000000002000003e                system__htable_E
 .data          0x0000000020000040        0x2 /home/aquox/Scrivania/Arm/fps-ravenscar-arm/build/s-tasinf.o
                0x0000000020000040                system__task_info_E
 .data          0x0000000020000042        0x3 /home/aquox/Scrivania/Arm/fps-ravenscar-arm/build/s-textio.o
                0x0000000020000042                system__text_io_E
                0x0000000020000044                system__text_io__initialized
 *fill*         0x0000000020000045        0x1 
 .data          0x0000000020000046        0x2 /home/aquox/Scrivania/Arm/fps-ravenscar-arm/build/s-io.o
                0x0000000020000046                system__io_E
 .data          0x0000000020000048        0x2 /home/aquox/Scrivania/Arm/fps-ravenscar-arm/build/s-traent.o
                0x0000000020000048                system__traceback_entries_E
 .data          0x000000002000004a        0x0 /home/aquox/Scrivania/Arm/fps-ravenscar-arm/build/s-unstyp.o
 .data          0x000000002000004a        0x0 /home/aquox/Scrivania/Arm/fps-ravenscar-arm/build/i-stm32-rcc.o
 .data          0x000000002000004a        0x0 /home/aquox/Scrivania/Arm/fps-ravenscar-arm/build/s-bbpara.o
 .data          0x000000002000004a        0x0 /home/aquox/Scrivania/Arm/fps-ravenscar-arm/build/s-stm32.o
 .data          0x000000002000004a        0x2 /home/aquox/Scrivania/Arm/fps-ravenscar-arm/build/s-wchcon.o
                0x000000002000004a                system__wch_con_E
 .data          0x000000002000004c        0x2 /home/aquox/Scrivania/Arm/fps-ravenscar-arm/build/s-wchjis.o
                0x000000002000004c                system__wch_jis_E
 .data          0x000000002000004e        0x2 /home/aquox/Scrivania/Arm/fps-ravenscar-arm/build/s-wchcnv.o
                0x000000002000004e                system__wch_cnv_E
 .data          0x0000000020000050        0x2 /home/aquox/Scrivania/Arm/fps-ravenscar-arm/build/s-addima.o
                0x0000000020000050                system__address_image_E
 .data          0x0000000020000052        0x2 /home/aquox/Scrivania/Arm/fps-ravenscar-arm/build/s-traceb.o
                0x0000000020000052                system__traceback_E
 .data          0x0000000020000054        0x2 /home/aquox/Scrivania/Arm/fps-ravenscar-arm/build/s-excdeb.o
                0x0000000020000054                system__exceptions_debug_E
 .data          0x0000000020000056        0x2 /home/aquox/Scrivania/Arm/fps-ravenscar-arm/build/s-excmac.o
                0x0000000020000056                system__exceptions__machine_E
 .data          0x0000000020000058        0x2 /home/aquox/Scrivania/Arm/fps-ravenscar-arm/build/s-multip.o
                0x0000000020000058                system__multiprocessors_E
 .data          0x000000002000005a        0x3 /home/aquox/Scrivania/Arm/fps-ravenscar-arm/build/s-musplo.o
                0x000000002000005a                system__multiprocessors__spin_locks_E
                0x000000002000005c                system__multiprocessors__spin_locks__unlocked
 *fill*         0x000000002000005d        0x1 
 .data          0x000000002000005e        0x2 /home/aquox/Scrivania/Arm/fps-ravenscar-arm/build/s-exctab.o
                0x000000002000005e                system__exception_table_E
 .data          0x0000000020000060        0x0 /home/aquox/Scrivania/Arm/fps-ravenscar-arm/build/s-bcpcst.o
 .data          0x0000000020000060        0x0 /home/aquox/Scrivania/Arm/fps-ravenscar-arm/build/s-bbbosu.o
 .data          0x0000000020000060        0x0 /home/aquox/Scrivania/Arm/fps-ravenscar-arm/build/s-bbdead.o
 .data          0x0000000020000060        0x2 /home/aquox/Scrivania/Arm/fps-ravenscar-arm/build/a-exctra.o
                0x0000000020000060                ada__exceptions__traceback_E
 .data          0x0000000020000062        0x2 /home/aquox/Scrivania/Arm/fps-ravenscar-arm/build/s-memory.o
                0x0000000020000062                system__memory_E
 .data          0x0000000020000064        0x2 /home/aquox/Scrivania/Arm/fps-ravenscar-arm/build/s-trasym.o
                0x0000000020000064                system__traceback__symbolic_E
 .data          0x0000000020000066        0x2 /home/aquox/Scrivania/Arm/fps-ravenscar-arm/build/s-wchstw.o
                0x0000000020000066                system__wch_stw_E
 .data          0x0000000020000068       0x21 /home/aquox/Scrivania/Arm/fps-ravenscar-arm/build/a-tags.o
                0x0000000020000068                ada__tags_E
                0x000000002000006c                ada__tags__tag_error
                0x0000000020000084                ada__tags__external_tag_htable__iterator_ptrXn
                0x0000000020000088                ada__tags__external_tag_htable__iterator_startedXn
 *fill*         0x0000000020000089        0x1 
 .data          0x000000002000008a        0x2 /home/aquox/Scrivania/Arm/fps-ravenscar-arm/build/s-valuti.o
                0x000000002000008a                system__val_util_E
 .data          0x000000002000008c        0x2 /home/aquox/Scrivania/Arm/fps-ravenscar-arm/build/s-valuns.o
                0x000000002000008c                system__val_uns_E
 *fill*         0x000000002000008e        0x2 
 .data          0x0000000020000090       0x9a /home/aquox/Scrivania/Arm/fps-ravenscar-arm/build/s-stalib.o
                0x0000000020000090                system__standard_library_E
                0x0000000020000094                constraint_error
                0x00000000200000ac                numeric_error
                0x00000000200000c4                program_error
                0x00000000200000dc                storage_error
                0x00000000200000f4                tasking_error
                0x000000002000010c                _abort_signal
                0x0000000020000124                system__standard_library__local_partition_id
                0x0000000020000128                system__standard_library__exception_trace
                0x0000000020000129                system__standard_library__runtime_finalized
 *fill*         0x000000002000012a        0x2 
 .data          0x000000002000012c        0x9 /home/aquox/Scrivania/Arm/fps-ravenscar-arm/build/a-except.o
                0x000000002000012c                ada__exceptions_E
                0x0000000020000130                __gnat_exception_actions_global_action
                0x0000000020000134                __gnat_exception_actions_initialized
 *fill*         0x0000000020000135        0x3 
 .data          0x0000000020000138       0x14 /home/aquox/Scrivania/Arm/fps-ravenscar-arm/build/s-bbthqu.o
                0x0000000020000138                __gnat_running_thread_table
                0x000000002000013c                first_thread_table
                0x0000000020000140                system__bb__threads__queues__global_list
                0x0000000020000144                system__bb__threads__queues__alarms_table
                0x0000000020000148                system__bb__threads__queues__max_id_table
 .data          0x000000002000014c        0x4 /home/aquox/Scrivania/Arm/fps-ravenscar-arm/build/s-bbprot.o
                0x000000002000014c                system__bb__protection__wakeup_served_entry_callback
 .data          0x0000000020000150        0x1 /home/aquox/Scrivania/Arm/fps-ravenscar-arm/build/s-bbthre.o
                0x0000000020000150                system__bb__threads__initialized
 *fill*         0x0000000020000151        0x3 
 .data          0x0000000020000154        0x4 /home/aquox/Scrivania/Arm/fps-ravenscar-arm/build/s-bbinte.o
                0x0000000020000154                system__bb__interrupts__interrupt_being_handled
 .data          0x0000000020000158        0x0 /home/aquox/Scrivania/Arm/fps-ravenscar-arm/build/s-bbcppr.o
 .data          0x0000000020000158        0x0 /home/aquox/Scrivania/Arm/fps-ravenscar-arm/build/s-osinte.o
 .data          0x0000000020000158        0x2 /home/aquox/Scrivania/Arm/fps-ravenscar-arm/build/a-elchha.o
                0x0000000020000158                ada__exceptions__last_chance_handler_E
 .data          0x000000002000015a        0x2 /home/aquox/Scrivania/Arm/fps-ravenscar-arm/build/s-taspri.o
                0x000000002000015a                system__task_primitives_E
 .data          0x000000002000015c       0x10 /home/aquox/Scrivania/Arm/fps-ravenscar-arm/build/s-bbtiev.o
                0x000000002000015c                system__bb__timing_events_E
                0x000000002000015e                system__bb__timing_events__set_handlerE32b
                0x000000002000015f                system__bb__timing_events__cancel_handlerE34b
                0x0000000020000160                system__bb__timing_events__time_of_eventE41b
                0x0000000020000164                system__bb__timing_events__timing_eventH13s
                0x0000000020000168                system__bb__timing_events__events_table
 *fill*         0x000000002000016c        0x4 
 .data          0x0000000020000170       0x20 /home/aquox/Scrivania/Arm/fps-ravenscar-arm/build/s-bbtime.o
                0x0000000020000170                system__bb__time__scheduling_event_hook
                0x0000000020000174                system__bb__time__alarm_lock
                0x0000000020000178                system__bb__time__software_clock
                0x0000000020000180                system__bb__time__pending_alarm
                0x0000000020000188                system__bb__time__max_sleep
 .data          0x0000000020000190        0x2 /home/aquox/Scrivania/Arm/fps-ravenscar-arm/build/s-mufalo.o
                0x0000000020000190                system__multiprocessors__fair_locks_E
 *fill*         0x0000000020000192        0x2 
 .data          0x0000000020000194        0xc /home/aquox/Scrivania/Arm/fps-ravenscar-arm/build/s-tasdeb.o
                0x0000000020000194                system__tasking__debug_E
                0x0000000020000198                system__tasking__debug__first_task
                0x000000002000019c                system__tasking__debug__last_task
 .data          0x00000000200001a0       0x11 /home/aquox/Scrivania/Arm/fps-ravenscar-arm/build/s-taskin.o
                0x00000000200001a0                system__tasking__fall_back_handler
                0x00000000200001a8                __gl_main_priority
                0x00000000200001ac                __gl_main_cpu
 *fill*         0x00000000200001b1        0x3 
 .data          0x00000000200001b4       0x1c /home/aquox/Scrivania/Arm/fps-ravenscar-arm/build/s-soflin.o
                0x00000000200001b4                system__soft_links_E
                0x00000000200001b8                system__soft_links__lock_task
                0x00000000200001bc                system__soft_links__unlock_task
                0x00000000200001c0                system__soft_links__adafinal
                0x00000000200001c4                system__soft_links__task_termination_handler
                0x00000000200001c8                system__soft_links__library_exception_set
                0x00000000200001cc                system__soft_links__traceback_decorator_wrapper
 .data          0x00000000200001d0        0x4 /home/aquox/Scrivania/Arm/fps-ravenscar-arm/build/s-taprop.o
                0x00000000200001d0                system__task_primitives__operations__environment_task
 .data          0x00000000200001d4        0x2 /home/aquox/Scrivania/Arm/fps-ravenscar-arm/build/a-reatim.o
                0x00000000200001d4                ada__real_time_E
 .data          0x00000000200001d6        0x2 /home/aquox/Scrivania/Arm/fps-ravenscar-arm/build/a-retide.o
                0x00000000200001d6                ada__real_time__delays_E
 .data          0x00000000200001d8        0x2 /home/aquox/Scrivania/Arm/fps-ravenscar-arm/build/s-taprob.o
                0x00000000200001d8                system__tasking__protected_objects_E
 .data          0x00000000200001da        0x2 /home/aquox/Scrivania/Arm/fps-ravenscar-arm/build/s-tpoben.o
                0x00000000200001da                system__tasking__protected_objects__entries_E
 .data          0x00000000200001dc        0x2 /home/aquox/Scrivania/Arm/fps-ravenscar-arm/build/s-tpobmu.o
                0x00000000200001dc                system__tasking__protected_objects__multiprocessors_E
 .data          0x00000000200001de        0x2 /home/aquox/Scrivania/Arm/fps-ravenscar-arm/build/s-tposen.o
                0x00000000200001de                system__tasking__protected_objects__single_entry_E
 .data          0x00000000200001e0        0x2 /home/aquox/Scrivania/Arm/fps-ravenscar-arm/build/s-tasque.o
                0x00000000200001e0                system__tasking__queuing_E
 .data          0x00000000200001e2        0x2 /home/aquox/Scrivania/Arm/fps-ravenscar-arm/build/s-tpobop.o
                0x00000000200001e2                system__tasking__protected_objects__operations_E
 .data          0x00000000200001e4        0x2 /home/aquox/Scrivania/Arm/fps-ravenscar-arm/build/s-tasres.o
                0x00000000200001e4                system__tasking__restricted_E
 *fill*         0x00000000200001e6        0x2 
 .data          0x00000000200001e8        0x8 /home/aquox/Scrivania/Arm/fps-ravenscar-arm/build/s-tarest.o
                0x00000000200001e8                system__tasking__restricted__stages_E
                0x00000000200001ea                __gnat_partition_elaboration_policy
 .data          0x00000000200001f0        0x2 /home/aquox/Scrivania/Arm/fps-ravenscar-arm/build/a-taside.o
                0x00000000200001f0                ada__task_identification_E
 .data          0x00000000200001f2        0x2 /home/aquox/Scrivania/Arm/fps-ravenscar-arm/build/a-sytaco.o
                0x00000000200001f2                ada__synchronous_task_control_E
 .data          0x00000000200001f4        0x2 /home/aquox/Scrivania/Arm/fps-ravenscar-arm/build/activation_log_parameters.o
                0x00000000200001f4                activation_log_parameters_E
 *fill*         0x00000000200001f6        0x2 
 .data          0x00000000200001f8        0x8 /home/aquox/Scrivania/Arm/fps-ravenscar-arm/build/activation_log.o
                0x00000000200001f8                activation_log_E
                0x00000000200001fc                activation_log__C3s
 .data          0x0000000020000200        0x2 /home/aquox/Scrivania/Arm/fps-ravenscar-arm/build/activation_manager.o
                0x0000000020000200                activation_manager_E
 .data          0x0000000020000202        0x6 /home/aquox/Scrivania/Arm/fps-ravenscar-arm/build/auxiliary.o
                0x0000000020000202                auxiliary_E
 .data          0x0000000020000208        0x2 /home/aquox/Scrivania/Arm/fps-ravenscar-arm/build/external_event_server_parameters.o
                0x0000000020000208                external_event_server_parameters_E
 .data          0x000000002000020a        0x2 /home/aquox/Scrivania/Arm/fps-ravenscar-arm/build/event_queue.o
                0x000000002000020a                event_queue_E
 .data          0x000000002000020c        0x8 /home/aquox/Scrivania/Arm/fps-ravenscar-arm/build/external_event_server.o
                0x000000002000020c                external_event_server_E
                0x000000002000020e                external_event_server__external_event_serverTKE
                0x0000000020000210                external_event_server__external_event_serverTKZ
 .data          0x0000000020000214       0x1c /home/aquox/Scrivania/Arm/fps-ravenscar-arm/build/production_workload.o
                0x0000000020000214                production_workload_E
                0x0000000020000218                production_workload__workload_failure
 .data          0x0000000020000230        0x2 /home/aquox/Scrivania/Arm/fps-ravenscar-arm/build/activation_log_reader_parameters.o
                0x0000000020000230                activation_log_reader_parameters_E
 *fill*         0x0000000020000232        0x2 
 .data          0x0000000020000234        0x8 /home/aquox/Scrivania/Arm/fps-ravenscar-arm/build/activation_log_reader.o
                0x0000000020000234                activation_log_reader_E
                0x0000000020000236                activation_log_reader__activation_log_readerTKE
                0x0000000020000238                activation_log_reader__activation_log_readerTKZ
 .data          0x000000002000023c        0x2 /home/aquox/Scrivania/Arm/fps-ravenscar-arm/build/on_call_producer_parameters.o
                0x000000002000023c                on_call_producer_parameters_E
 .data          0x000000002000023e        0x2 /home/aquox/Scrivania/Arm/fps-ravenscar-arm/build/request_buffer_parameters.o
                0x000000002000023e                request_buffer_parameters_E
 .data          0x0000000020000240        0x2 /home/aquox/Scrivania/Arm/fps-ravenscar-arm/build/request_buffer.o
                0x0000000020000240                request_buffer_E
 *fill*         0x0000000020000242        0x2 
 .data          0x0000000020000244        0x8 /home/aquox/Scrivania/Arm/fps-ravenscar-arm/build/on_call_producer.o
                0x0000000020000244                on_call_producer_E
                0x0000000020000246                on_call_producer__on_call_producerTKE
                0x0000000020000248                on_call_producer__on_call_producerTKZ
 .data          0x000000002000024c        0x2 /home/aquox/Scrivania/Arm/fps-ravenscar-arm/build/regular_producer_parameters.o
                0x000000002000024c                regular_producer_parameters_E
 *fill*         0x000000002000024e        0x2 
 .data          0x0000000020000250        0x8 /home/aquox/Scrivania/Arm/fps-ravenscar-arm/build/regular_producer.o
                0x0000000020000250                regular_producer_E
                0x0000000020000252                regular_producer__regular_producerTKE
                0x0000000020000254                regular_producer__regular_producerTKZ
 .data          0x0000000020000258        0x0 /usr/local/gnat-arm/arm-eabi/lib/gnat/ravenscar-full-stm32f4/adalib/libgnat.a(a-nuelfu.o)
 .data.ada__numerics__elementary_functions_E
                0x0000000020000258        0x2 /usr/local/gnat-arm/arm-eabi/lib/gnat/ravenscar-full-stm32f4/adalib/libgnat.a(a-nuelfu.o)
                0x0000000020000258                ada__numerics__elementary_functions_E
 .data          0x000000002000025a        0x0 /usr/local/gnat-arm/arm-eabi/lib/gnat/ravenscar-full-stm32f4/adalib/libgnat.a(a-numeri.o)
 .data.ada__numerics_E
                0x000000002000025a        0x2 /usr/local/gnat-arm/arm-eabi/lib/gnat/ravenscar-full-stm32f4/adalib/libgnat.a(a-numeri.o)
                0x000000002000025a                ada__numerics_E
 .data.ada__numerics__argument_error
                0x000000002000025c       0x18 /usr/local/gnat-arm/arm-eabi/lib/gnat/ravenscar-full-stm32f4/adalib/libgnat.a(a-numeri.o)
                0x000000002000025c                ada__numerics__argument_error
 .data          0x0000000020000274        0x0 /usr/local/gnat-arm/arm-eabi/lib/gnat/ravenscar-full-stm32f4/adalib/libgnat.a(a-textio.o)
 .data.ada__text_io_E
                0x0000000020000274        0x2 /usr/local/gnat-arm/arm-eabi/lib/gnat/ravenscar-full-stm32f4/adalib/libgnat.a(a-textio.o)
                0x0000000020000274                ada__text_io_E
 .data          0x0000000020000276        0x0 /usr/local/gnat-arm/arm-eabi/lib/gnat/ravenscar-full-stm32f4/adalib/libgnat.a(adaint-xi.o)
 .data          0x0000000020000276        0x0 /usr/local/gnat-arm/arm-eabi/lib/gnat/ravenscar-full-stm32f4/adalib/libgnat.a(handler.o)
 .data          0x0000000020000276        0x0 /usr/local/gnat-arm/arm-eabi/lib/gnat/ravenscar-full-stm32f4/adalib/libgnat.a(raise-gcc.o)
 .data          0x0000000020000276        0x0 /usr/local/gnat-arm/arm-eabi/lib/gnat/ravenscar-full-stm32f4/adalib/libgnat.a(s-fatflt.o)
 .data.system__fat_flt_E
                0x0000000020000276        0x2 /usr/local/gnat-arm/arm-eabi/lib/gnat/ravenscar-full-stm32f4/adalib/libgnat.a(s-fatflt.o)
                0x0000000020000276                system__fat_flt_E
 .data          0x0000000020000278        0x0 /usr/local/gnat-arm/arm-eabi/lib/gnat/ravenscar-full-stm32f4/adalib/libgnat.a(s-init.o)
 .data.__gl_bind_env_addr
                0x0000000020000278        0x4 /usr/local/gnat-arm/arm-eabi/lib/gnat/ravenscar-full-stm32f4/adalib/libgnat.a(s-init.o)
                0x0000000020000278                __gl_bind_env_addr
 .data.__gl_default_stack_size
                0x000000002000027c        0x4 /usr/local/gnat-arm/arm-eabi/lib/gnat/ravenscar-full-stm32f4/adalib/libgnat.a(s-init.o)
                0x000000002000027c                __gl_default_stack_size
 .data.__gl_detect_blocking
                0x0000000020000280        0x4 /usr/local/gnat-arm/arm-eabi/lib/gnat/ravenscar-full-stm32f4/adalib/libgnat.a(s-init.o)
                0x0000000020000280                __gl_detect_blocking
 .data.__gl_exception_tracebacks
                0x0000000020000284        0x4 /usr/local/gnat-arm/arm-eabi/lib/gnat/ravenscar-full-stm32f4/adalib/libgnat.a(s-init.o)
                0x0000000020000284                __gl_exception_tracebacks
 .data.__gl_exception_tracebacks_symbolic
                0x0000000020000288        0x4 /usr/local/gnat-arm/arm-eabi/lib/gnat/ravenscar-full-stm32f4/adalib/libgnat.a(s-init.o)
                0x0000000020000288                __gl_exception_tracebacks_symbolic
 .data.__gl_interrupt_states
                0x000000002000028c        0x4 /usr/local/gnat-arm/arm-eabi/lib/gnat/ravenscar-full-stm32f4/adalib/libgnat.a(s-init.o)
                0x000000002000028c                __gl_interrupt_states
 .data.__gl_leap_seconds_support
                0x0000000020000290        0x4 /usr/local/gnat-arm/arm-eabi/lib/gnat/ravenscar-full-stm32f4/adalib/libgnat.a(s-init.o)
                0x0000000020000290                __gl_leap_seconds_support
 .data.__gl_locking_policy
                0x0000000020000294        0x1 /usr/local/gnat-arm/arm-eabi/lib/gnat/ravenscar-full-stm32f4/adalib/libgnat.a(s-init.o)
                0x0000000020000294                __gl_locking_policy
 *fill*         0x0000000020000295        0x3 
 .data.__gl_num_interrupt_states
                0x0000000020000298        0x4 /usr/local/gnat-arm/arm-eabi/lib/gnat/ravenscar-full-stm32f4/adalib/libgnat.a(s-init.o)
                0x0000000020000298                __gl_num_interrupt_states
 .data.__gl_num_specific_dispatching
                0x000000002000029c        0x4 /usr/local/gnat-arm/arm-eabi/lib/gnat/ravenscar-full-stm32f4/adalib/libgnat.a(s-init.o)
                0x000000002000029c                __gl_num_specific_dispatching
 .data.__gl_priority_specific_dispatching
                0x00000000200002a0        0x4 /usr/local/gnat-arm/arm-eabi/lib/gnat/ravenscar-full-stm32f4/adalib/libgnat.a(s-init.o)
                0x00000000200002a0                __gl_priority_specific_dispatching
 .data.__gl_queuing_policy
                0x00000000200002a4        0x1 /usr/local/gnat-arm/arm-eabi/lib/gnat/ravenscar-full-stm32f4/adalib/libgnat.a(s-init.o)
                0x00000000200002a4                __gl_queuing_policy
 *fill*         0x00000000200002a5        0x3 
 .data.__gl_restrictions
                0x00000000200002a8        0x4 /usr/local/gnat-arm/arm-eabi/lib/gnat/ravenscar-full-stm32f4/adalib/libgnat.a(s-init.o)
                0x00000000200002a8                __gl_restrictions
 .data.__gl_task_dispatching_policy
                0x00000000200002ac        0x1 /usr/local/gnat-arm/arm-eabi/lib/gnat/ravenscar-full-stm32f4/adalib/libgnat.a(s-init.o)
                0x00000000200002ac                __gl_task_dispatching_policy
 *fill*         0x00000000200002ad        0x3 
 .data.__gl_time_slice_val
                0x00000000200002b0        0x4 /usr/local/gnat-arm/arm-eabi/lib/gnat/ravenscar-full-stm32f4/adalib/libgnat.a(s-init.o)
                0x00000000200002b0                __gl_time_slice_val
 .data.__gl_unreserve_all_interrupts
                0x00000000200002b4        0x4 /usr/local/gnat-arm/arm-eabi/lib/gnat/ravenscar-full-stm32f4/adalib/libgnat.a(s-init.o)
                0x00000000200002b4                __gl_unreserve_all_interrupts
 .data.__gl_wc_encoding
                0x00000000200002b8        0x1 /usr/local/gnat-arm/arm-eabi/lib/gnat/ravenscar-full-stm32f4/adalib/libgnat.a(s-init.o)
                0x00000000200002b8                __gl_wc_encoding
 .data          0x00000000200002b9        0x0 /usr/local/gnat-arm/arm-eabi/lib/gnat/ravenscar-full-stm32f4/adalib/libgnat.a(s-libsin.o)
 *fill*         0x00000000200002b9        0x1 
 .data.system__libm_single_E
                0x00000000200002ba        0x2 /usr/local/gnat-arm/arm-eabi/lib/gnat/ravenscar-full-stm32f4/adalib/libgnat.a(s-libsin.o)
                0x00000000200002ba                system__libm_single_E
 .data          0x00000000200002bc        0x0 /usr/local/gnat-arm/arm-eabi/lib/gnat/ravenscar-full-stm32f4/adalib/libgnat.a(s-lisisq.o)
 .data.system__libm_single__squareroot_E
                0x00000000200002bc        0x2 /usr/local/gnat-arm/arm-eabi/lib/gnat/ravenscar-full-stm32f4/adalib/libgnat.a(s-lisisq.o)
                0x00000000200002bc                system__libm_single__squareroot_E
 .data          0x00000000200002be        0x0 /usr/local/gnat-arm/arm-eabi/lib/gnat/ravenscar-full-stm32f4/adalib/libgnat.a(s-macres.o)
 .data.system__machine_reset_E
                0x00000000200002be        0x2 /usr/local/gnat-arm/arm-eabi/lib/gnat/ravenscar-full-stm32f4/adalib/libgnat.a(s-macres.o)
                0x00000000200002be                system__machine_reset_E
 .data          0x00000000200002c0        0x0 /usr/local/gnat-arm/arm-eabi/lib/gnat/ravenscar-full-stm32f4/adalib/libgnat.a(s-restri.o)
 .data.system__restrictions_E
                0x00000000200002c0        0x2 /usr/local/gnat-arm/arm-eabi/lib/gnat/ravenscar-full-stm32f4/adalib/libgnat.a(s-restri.o)
                0x00000000200002c0                system__restrictions_E
 .data          0x00000000200002c2        0x0 /usr/local/gnat-arm/arm-eabi/lib/gnat/ravenscar-full-stm32f4/adalib/libgnat.a(start-rom.o)
 .data          0x00000000200002c2        0x0 /usr/local/gnat-arm/arm-eabi/lib/gnat/ravenscar-full-stm32f4/adalib/libgnat.a(breakpoint_handler-cortexm.o)
 .data          0x00000000200002c2        0x0 /usr/local/gnat-arm/arm-eabi/lib/gnat/ravenscar-full-stm32f4/adalib/libgnat.a(setup_pll.o)
 .data.setup_pll_E
                0x00000000200002c2        0x2 /usr/local/gnat-arm/arm-eabi/lib/gnat/ravenscar-full-stm32f4/adalib/libgnat.a(setup_pll.o)
                0x00000000200002c2                setup_pll_E
 .data          0x00000000200002c4        0x0 /usr/local/gnat-arm/arm-eabi/lib/gnat/ravenscar-full-stm32f4/adalib/libgnat.a(start-common.o)
 .data          0x00000000200002c4        0x0 /usr/local/gnat-arm/bin/../lib/gcc/arm-eabi/7.3.1/../../../../arm-eabi/lib/thumb/v7e-m/fpv4-sp/hard/libc.a(lib_a-malloc.o)
 .data          0x00000000200002c4      0x410 /usr/local/gnat-arm/bin/../lib/gcc/arm-eabi/7.3.1/../../../../arm-eabi/lib/thumb/v7e-m/fpv4-sp/hard/libc.a(lib_a-mallocr.o)
                0x00000000200002c4                __malloc_av_
                0x00000000200006cc                __malloc_sbrk_base
                0x00000000200006d0                __malloc_trim_threshold
 .data          0x00000000200006d4        0x0 /usr/local/gnat-arm/bin/../lib/gcc/arm-eabi/7.3.1/../../../../arm-eabi/lib/thumb/v7e-m/fpv4-sp/hard/libc.a(lib_a-memcmp.o)
 .data          0x00000000200006d4        0x0 /usr/local/gnat-arm/bin/../lib/gcc/arm-eabi/7.3.1/../../../../arm-eabi/lib/thumb/v7e-m/fpv4-sp/hard/libc.a(lib_a-memcpy.o)
 .data          0x00000000200006d4        0x0 /usr/local/gnat-arm/bin/../lib/gcc/arm-eabi/7.3.1/../../../../arm-eabi/lib/thumb/v7e-m/fpv4-sp/hard/libc.a(lib_a-memmove.o)
 .data          0x00000000200006d4        0x0 /usr/local/gnat-arm/bin/../lib/gcc/arm-eabi/7.3.1/../../../../arm-eabi/lib/thumb/v7e-m/fpv4-sp/hard/libc.a(lib_a-memset.o)
 .data          0x00000000200006d4        0x0 /usr/local/gnat-arm/bin/../lib/gcc/arm-eabi/7.3.1/../../../../arm-eabi/lib/thumb/v7e-m/fpv4-sp/hard/libc.a(lib_a-mlock.o)
 .data          0x00000000200006d4        0x0 /usr/local/gnat-arm/bin/../lib/gcc/arm-eabi/7.3.1/../../../../arm-eabi/lib/thumb/v7e-m/fpv4-sp/hard/libc.a(lib_a-realloc.o)
 .data          0x00000000200006d4        0x0 /usr/local/gnat-arm/bin/../lib/gcc/arm-eabi/7.3.1/../../../../arm-eabi/lib/thumb/v7e-m/fpv4-sp/hard/libc.a(lib_a-reallocr.o)
 .data          0x00000000200006d4        0x0 /usr/local/gnat-arm/bin/../lib/gcc/arm-eabi/7.3.1/../../../../arm-eabi/lib/thumb/v7e-m/fpv4-sp/hard/libc.a(lib_a-sbrkr.o)
 .data          0x00000000200006d4        0x0 /usr/local/gnat-arm/bin/../lib/gcc/arm-eabi/7.3.1/../../../../arm-eabi/lib/thumb/v7e-m/fpv4-sp/hard/libc.a(lib_a-freer.o)
 *fill*         0x00000000200006d4        0x4 
 .data          0x00000000200006d8      0x430 /usr/local/gnat-arm/bin/../lib/gcc/arm-eabi/7.3.1/../../../../arm-eabi/lib/thumb/v7e-m/fpv4-sp/hard/libc.a(lib_a-impure.o)
                0x00000000200006d8                _impure_ptr
 .data          0x0000000020000b08        0x0 /usr/local/gnat-arm/bin/../lib/gcc/arm-eabi/7.3.1/../../../../arm-eabi/lib/thumb/v7e-m/fpv4-sp/hard/libc.a(lib_a-reent.o)
 .data          0x0000000020000b08        0x0 /usr/local/gnat-arm/bin/../lib/gcc/arm-eabi/7.3.1/thumb/v7e-m/fpv4-sp/hard/libgcc.a(_arm_addsubdf3.o)
 .data          0x0000000020000b08        0x0 /usr/local/gnat-arm/bin/../lib/gcc/arm-eabi/7.3.1/thumb/v7e-m/fpv4-sp/hard/libgcc.a(_arm_truncdfsf2.o)
 .data          0x0000000020000b08        0x0 /usr/local/gnat-arm/bin/../lib/gcc/arm-eabi/7.3.1/thumb/v7e-m/fpv4-sp/hard/libgcc.a(_aeabi_ldivmod.o)
 .data          0x0000000020000b08        0x0 /usr/local/gnat-arm/bin/../lib/gcc/arm-eabi/7.3.1/thumb/v7e-m/fpv4-sp/hard/libgcc.a(_aeabi_uldivmod.o)
 .data          0x0000000020000b08        0x0 /usr/local/gnat-arm/bin/../lib/gcc/arm-eabi/7.3.1/thumb/v7e-m/fpv4-sp/hard/libgcc.a(_fixsfdi.o)
 .data          0x0000000020000b08        0x0 /usr/local/gnat-arm/bin/../lib/gcc/arm-eabi/7.3.1/thumb/v7e-m/fpv4-sp/hard/libgcc.a(_fixunssfdi.o)
 .data          0x0000000020000b08        0x0 /usr/local/gnat-arm/bin/../lib/gcc/arm-eabi/7.3.1/thumb/v7e-m/fpv4-sp/hard/libgcc.a(_fixunsdfdi.o)
 .data          0x0000000020000b08        0x0 /usr/local/gnat-arm/bin/../lib/gcc/arm-eabi/7.3.1/thumb/v7e-m/fpv4-sp/hard/libgcc.a(_udivmoddi4.o)
 .data          0x0000000020000b08        0x0 /usr/local/gnat-arm/bin/../lib/gcc/arm-eabi/7.3.1/thumb/v7e-m/fpv4-sp/hard/libgcc.a(unwind-arm.o)
 .data          0x0000000020000b08        0x0 /usr/local/gnat-arm/bin/../lib/gcc/arm-eabi/7.3.1/thumb/v7e-m/fpv4-sp/hard/libgcc.a(libunwind.o)
 .data          0x0000000020000b08        0x0 /usr/local/gnat-arm/bin/../lib/gcc/arm-eabi/7.3.1/thumb/v7e-m/fpv4-sp/hard/libgcc.a(pr-support.o)
 .data          0x0000000020000b08        0x0 /usr/local/gnat-arm/bin/../lib/gcc/arm-eabi/7.3.1/thumb/v7e-m/fpv4-sp/hard/libgcc.a(_dvmd_tls.o)
 .data          0x0000000020000b08        0x0 /usr/local/gnat-arm/bin/../lib/gcc/arm-eabi/7.3.1/thumb/v7e-m/fpv4-sp/hard/libgcc.a(_arm_muldivdf3.o)
 .data          0x0000000020000b08        0x0 /usr/local/gnat-arm/bin/../lib/gcc/arm-eabi/7.3.1/thumb/v7e-m/fpv4-sp/hard/libgcc.a(_arm_fixunsdfsi.o)
 .data          0x0000000020000b08        0x0 /usr/local/gnat-arm/arm-eabi/lib/gnat/ravenscar-full-stm32f4/adalib//libgnat.a(newlib-bb.o)
 .data.heap_ptr.5847
                0x0000000020000b08        0x4 /usr/local/gnat-arm/arm-eabi/lib/gnat/ravenscar-full-stm32f4/adalib//libgnat.a(newlib-bb.o)
 .data          0x0000000020000b0c        0x0 /usr/local/gnat-arm/bin/../lib/gcc/arm-eabi/7.3.1/../../../../arm-eabi/lib/thumb/v7e-m/fpv4-sp/hard/libc.a(lib_a-errno.o)
                0x0000000020000b0c                . = ALIGN (0x4)
                0x0000000020000b0c                __data_end = .
                0x00000000000002c3                __data_words = ((__data_end - __data_start) >> 0x2)
                0x00000000080242bc                __ccmdata_load = (__rom_end + (__data_words << 0x2))

.igot.plt       0x0000000020000b0c        0x0 load address 0x00000000080242bc
 .igot.plt      0x0000000020000b0c        0x0 gee.o

.ccmdata        0x0000000010000000        0x0 load address 0x00000000080242bc
                0x0000000010000000                __ccmdata_start = .
 *(.ccmdata .ccmdata.*)
                0x0000000010000000                . = ALIGN (0x4)
                0x0000000010000000                __ccmdata_end = .
                0x0000000000000000                __ccmdata_words = ((__ccmdata_end - __ccmdata_start) >> 0x2)

.bss            0x0000000020000b10     0x8738 load address 0x00000000080242c0
                0x0000000020000b10                . = ALIGN (0x8)
                0x0000000020000b10                __bss_start = .
 *(.bss .bss.*)
 .bss           0x0000000020000b10        0x0 gee.o
 .bss           0x0000000020000b10      0xa50 b__gee.o
 .bss           0x0000000020001560        0x0 /home/aquox/Scrivania/Arm/fps-ravenscar-arm/build/ada.o
 .bss           0x0000000020001560        0x0 /home/aquox/Scrivania/Arm/fps-ravenscar-arm/build/gnat.o
 .bss           0x0000000020001560        0x0 /home/aquox/Scrivania/Arm/fps-ravenscar-arm/build/interfac.o
 .bss           0x0000000020001560        0x0 /home/aquox/Scrivania/Arm/fps-ravenscar-arm/build/system.o
 .bss           0x0000000020001560        0x0 /home/aquox/Scrivania/Arm/fps-ravenscar-arm/build/i-stm32.o
 .bss           0x0000000020001560        0x0 /home/aquox/Scrivania/Arm/fps-ravenscar-arm/build/i-stm32-pwr.o
 .bss           0x0000000020001560        0x0 /home/aquox/Scrivania/Arm/fps-ravenscar-arm/build/s-bb.o
 .bss           0x0000000020001560        0x0 /home/aquox/Scrivania/Arm/fps-ravenscar-arm/build/s-bbbopa.o
 .bss           0x0000000020001560        0x0 /home/aquox/Scrivania/Arm/fps-ravenscar-arm/build/s-bbcpsp.o
 .bss           0x0000000020001560        0x0 /home/aquox/Scrivania/Arm/fps-ravenscar-arm/build/s-bbmcpa.o
 .bss           0x0000000020001560        0x0 /home/aquox/Scrivania/Arm/fps-ravenscar-arm/build/s-except.o
 .bss           0x0000000020001560        0x0 /home/aquox/Scrivania/Arm/fps-ravenscar-arm/build/s-imgint.o
 .bss           0x0000000020001560        0x0 /home/aquox/Scrivania/Arm/fps-ravenscar-arm/build/s-maccod.o
 .bss           0x0000000020001560        0x0 /home/aquox/Scrivania/Arm/fps-ravenscar-arm/build/s-parame.o
 .bss           0x0000000020001560       0x80 /home/aquox/Scrivania/Arm/fps-ravenscar-arm/build/s-semiho.o
 .bss           0x00000000200015e0        0x0 /home/aquox/Scrivania/Arm/fps-ravenscar-arm/build/s-stoele.o
 .bss           0x00000000200015e0       0x10 /home/aquox/Scrivania/Arm/fps-ravenscar-arm/build/s-secsta.o
                0x00000000200015e0                system__secondary_stack__ss_pool
                0x00000000200015e4                __gnat_binder_ss_count
                0x00000000200015e8                __gnat_default_ss_size
                0x00000000200015ec                __gnat_default_ss_pool
 .bss           0x00000000200015f0        0x0 /home/aquox/Scrivania/Arm/fps-ravenscar-arm/build/g-debuti.o
 .bss           0x00000000200015f0        0x0 /home/aquox/Scrivania/Arm/fps-ravenscar-arm/build/s-casuti.o
 .bss           0x00000000200015f0        0x0 /home/aquox/Scrivania/Arm/fps-ravenscar-arm/build/s-strhas.o
 .bss           0x00000000200015f0        0x0 /home/aquox/Scrivania/Arm/fps-ravenscar-arm/build/s-htable.o
 .bss           0x00000000200015f0        0x0 /home/aquox/Scrivania/Arm/fps-ravenscar-arm/build/s-tasinf.o
 .bss           0x00000000200015f0        0x0 /home/aquox/Scrivania/Arm/fps-ravenscar-arm/build/s-textio.o
 .bss           0x00000000200015f0        0x0 /home/aquox/Scrivania/Arm/fps-ravenscar-arm/build/s-io.o
 .bss           0x00000000200015f0        0x0 /home/aquox/Scrivania/Arm/fps-ravenscar-arm/build/s-traent.o
 .bss           0x00000000200015f0        0x0 /home/aquox/Scrivania/Arm/fps-ravenscar-arm/build/s-unstyp.o
 .bss           0x00000000200015f0        0x0 /home/aquox/Scrivania/Arm/fps-ravenscar-arm/build/i-stm32-rcc.o
 .bss           0x00000000200015f0        0x0 /home/aquox/Scrivania/Arm/fps-ravenscar-arm/build/s-bbpara.o
 .bss           0x00000000200015f0        0x0 /home/aquox/Scrivania/Arm/fps-ravenscar-arm/build/s-stm32.o
 .bss           0x00000000200015f0        0x0 /home/aquox/Scrivania/Arm/fps-ravenscar-arm/build/s-wchcon.o
 .bss           0x00000000200015f0        0x0 /home/aquox/Scrivania/Arm/fps-ravenscar-arm/build/s-wchjis.o
 .bss           0x00000000200015f0        0x0 /home/aquox/Scrivania/Arm/fps-ravenscar-arm/build/s-wchcnv.o
 .bss           0x00000000200015f0        0x0 /home/aquox/Scrivania/Arm/fps-ravenscar-arm/build/s-addima.o
 .bss           0x00000000200015f0        0x0 /home/aquox/Scrivania/Arm/fps-ravenscar-arm/build/s-traceb.o
 .bss           0x00000000200015f0        0x0 /home/aquox/Scrivania/Arm/fps-ravenscar-arm/build/s-excdeb.o
 .bss           0x00000000200015f0        0x0 /home/aquox/Scrivania/Arm/fps-ravenscar-arm/build/s-excmac.o
 .bss           0x00000000200015f0        0x0 /home/aquox/Scrivania/Arm/fps-ravenscar-arm/build/s-multip.o
 .bss           0x00000000200015f0        0x0 /home/aquox/Scrivania/Arm/fps-ravenscar-arm/build/s-musplo.o
 .bss           0x00000000200015f0       0x94 /home/aquox/Scrivania/Arm/fps-ravenscar-arm/build/s-exctab.o
                0x00000000200015f0                system__exception_table__htable
 .bss           0x0000000020001684        0x0 /home/aquox/Scrivania/Arm/fps-ravenscar-arm/build/s-bcpcst.o
 .bss           0x0000000020001684        0x8 /home/aquox/Scrivania/Arm/fps-ravenscar-arm/build/s-bbbosu.o
                0x0000000020001684                __gnat_alarm_time
                0x0000000020001688                system__bb__board_support__next_tick_time
 .bss           0x000000002000168c        0x0 /home/aquox/Scrivania/Arm/fps-ravenscar-arm/build/s-bbdead.o
 .bss           0x000000002000168c        0x0 /home/aquox/Scrivania/Arm/fps-ravenscar-arm/build/a-exctra.o
 .bss           0x000000002000168c        0x0 /home/aquox/Scrivania/Arm/fps-ravenscar-arm/build/s-memory.o
 .bss           0x000000002000168c        0x0 /home/aquox/Scrivania/Arm/fps-ravenscar-arm/build/s-trasym.o
 .bss           0x000000002000168c        0x0 /home/aquox/Scrivania/Arm/fps-ravenscar-arm/build/s-wchstw.o
 .bss           0x000000002000168c      0x101 /home/aquox/Scrivania/Arm/fps-ravenscar-arm/build/a-tags.o
                0x000000002000168c                ada__tags__external_tag_htable__tableXn
                0x000000002000178c                ada__tags__external_tag_htable__iterator_indexXn
 .bss           0x000000002000178d        0x0 /home/aquox/Scrivania/Arm/fps-ravenscar-arm/build/s-valuti.o
 .bss           0x000000002000178d        0x0 /home/aquox/Scrivania/Arm/fps-ravenscar-arm/build/s-valuns.o
 .bss           0x000000002000178d        0x0 /home/aquox/Scrivania/Arm/fps-ravenscar-arm/build/s-stalib.o
 .bss           0x000000002000178d        0x0 /home/aquox/Scrivania/Arm/fps-ravenscar-arm/build/a-except.o
 *fill*         0x000000002000178d        0x3 
 .bss           0x0000000020001790      0x5a0 /home/aquox/Scrivania/Arm/fps-ravenscar-arm/build/s-bbthqu.o
                0x0000000020001790                system__bb__threads__queues__task_table
 .bss           0x0000000020001d30        0x0 /home/aquox/Scrivania/Arm/fps-ravenscar-arm/build/s-bbprot.o
 .bss           0x0000000020001d30        0x0 /home/aquox/Scrivania/Arm/fps-ravenscar-arm/build/s-bbthre.o
 .bss           0x0000000020001d30      0x150 /home/aquox/Scrivania/Arm/fps-ravenscar-arm/build/s-bbinte.o
                0x0000000020001d30                interrupt_stack_table
                0x0000000020001d34                system__bb__interrupts__interrupt_handlers_table
 .bss           0x0000000020001e80       0x44 /home/aquox/Scrivania/Arm/fps-ravenscar-arm/build/s-bbcppr.o
                0x0000000020001e80                __gnat_bb_exception_handlers
 .bss           0x0000000020001ec4        0x0 /home/aquox/Scrivania/Arm/fps-ravenscar-arm/build/s-osinte.o
 .bss           0x0000000020001ec4        0x0 /home/aquox/Scrivania/Arm/fps-ravenscar-arm/build/a-elchha.o
 .bss           0x0000000020001ec4        0x0 /home/aquox/Scrivania/Arm/fps-ravenscar-arm/build/s-taspri.o
 .bss           0x0000000020001ec4        0x0 /home/aquox/Scrivania/Arm/fps-ravenscar-arm/build/s-bbtiev.o
 .bss           0x0000000020001ec4        0x0 /home/aquox/Scrivania/Arm/fps-ravenscar-arm/build/s-bbtime.o
 .bss           0x0000000020001ec4        0x0 /home/aquox/Scrivania/Arm/fps-ravenscar-arm/build/s-mufalo.o
 .bss           0x0000000020001ec4        0x0 /home/aquox/Scrivania/Arm/fps-ravenscar-arm/build/s-tasdeb.o
 *fill*         0x0000000020001ec4        0x4 
 .bss           0x0000000020001ec8      0x280 /home/aquox/Scrivania/Arm/fps-ravenscar-arm/build/s-taskin.o
 .bss           0x0000000020002148      0x1ac /home/aquox/Scrivania/Arm/fps-ravenscar-arm/build/s-soflin.o
                0x0000000020002148                system__soft_links__library_exception
                0x00000000200022f0                system__soft_links__caller_priority
 *fill*         0x00000000200022f4        0x4 
 .bss           0x00000000200022f8      0xa88 /home/aquox/Scrivania/Arm/fps-ravenscar-arm/build/s-taprop.o
                0x00000000200022f8                system__task_primitives__operations__idle_stacks
                0x0000000020002af8                __gnat_idle_stack_table
                0x0000000020002b00                system__task_primitives__operations__idle_tasks
 .bss           0x0000000020002d80        0x0 /home/aquox/Scrivania/Arm/fps-ravenscar-arm/build/a-reatim.o
 .bss           0x0000000020002d80        0x0 /home/aquox/Scrivania/Arm/fps-ravenscar-arm/build/a-retide.o
 .bss           0x0000000020002d80        0x0 /home/aquox/Scrivania/Arm/fps-ravenscar-arm/build/s-taprob.o
 .bss           0x0000000020002d80        0x0 /home/aquox/Scrivania/Arm/fps-ravenscar-arm/build/s-tpoben.o
 .bss           0x0000000020002d80        0x8 /home/aquox/Scrivania/Arm/fps-ravenscar-arm/build/s-tpobmu.o
 .bss           0x0000000020002d88        0x0 /home/aquox/Scrivania/Arm/fps-ravenscar-arm/build/s-tposen.o
 .bss           0x0000000020002d88        0x0 /home/aquox/Scrivania/Arm/fps-ravenscar-arm/build/s-tasque.o
 .bss           0x0000000020002d88        0x0 /home/aquox/Scrivania/Arm/fps-ravenscar-arm/build/s-tpobop.o
 .bss           0x0000000020002d88        0x0 /home/aquox/Scrivania/Arm/fps-ravenscar-arm/build/s-tasres.o
 .bss           0x0000000020002d88        0x0 /home/aquox/Scrivania/Arm/fps-ravenscar-arm/build/s-tarest.o
 .bss           0x0000000020002d88        0x0 /home/aquox/Scrivania/Arm/fps-ravenscar-arm/build/a-taside.o
 .bss           0x0000000020002d88        0x0 /home/aquox/Scrivania/Arm/fps-ravenscar-arm/build/a-sytaco.o
 .bss           0x0000000020002d88        0x0 /home/aquox/Scrivania/Arm/fps-ravenscar-arm/build/activation_log_parameters.o
 .bss           0x0000000020002d88       0x20 /home/aquox/Scrivania/Arm/fps-ravenscar-arm/build/activation_log.o
                0x0000000020002d88                activation_log__activation_log
 .bss           0x0000000020002da8       0x18 /home/aquox/Scrivania/Arm/fps-ravenscar-arm/build/activation_manager.o
                0x0000000020002da8                activation_manager__system_start_time
                0x0000000020002db0                activation_manager__task_start_time
                0x0000000020002db8                activation_manager__activation_time
 .bss           0x0000000020002dc0        0x0 /home/aquox/Scrivania/Arm/fps-ravenscar-arm/build/auxiliary.o
 .bss           0x0000000020002dc0        0x0 /home/aquox/Scrivania/Arm/fps-ravenscar-arm/build/external_event_server_parameters.o
 .bss           0x0000000020002dc0       0x48 /home/aquox/Scrivania/Arm/fps-ravenscar-arm/build/event_queue.o
                0x0000000020002dc0                event_queue__handler
 .bss           0x0000000020002e08     0x1298 /home/aquox/Scrivania/Arm/fps-ravenscar-arm/build/external_event_server.o
                0x0000000020002e08                external_event_server___chain
                0x0000000020002e10                external_event_server__external_event_server
 .bss           0x00000000200040a0        0x0 /home/aquox/Scrivania/Arm/fps-ravenscar-arm/build/production_workload.o
 .bss           0x00000000200040a0        0x0 /home/aquox/Scrivania/Arm/fps-ravenscar-arm/build/activation_log_reader_parameters.o
 .bss           0x00000000200040a0     0x12bc /home/aquox/Scrivania/Arm/fps-ravenscar-arm/build/activation_log_reader.o
                0x00000000200040a0                activation_log_reader___chain
                0x00000000200040a8                activation_log_reader__activation_log_reader
 .bss           0x000000002000535c        0x0 /home/aquox/Scrivania/Arm/fps-ravenscar-arm/build/on_call_producer_parameters.o
 .bss           0x000000002000535c        0x0 /home/aquox/Scrivania/Arm/fps-ravenscar-arm/build/request_buffer_parameters.o
 *fill*         0x000000002000535c        0x4 
 .bss           0x0000000020005360       0x60 /home/aquox/Scrivania/Arm/fps-ravenscar-arm/build/request_buffer.o
 .bss           0x00000000200053c0     0x1298 /home/aquox/Scrivania/Arm/fps-ravenscar-arm/build/on_call_producer.o
                0x00000000200053c0                on_call_producer___chain
                0x00000000200053c8                on_call_producer__on_call_producer
 .bss           0x0000000020006658        0x0 /home/aquox/Scrivania/Arm/fps-ravenscar-arm/build/regular_producer_parameters.o
 .bss           0x0000000020006658     0x12a0 /home/aquox/Scrivania/Arm/fps-ravenscar-arm/build/regular_producer.o
                0x0000000020006658                regular_producer___chain
                0x0000000020006660                regular_producer__regular_producer
 .bss           0x00000000200078f8        0x0 /usr/local/gnat-arm/arm-eabi/lib/gnat/ravenscar-full-stm32f4/adalib/libgnat.a(a-nuelfu.o)
 .bss           0x00000000200078f8        0x0 /usr/local/gnat-arm/arm-eabi/lib/gnat/ravenscar-full-stm32f4/adalib/libgnat.a(a-numeri.o)
 .bss           0x00000000200078f8        0x0 /usr/local/gnat-arm/arm-eabi/lib/gnat/ravenscar-full-stm32f4/adalib/libgnat.a(a-textio.o)
 .bss           0x00000000200078f8        0x0 /usr/local/gnat-arm/arm-eabi/lib/gnat/ravenscar-full-stm32f4/adalib/libgnat.a(adaint-xi.o)
 .bss           0x00000000200078f8        0x0 /usr/local/gnat-arm/arm-eabi/lib/gnat/ravenscar-full-stm32f4/adalib/libgnat.a(handler.o)
 .bss           0x00000000200078f8        0x0 /usr/local/gnat-arm/arm-eabi/lib/gnat/ravenscar-full-stm32f4/adalib/libgnat.a(raise-gcc.o)
 .bss           0x00000000200078f8        0x0 /usr/local/gnat-arm/arm-eabi/lib/gnat/ravenscar-full-stm32f4/adalib/libgnat.a(s-fatflt.o)
 .bss           0x00000000200078f8        0x0 /usr/local/gnat-arm/arm-eabi/lib/gnat/ravenscar-full-stm32f4/adalib/libgnat.a(s-init.o)
 .bss           0x00000000200078f8        0x0 /usr/local/gnat-arm/arm-eabi/lib/gnat/ravenscar-full-stm32f4/adalib/libgnat.a(s-libsin.o)
 .bss           0x00000000200078f8        0x0 /usr/local/gnat-arm/arm-eabi/lib/gnat/ravenscar-full-stm32f4/adalib/libgnat.a(s-lisisq.o)
 .bss           0x00000000200078f8        0x0 /usr/local/gnat-arm/arm-eabi/lib/gnat/ravenscar-full-stm32f4/adalib/libgnat.a(s-macres.o)
 .bss           0x00000000200078f8        0x0 /usr/local/gnat-arm/arm-eabi/lib/gnat/ravenscar-full-stm32f4/adalib/libgnat.a(s-restri.o)
 .bss.system__restrictions__run_time_restrictions
                0x00000000200078f8      0x114 /usr/local/gnat-arm/arm-eabi/lib/gnat/ravenscar-full-stm32f4/adalib/libgnat.a(s-restri.o)
                0x00000000200078f8                system__restrictions__run_time_restrictions
 .bss           0x0000000020007a0c        0x0 /usr/local/gnat-arm/arm-eabi/lib/gnat/ravenscar-full-stm32f4/adalib/libgnat.a(start-rom.o)
 .bss           0x0000000020007a0c        0x0 /usr/local/gnat-arm/arm-eabi/lib/gnat/ravenscar-full-stm32f4/adalib/libgnat.a(breakpoint_handler-cortexm.o)
 .bss           0x0000000020007a0c        0x0 /usr/local/gnat-arm/arm-eabi/lib/gnat/ravenscar-full-stm32f4/adalib/libgnat.a(setup_pll.o)
 .bss           0x0000000020007a0c        0x0 /usr/local/gnat-arm/arm-eabi/lib/gnat/ravenscar-full-stm32f4/adalib/libgnat.a(start-common.o)
 .bss           0x0000000020007a0c        0x0 /usr/local/gnat-arm/bin/../lib/gcc/arm-eabi/7.3.1/../../../../arm-eabi/lib/thumb/v7e-m/fpv4-sp/hard/libc.a(lib_a-malloc.o)
 .bss           0x0000000020007a0c       0x34 /usr/local/gnat-arm/bin/../lib/gcc/arm-eabi/7.3.1/../../../../arm-eabi/lib/thumb/v7e-m/fpv4-sp/hard/libc.a(lib_a-mallocr.o)
                0x0000000020007a0c                __malloc_top_pad
                0x0000000020007a10                __malloc_current_mallinfo
                0x0000000020007a38                __malloc_max_sbrked_mem
                0x0000000020007a3c                __malloc_max_total_mem
 .bss           0x0000000020007a40        0x0 /usr/local/gnat-arm/bin/../lib/gcc/arm-eabi/7.3.1/../../../../arm-eabi/lib/thumb/v7e-m/fpv4-sp/hard/libc.a(lib_a-memcmp.o)
 .bss           0x0000000020007a40        0x0 /usr/local/gnat-arm/bin/../lib/gcc/arm-eabi/7.3.1/../../../../arm-eabi/lib/thumb/v7e-m/fpv4-sp/hard/libc.a(lib_a-memcpy.o)
 .bss           0x0000000020007a40        0x0 /usr/local/gnat-arm/bin/../lib/gcc/arm-eabi/7.3.1/../../../../arm-eabi/lib/thumb/v7e-m/fpv4-sp/hard/libc.a(lib_a-memmove.o)
 .bss           0x0000000020007a40        0x0 /usr/local/gnat-arm/bin/../lib/gcc/arm-eabi/7.3.1/../../../../arm-eabi/lib/thumb/v7e-m/fpv4-sp/hard/libc.a(lib_a-memset.o)
 .bss           0x0000000020007a40        0x0 /usr/local/gnat-arm/bin/../lib/gcc/arm-eabi/7.3.1/../../../../arm-eabi/lib/thumb/v7e-m/fpv4-sp/hard/libc.a(lib_a-mlock.o)
 .bss           0x0000000020007a40        0x0 /usr/local/gnat-arm/bin/../lib/gcc/arm-eabi/7.3.1/../../../../arm-eabi/lib/thumb/v7e-m/fpv4-sp/hard/libc.a(lib_a-realloc.o)
 .bss           0x0000000020007a40        0x0 /usr/local/gnat-arm/bin/../lib/gcc/arm-eabi/7.3.1/../../../../arm-eabi/lib/thumb/v7e-m/fpv4-sp/hard/libc.a(lib_a-reallocr.o)
 .bss           0x0000000020007a40        0x0 /usr/local/gnat-arm/bin/../lib/gcc/arm-eabi/7.3.1/../../../../arm-eabi/lib/thumb/v7e-m/fpv4-sp/hard/libc.a(lib_a-sbrkr.o)
 .bss           0x0000000020007a40        0x0 /usr/local/gnat-arm/bin/../lib/gcc/arm-eabi/7.3.1/../../../../arm-eabi/lib/thumb/v7e-m/fpv4-sp/hard/libc.a(lib_a-freer.o)
 .bss           0x0000000020007a40        0x0 /usr/local/gnat-arm/bin/../lib/gcc/arm-eabi/7.3.1/../../../../arm-eabi/lib/thumb/v7e-m/fpv4-sp/hard/libc.a(lib_a-impure.o)
 .bss           0x0000000020007a40        0x0 /usr/local/gnat-arm/bin/../lib/gcc/arm-eabi/7.3.1/../../../../arm-eabi/lib/thumb/v7e-m/fpv4-sp/hard/libc.a(lib_a-reent.o)
 .bss           0x0000000020007a40        0x0 /usr/local/gnat-arm/bin/../lib/gcc/arm-eabi/7.3.1/thumb/v7e-m/fpv4-sp/hard/libgcc.a(_arm_addsubdf3.o)
 .bss           0x0000000020007a40        0x0 /usr/local/gnat-arm/bin/../lib/gcc/arm-eabi/7.3.1/thumb/v7e-m/fpv4-sp/hard/libgcc.a(_arm_truncdfsf2.o)
 .bss           0x0000000020007a40        0x0 /usr/local/gnat-arm/bin/../lib/gcc/arm-eabi/7.3.1/thumb/v7e-m/fpv4-sp/hard/libgcc.a(_aeabi_ldivmod.o)
 .bss           0x0000000020007a40        0x0 /usr/local/gnat-arm/bin/../lib/gcc/arm-eabi/7.3.1/thumb/v7e-m/fpv4-sp/hard/libgcc.a(_aeabi_uldivmod.o)
 .bss           0x0000000020007a40        0x0 /usr/local/gnat-arm/bin/../lib/gcc/arm-eabi/7.3.1/thumb/v7e-m/fpv4-sp/hard/libgcc.a(_fixsfdi.o)
 .bss           0x0000000020007a40        0x0 /usr/local/gnat-arm/bin/../lib/gcc/arm-eabi/7.3.1/thumb/v7e-m/fpv4-sp/hard/libgcc.a(_fixunssfdi.o)
 .bss           0x0000000020007a40        0x0 /usr/local/gnat-arm/bin/../lib/gcc/arm-eabi/7.3.1/thumb/v7e-m/fpv4-sp/hard/libgcc.a(_fixunsdfdi.o)
 .bss           0x0000000020007a40        0x0 /usr/local/gnat-arm/bin/../lib/gcc/arm-eabi/7.3.1/thumb/v7e-m/fpv4-sp/hard/libgcc.a(_udivmoddi4.o)
 .bss           0x0000000020007a40        0x0 /usr/local/gnat-arm/bin/../lib/gcc/arm-eabi/7.3.1/thumb/v7e-m/fpv4-sp/hard/libgcc.a(unwind-arm.o)
 .bss           0x0000000020007a40        0x0 /usr/local/gnat-arm/bin/../lib/gcc/arm-eabi/7.3.1/thumb/v7e-m/fpv4-sp/hard/libgcc.a(libunwind.o)
 .bss           0x0000000020007a40        0x0 /usr/local/gnat-arm/bin/../lib/gcc/arm-eabi/7.3.1/thumb/v7e-m/fpv4-sp/hard/libgcc.a(pr-support.o)
 .bss           0x0000000020007a40        0x0 /usr/local/gnat-arm/bin/../lib/gcc/arm-eabi/7.3.1/thumb/v7e-m/fpv4-sp/hard/libgcc.a(_dvmd_tls.o)
 .bss           0x0000000020007a40        0x0 /usr/local/gnat-arm/bin/../lib/gcc/arm-eabi/7.3.1/thumb/v7e-m/fpv4-sp/hard/libgcc.a(_arm_muldivdf3.o)
 .bss           0x0000000020007a40        0x0 /usr/local/gnat-arm/bin/../lib/gcc/arm-eabi/7.3.1/thumb/v7e-m/fpv4-sp/hard/libgcc.a(_arm_fixunsdfsi.o)
 .bss           0x0000000020007a40        0x0 /usr/local/gnat-arm/arm-eabi/lib/gnat/ravenscar-full-stm32f4/adalib//libgnat.a(newlib-bb.o)
 .bss           0x0000000020007a40        0x0 /usr/local/gnat-arm/bin/../lib/gcc/arm-eabi/7.3.1/../../../../arm-eabi/lib/thumb/v7e-m/fpv4-sp/hard/libc.a(lib_a-errno.o)
 *(COMMON)
 COMMON         0x0000000020007a40        0x4 /usr/local/gnat-arm/bin/../lib/gcc/arm-eabi/7.3.1/../../../../arm-eabi/lib/thumb/v7e-m/fpv4-sp/hard/libc.a(lib_a-reent.o)
                0x0000000020007a40                errno
                0x0000000020007a48                . = ALIGN (0x8)
 *fill*         0x0000000020007a44        0x4 
                0x0000000020007a48                __bss_end = .
                0x0000000020007a48                __interrupt_stack_start = .
 *(.interrupt_stacks)
 .interrupt_stacks
                0x0000000020007a48      0x800 /home/aquox/Scrivania/Arm/fps-ravenscar-arm/build/s-bbinte.o
                0x0000000020007a48                system__bb__interrupts__interrupt_stacks
                0x0000000020008248                . = ALIGN (0x8)
                0x0000000020008248                __interrupt_stack_end = .
                0x0000000020008248                __stack_start = .
                0x0000000020009248                . = (. + DEFINED (__stack_size)?__stack_size:_DEFAULT_STACK_SIZE)
 *fill*         0x0000000020008248     0x1000 
                0x0000000020009248                . = ALIGN (0x8)
                0x0000000020009248                __stack_end = .
                0x0000000020009248                _end = .
                0x0000000020009248                __heap_start = .
                0x0000000020020000                __heap_end = (ORIGIN (sram_bs) + LENGTH (sram_bs))
                0x0000000000001bce                __bss_words = ((__bss_end - __bss_start) >> 0x2)

.debug
 *(.debug)

.line
 *(.line)

.debug_srcinfo
 *(.debug_srcinfo)

.debug_sfnames
 *(.debug_sfnames)

.debug_aranges  0x0000000000000000      0xdf0
 *(.debug_aranges)
 .debug_aranges
                0x0000000000000000       0x20 gee.o
 .debug_aranges
                0x0000000000000020       0x20 b__gee.o
 .debug_aranges
                0x0000000000000040       0x18 /home/aquox/Scrivania/Arm/fps-ravenscar-arm/build/interfac.o
 .debug_aranges
                0x0000000000000058       0x18 /home/aquox/Scrivania/Arm/fps-ravenscar-arm/build/system.o
 .debug_aranges
                0x0000000000000070       0x18 /home/aquox/Scrivania/Arm/fps-ravenscar-arm/build/i-stm32.o
 .debug_aranges
                0x0000000000000088       0x18 /home/aquox/Scrivania/Arm/fps-ravenscar-arm/build/i-stm32-pwr.o
 .debug_aranges
                0x00000000000000a0       0x20 /home/aquox/Scrivania/Arm/fps-ravenscar-arm/build/s-bbmcpa.o
 .debug_aranges
                0x00000000000000c0       0x18 /home/aquox/Scrivania/Arm/fps-ravenscar-arm/build/s-except.o
 .debug_aranges
                0x00000000000000d8       0x20 /home/aquox/Scrivania/Arm/fps-ravenscar-arm/build/s-imgint.o
 .debug_aranges
                0x00000000000000f8       0x18 /home/aquox/Scrivania/Arm/fps-ravenscar-arm/build/s-maccod.o
 .debug_aranges
                0x0000000000000110       0x20 /home/aquox/Scrivania/Arm/fps-ravenscar-arm/build/s-parame.o
 .debug_aranges
                0x0000000000000130       0x20 /home/aquox/Scrivania/Arm/fps-ravenscar-arm/build/s-semiho.o
 .debug_aranges
                0x0000000000000150       0x18 /home/aquox/Scrivania/Arm/fps-ravenscar-arm/build/s-stoele.o
 .debug_aranges
                0x0000000000000168       0x20 /home/aquox/Scrivania/Arm/fps-ravenscar-arm/build/s-secsta.o
 .debug_aranges
                0x0000000000000188       0x20 /home/aquox/Scrivania/Arm/fps-ravenscar-arm/build/g-debuti.o
 .debug_aranges
                0x00000000000001a8       0x20 /home/aquox/Scrivania/Arm/fps-ravenscar-arm/build/s-casuti.o
 .debug_aranges
                0x00000000000001c8       0x18 /home/aquox/Scrivania/Arm/fps-ravenscar-arm/build/s-tasinf.o
 .debug_aranges
                0x00000000000001e0       0x20 /home/aquox/Scrivania/Arm/fps-ravenscar-arm/build/s-textio.o
 .debug_aranges
                0x0000000000000200       0x20 /home/aquox/Scrivania/Arm/fps-ravenscar-arm/build/s-io.o
 .debug_aranges
                0x0000000000000220       0x20 /home/aquox/Scrivania/Arm/fps-ravenscar-arm/build/s-traent.o
 .debug_aranges
                0x0000000000000240       0x18 /home/aquox/Scrivania/Arm/fps-ravenscar-arm/build/s-unstyp.o
 .debug_aranges
                0x0000000000000258       0x18 /home/aquox/Scrivania/Arm/fps-ravenscar-arm/build/i-stm32-rcc.o
 .debug_aranges
                0x0000000000000270       0x18 /home/aquox/Scrivania/Arm/fps-ravenscar-arm/build/s-bbpara.o
 .debug_aranges
                0x0000000000000288       0x20 /home/aquox/Scrivania/Arm/fps-ravenscar-arm/build/s-stm32.o
 .debug_aranges
                0x00000000000002a8       0x20 /home/aquox/Scrivania/Arm/fps-ravenscar-arm/build/s-wchcon.o
 .debug_aranges
                0x00000000000002c8       0x20 /home/aquox/Scrivania/Arm/fps-ravenscar-arm/build/s-wchjis.o
 .debug_aranges
                0x00000000000002e8       0x18 /home/aquox/Scrivania/Arm/fps-ravenscar-arm/build/s-wchcnv.o
 .debug_aranges
                0x0000000000000300       0x20 /home/aquox/Scrivania/Arm/fps-ravenscar-arm/build/s-addima.o
 .debug_aranges
                0x0000000000000320       0x20 /home/aquox/Scrivania/Arm/fps-ravenscar-arm/build/s-traceb.o
 .debug_aranges
                0x0000000000000340       0x20 /home/aquox/Scrivania/Arm/fps-ravenscar-arm/build/s-excdeb.o
 .debug_aranges
                0x0000000000000360       0x20 /home/aquox/Scrivania/Arm/fps-ravenscar-arm/build/s-excmac.o
 .debug_aranges
                0x0000000000000380       0x20 /home/aquox/Scrivania/Arm/fps-ravenscar-arm/build/s-multip.o
 .debug_aranges
                0x00000000000003a0       0x20 /home/aquox/Scrivania/Arm/fps-ravenscar-arm/build/s-musplo.o
 .debug_aranges
                0x00000000000003c0       0x20 /home/aquox/Scrivania/Arm/fps-ravenscar-arm/build/s-exctab.o
 .debug_aranges
                0x00000000000003e0       0x20 /home/aquox/Scrivania/Arm/fps-ravenscar-arm/build/s-bcpcst.o
 .debug_aranges
                0x0000000000000400       0x20 /home/aquox/Scrivania/Arm/fps-ravenscar-arm/build/s-bbbosu.o
 .debug_aranges
                0x0000000000000420       0x18 /home/aquox/Scrivania/Arm/fps-ravenscar-arm/build/s-bbdead.o
 .debug_aranges
                0x0000000000000438       0x20 /home/aquox/Scrivania/Arm/fps-ravenscar-arm/build/a-exctra.o
 .debug_aranges
                0x0000000000000458       0x20 /home/aquox/Scrivania/Arm/fps-ravenscar-arm/build/s-memory.o
 .debug_aranges
                0x0000000000000478       0x20 /home/aquox/Scrivania/Arm/fps-ravenscar-arm/build/s-trasym.o
 .debug_aranges
                0x0000000000000498       0x20 /home/aquox/Scrivania/Arm/fps-ravenscar-arm/build/s-wchstw.o
 .debug_aranges
                0x00000000000004b8       0x20 /home/aquox/Scrivania/Arm/fps-ravenscar-arm/build/a-tags.o
 .debug_aranges
                0x00000000000004d8       0x20 /home/aquox/Scrivania/Arm/fps-ravenscar-arm/build/s-valuti.o
 .debug_aranges
                0x00000000000004f8       0x20 /home/aquox/Scrivania/Arm/fps-ravenscar-arm/build/s-valuns.o
 .debug_aranges
                0x0000000000000518       0x20 /home/aquox/Scrivania/Arm/fps-ravenscar-arm/build/s-stalib.o
 .debug_aranges
                0x0000000000000538       0x20 /home/aquox/Scrivania/Arm/fps-ravenscar-arm/build/a-except.o
 .debug_aranges
                0x0000000000000558       0x20 /home/aquox/Scrivania/Arm/fps-ravenscar-arm/build/s-bbthqu.o
 .debug_aranges
                0x0000000000000578       0x20 /home/aquox/Scrivania/Arm/fps-ravenscar-arm/build/s-bbprot.o
 .debug_aranges
                0x0000000000000598       0x20 /home/aquox/Scrivania/Arm/fps-ravenscar-arm/build/s-bbthre.o
 .debug_aranges
                0x00000000000005b8       0x20 /home/aquox/Scrivania/Arm/fps-ravenscar-arm/build/s-bbinte.o
 .debug_aranges
                0x00000000000005d8       0x20 /home/aquox/Scrivania/Arm/fps-ravenscar-arm/build/s-bbcppr.o
 .debug_aranges
                0x00000000000005f8       0x18 /home/aquox/Scrivania/Arm/fps-ravenscar-arm/build/s-osinte.o
 .debug_aranges
                0x0000000000000610       0x20 /home/aquox/Scrivania/Arm/fps-ravenscar-arm/build/a-elchha.o
 .debug_aranges
                0x0000000000000630       0x18 /home/aquox/Scrivania/Arm/fps-ravenscar-arm/build/s-taspri.o
 .debug_aranges
                0x0000000000000648       0x20 /home/aquox/Scrivania/Arm/fps-ravenscar-arm/build/s-bbtiev.o
 .debug_aranges
                0x0000000000000668       0x20 /home/aquox/Scrivania/Arm/fps-ravenscar-arm/build/s-bbtime.o
 .debug_aranges
                0x0000000000000688       0x20 /home/aquox/Scrivania/Arm/fps-ravenscar-arm/build/s-mufalo.o
 .debug_aranges
                0x00000000000006a8       0x20 /home/aquox/Scrivania/Arm/fps-ravenscar-arm/build/s-tasdeb.o
 .debug_aranges
                0x00000000000006c8       0x20 /home/aquox/Scrivania/Arm/fps-ravenscar-arm/build/s-taskin.o
 .debug_aranges
                0x00000000000006e8       0x20 /home/aquox/Scrivania/Arm/fps-ravenscar-arm/build/s-soflin.o
 .debug_aranges
                0x0000000000000708       0x20 /home/aquox/Scrivania/Arm/fps-ravenscar-arm/build/s-taprop.o
 .debug_aranges
                0x0000000000000728       0x20 /home/aquox/Scrivania/Arm/fps-ravenscar-arm/build/a-reatim.o
 .debug_aranges
                0x0000000000000748       0x20 /home/aquox/Scrivania/Arm/fps-ravenscar-arm/build/a-retide.o
 .debug_aranges
                0x0000000000000768       0x20 /home/aquox/Scrivania/Arm/fps-ravenscar-arm/build/s-taprob.o
 .debug_aranges
                0x0000000000000788       0x20 /home/aquox/Scrivania/Arm/fps-ravenscar-arm/build/s-tpoben.o
 .debug_aranges
                0x00000000000007a8       0x20 /home/aquox/Scrivania/Arm/fps-ravenscar-arm/build/s-tpobmu.o
 .debug_aranges
                0x00000000000007c8       0x20 /home/aquox/Scrivania/Arm/fps-ravenscar-arm/build/s-tposen.o
 .debug_aranges
                0x00000000000007e8       0x20 /home/aquox/Scrivania/Arm/fps-ravenscar-arm/build/s-tasque.o
 .debug_aranges
                0x0000000000000808       0x20 /home/aquox/Scrivania/Arm/fps-ravenscar-arm/build/s-tpobop.o
 .debug_aranges
                0x0000000000000828       0x20 /home/aquox/Scrivania/Arm/fps-ravenscar-arm/build/s-tarest.o
 .debug_aranges
                0x0000000000000848       0x20 /home/aquox/Scrivania/Arm/fps-ravenscar-arm/build/a-taside.o
 .debug_aranges
                0x0000000000000868       0x20 /home/aquox/Scrivania/Arm/fps-ravenscar-arm/build/a-sytaco.o
 .debug_aranges
                0x0000000000000888       0x18 /home/aquox/Scrivania/Arm/fps-ravenscar-arm/build/activation_log_parameters.o
 .debug_aranges
                0x00000000000008a0       0x20 /home/aquox/Scrivania/Arm/fps-ravenscar-arm/build/activation_log.o
 .debug_aranges
                0x00000000000008c0       0x20 /home/aquox/Scrivania/Arm/fps-ravenscar-arm/build/activation_manager.o
 .debug_aranges
                0x00000000000008e0       0x20 /home/aquox/Scrivania/Arm/fps-ravenscar-arm/build/auxiliary.o
 .debug_aranges
                0x0000000000000900       0x20 /home/aquox/Scrivania/Arm/fps-ravenscar-arm/build/external_event_server_parameters.o
 .debug_aranges
                0x0000000000000920       0x20 /home/aquox/Scrivania/Arm/fps-ravenscar-arm/build/event_queue.o
 .debug_aranges
                0x0000000000000940       0x20 /home/aquox/Scrivania/Arm/fps-ravenscar-arm/build/external_event_server.o
 .debug_aranges
                0x0000000000000960       0x20 /home/aquox/Scrivania/Arm/fps-ravenscar-arm/build/production_workload.o
 .debug_aranges
                0x0000000000000980       0x20 /home/aquox/Scrivania/Arm/fps-ravenscar-arm/build/activation_log_reader_parameters.o
 .debug_aranges
                0x00000000000009a0       0x20 /home/aquox/Scrivania/Arm/fps-ravenscar-arm/build/activation_log_reader.o
 .debug_aranges
                0x00000000000009c0       0x20 /home/aquox/Scrivania/Arm/fps-ravenscar-arm/build/on_call_producer_parameters.o
 .debug_aranges
                0x00000000000009e0       0x18 /home/aquox/Scrivania/Arm/fps-ravenscar-arm/build/request_buffer_parameters.o
 .debug_aranges
                0x00000000000009f8       0x20 /home/aquox/Scrivania/Arm/fps-ravenscar-arm/build/request_buffer.o
 .debug_aranges
                0x0000000000000a18       0x20 /home/aquox/Scrivania/Arm/fps-ravenscar-arm/build/on_call_producer.o
 .debug_aranges
                0x0000000000000a38       0x20 /home/aquox/Scrivania/Arm/fps-ravenscar-arm/build/regular_producer_parameters.o
 .debug_aranges
                0x0000000000000a58       0x20 /home/aquox/Scrivania/Arm/fps-ravenscar-arm/build/regular_producer.o
 .debug_aranges
                0x0000000000000a78       0x20 /usr/local/gnat-arm/bin/../lib/gcc/arm-eabi/7.3.1/../../../../arm-eabi/lib/thumb/v7e-m/fpv4-sp/hard/libc.a(lib_a-malloc.o)
 .debug_aranges
                0x0000000000000a98       0x20 /usr/local/gnat-arm/bin/../lib/gcc/arm-eabi/7.3.1/../../../../arm-eabi/lib/thumb/v7e-m/fpv4-sp/hard/libc.a(lib_a-mallocr.o)
 .debug_aranges
                0x0000000000000ab8       0x20 /usr/local/gnat-arm/bin/../lib/gcc/arm-eabi/7.3.1/../../../../arm-eabi/lib/thumb/v7e-m/fpv4-sp/hard/libc.a(lib_a-memcmp.o)
 .debug_aranges
                0x0000000000000ad8       0x20 /usr/local/gnat-arm/bin/../lib/gcc/arm-eabi/7.3.1/../../../../arm-eabi/lib/thumb/v7e-m/fpv4-sp/hard/libc.a(lib_a-memcpy.o)
 .debug_aranges
                0x0000000000000af8       0x20 /usr/local/gnat-arm/bin/../lib/gcc/arm-eabi/7.3.1/../../../../arm-eabi/lib/thumb/v7e-m/fpv4-sp/hard/libc.a(lib_a-memmove.o)
 .debug_aranges
                0x0000000000000b18       0x20 /usr/local/gnat-arm/bin/../lib/gcc/arm-eabi/7.3.1/../../../../arm-eabi/lib/thumb/v7e-m/fpv4-sp/hard/libc.a(lib_a-memset.o)
 .debug_aranges
                0x0000000000000b38       0x20 /usr/local/gnat-arm/bin/../lib/gcc/arm-eabi/7.3.1/../../../../arm-eabi/lib/thumb/v7e-m/fpv4-sp/hard/libc.a(lib_a-mlock.o)
 .debug_aranges
                0x0000000000000b58       0x20 /usr/local/gnat-arm/bin/../lib/gcc/arm-eabi/7.3.1/../../../../arm-eabi/lib/thumb/v7e-m/fpv4-sp/hard/libc.a(lib_a-realloc.o)
 .debug_aranges
                0x0000000000000b78       0x20 /usr/local/gnat-arm/bin/../lib/gcc/arm-eabi/7.3.1/../../../../arm-eabi/lib/thumb/v7e-m/fpv4-sp/hard/libc.a(lib_a-reallocr.o)
 .debug_aranges
                0x0000000000000b98       0x20 /usr/local/gnat-arm/bin/../lib/gcc/arm-eabi/7.3.1/../../../../arm-eabi/lib/thumb/v7e-m/fpv4-sp/hard/libc.a(lib_a-sbrkr.o)
 .debug_aranges
                0x0000000000000bb8       0x20 /usr/local/gnat-arm/bin/../lib/gcc/arm-eabi/7.3.1/../../../../arm-eabi/lib/thumb/v7e-m/fpv4-sp/hard/libc.a(lib_a-freer.o)
 .debug_aranges
                0x0000000000000bd8       0x18 /usr/local/gnat-arm/bin/../lib/gcc/arm-eabi/7.3.1/../../../../arm-eabi/lib/thumb/v7e-m/fpv4-sp/hard/libc.a(lib_a-impure.o)
 .debug_aranges
                0x0000000000000bf0       0x20 /usr/local/gnat-arm/bin/../lib/gcc/arm-eabi/7.3.1/../../../../arm-eabi/lib/thumb/v7e-m/fpv4-sp/hard/libc.a(lib_a-reent.o)
 .debug_aranges
                0x0000000000000c10       0x20 /usr/local/gnat-arm/bin/../lib/gcc/arm-eabi/7.3.1/thumb/v7e-m/fpv4-sp/hard/libgcc.a(_arm_addsubdf3.o)
 .debug_aranges
                0x0000000000000c30       0x20 /usr/local/gnat-arm/bin/../lib/gcc/arm-eabi/7.3.1/thumb/v7e-m/fpv4-sp/hard/libgcc.a(_arm_truncdfsf2.o)
 .debug_aranges
                0x0000000000000c50       0x20 /usr/local/gnat-arm/bin/../lib/gcc/arm-eabi/7.3.1/thumb/v7e-m/fpv4-sp/hard/libgcc.a(_aeabi_ldivmod.o)
 .debug_aranges
                0x0000000000000c70       0x20 /usr/local/gnat-arm/bin/../lib/gcc/arm-eabi/7.3.1/thumb/v7e-m/fpv4-sp/hard/libgcc.a(_aeabi_uldivmod.o)
 .debug_aranges
                0x0000000000000c90       0x20 /usr/local/gnat-arm/bin/../lib/gcc/arm-eabi/7.3.1/thumb/v7e-m/fpv4-sp/hard/libgcc.a(_fixsfdi.o)
 .debug_aranges
                0x0000000000000cb0       0x20 /usr/local/gnat-arm/bin/../lib/gcc/arm-eabi/7.3.1/thumb/v7e-m/fpv4-sp/hard/libgcc.a(_fixunssfdi.o)
 .debug_aranges
                0x0000000000000cd0       0x20 /usr/local/gnat-arm/bin/../lib/gcc/arm-eabi/7.3.1/thumb/v7e-m/fpv4-sp/hard/libgcc.a(_fixunsdfdi.o)
 .debug_aranges
                0x0000000000000cf0       0x20 /usr/local/gnat-arm/bin/../lib/gcc/arm-eabi/7.3.1/thumb/v7e-m/fpv4-sp/hard/libgcc.a(_udivmoddi4.o)
 .debug_aranges
                0x0000000000000d10       0x20 /usr/local/gnat-arm/bin/../lib/gcc/arm-eabi/7.3.1/thumb/v7e-m/fpv4-sp/hard/libgcc.a(unwind-arm.o)
 .debug_aranges
                0x0000000000000d30       0x20 /usr/local/gnat-arm/bin/../lib/gcc/arm-eabi/7.3.1/thumb/v7e-m/fpv4-sp/hard/libgcc.a(libunwind.o)
 .debug_aranges
                0x0000000000000d50       0x20 /usr/local/gnat-arm/bin/../lib/gcc/arm-eabi/7.3.1/thumb/v7e-m/fpv4-sp/hard/libgcc.a(pr-support.o)
 .debug_aranges
                0x0000000000000d70       0x20 /usr/local/gnat-arm/bin/../lib/gcc/arm-eabi/7.3.1/thumb/v7e-m/fpv4-sp/hard/libgcc.a(_dvmd_tls.o)
 .debug_aranges
                0x0000000000000d90       0x20 /usr/local/gnat-arm/bin/../lib/gcc/arm-eabi/7.3.1/thumb/v7e-m/fpv4-sp/hard/libgcc.a(_arm_muldivdf3.o)
 .debug_aranges
                0x0000000000000db0       0x20 /usr/local/gnat-arm/bin/../lib/gcc/arm-eabi/7.3.1/thumb/v7e-m/fpv4-sp/hard/libgcc.a(_arm_fixunsdfsi.o)
 .debug_aranges
                0x0000000000000dd0       0x20 /usr/local/gnat-arm/bin/../lib/gcc/arm-eabi/7.3.1/../../../../arm-eabi/lib/thumb/v7e-m/fpv4-sp/hard/libc.a(lib_a-errno.o)

.debug_pubnames
 *(.debug_pubnames)

.debug_info     0x0000000000000000    0x32991
 *(.debug_info .gnu.linkonce.wi.*)
 .debug_info    0x0000000000000000       0x3b gee.o
 .debug_info    0x000000000000003b      0x7a2 b__gee.o
 .debug_info    0x00000000000007dd      0x395 /home/aquox/Scrivania/Arm/fps-ravenscar-arm/build/interfac.o
 .debug_info    0x0000000000000b72      0x383 /home/aquox/Scrivania/Arm/fps-ravenscar-arm/build/system.o
 .debug_info    0x0000000000000ef5      0x5f8 /home/aquox/Scrivania/Arm/fps-ravenscar-arm/build/i-stm32.o
 .debug_info    0x00000000000014ed      0x293 /home/aquox/Scrivania/Arm/fps-ravenscar-arm/build/i-stm32-pwr.o
 .debug_info    0x0000000000001780       0x87 /home/aquox/Scrivania/Arm/fps-ravenscar-arm/build/s-bbmcpa.o
 .debug_info    0x0000000000001807       0xf5 /home/aquox/Scrivania/Arm/fps-ravenscar-arm/build/s-except.o
 .debug_info    0x00000000000018fc      0x19f /home/aquox/Scrivania/Arm/fps-ravenscar-arm/build/s-imgint.o
 .debug_info    0x0000000000001a9b      0x46f /home/aquox/Scrivania/Arm/fps-ravenscar-arm/build/s-maccod.o
 .debug_info    0x0000000000001f0a      0x13c /home/aquox/Scrivania/Arm/fps-ravenscar-arm/build/s-parame.o
 .debug_info    0x0000000000002046      0x2a8 /home/aquox/Scrivania/Arm/fps-ravenscar-arm/build/s-semiho.o
 .debug_info    0x00000000000022ee       0x3a /home/aquox/Scrivania/Arm/fps-ravenscar-arm/build/s-stoele.o
 .debug_info    0x0000000000002328      0x5bf /home/aquox/Scrivania/Arm/fps-ravenscar-arm/build/s-secsta.o
 .debug_info    0x00000000000028e7      0x3fc /home/aquox/Scrivania/Arm/fps-ravenscar-arm/build/g-debuti.o
 .debug_info    0x0000000000002ce3      0x484 /home/aquox/Scrivania/Arm/fps-ravenscar-arm/build/s-casuti.o
 .debug_info    0x0000000000003167       0x6d /home/aquox/Scrivania/Arm/fps-ravenscar-arm/build/s-tasinf.o
 .debug_info    0x00000000000031d4       0xe4 /home/aquox/Scrivania/Arm/fps-ravenscar-arm/build/s-textio.o
 .debug_info    0x00000000000032b8      0x282 /home/aquox/Scrivania/Arm/fps-ravenscar-arm/build/s-io.o
 .debug_info    0x000000000000353a       0xa8 /home/aquox/Scrivania/Arm/fps-ravenscar-arm/build/s-traent.o
 .debug_info    0x00000000000035e2      0x44a /home/aquox/Scrivania/Arm/fps-ravenscar-arm/build/s-unstyp.o
 .debug_info    0x0000000000003a2c     0x220e /home/aquox/Scrivania/Arm/fps-ravenscar-arm/build/i-stm32-rcc.o
 .debug_info    0x0000000000005c3a      0x199 /home/aquox/Scrivania/Arm/fps-ravenscar-arm/build/s-bbpara.o
 .debug_info    0x0000000000005dd3      0x613 /home/aquox/Scrivania/Arm/fps-ravenscar-arm/build/s-stm32.o
 .debug_info    0x00000000000063e6      0x240 /home/aquox/Scrivania/Arm/fps-ravenscar-arm/build/s-wchcon.o
 .debug_info    0x0000000000006626      0x251 /home/aquox/Scrivania/Arm/fps-ravenscar-arm/build/s-wchjis.o
 .debug_info    0x0000000000006877       0x2c /home/aquox/Scrivania/Arm/fps-ravenscar-arm/build/s-wchcnv.o
 .debug_info    0x00000000000068a3      0x23c /home/aquox/Scrivania/Arm/fps-ravenscar-arm/build/s-addima.o
 .debug_info    0x0000000000006adf      0x3ce /home/aquox/Scrivania/Arm/fps-ravenscar-arm/build/s-traceb.o
 .debug_info    0x0000000000006ead      0x206 /home/aquox/Scrivania/Arm/fps-ravenscar-arm/build/s-excdeb.o
 .debug_info    0x00000000000070b3      0x4fb /home/aquox/Scrivania/Arm/fps-ravenscar-arm/build/s-excmac.o
 .debug_info    0x00000000000075ae       0x6d /home/aquox/Scrivania/Arm/fps-ravenscar-arm/build/s-multip.o
 .debug_info    0x000000000000761b      0x137 /home/aquox/Scrivania/Arm/fps-ravenscar-arm/build/s-musplo.o
 .debug_info    0x0000000000007752      0x671 /home/aquox/Scrivania/Arm/fps-ravenscar-arm/build/s-exctab.o
 .debug_info    0x0000000000007dc3      0x11a /home/aquox/Scrivania/Arm/fps-ravenscar-arm/build/s-bcpcst.o
 .debug_info    0x0000000000007edd      0x52a /home/aquox/Scrivania/Arm/fps-ravenscar-arm/build/s-bbbosu.o
 .debug_info    0x0000000000008407       0x98 /home/aquox/Scrivania/Arm/fps-ravenscar-arm/build/s-bbdead.o
 .debug_info    0x000000000000849f      0x288 /home/aquox/Scrivania/Arm/fps-ravenscar-arm/build/a-exctra.o
 .debug_info    0x0000000000008727      0x191 /home/aquox/Scrivania/Arm/fps-ravenscar-arm/build/s-memory.o
 .debug_info    0x00000000000088b8      0x4c4 /home/aquox/Scrivania/Arm/fps-ravenscar-arm/build/s-trasym.o
 .debug_info    0x0000000000008d7c      0x54b /home/aquox/Scrivania/Arm/fps-ravenscar-arm/build/s-wchstw.o
 .debug_info    0x00000000000092c7     0x31a7 /home/aquox/Scrivania/Arm/fps-ravenscar-arm/build/a-tags.o
 .debug_info    0x000000000000c46e      0x5a0 /home/aquox/Scrivania/Arm/fps-ravenscar-arm/build/s-valuti.o
 .debug_info    0x000000000000ca0e      0x3ae /home/aquox/Scrivania/Arm/fps-ravenscar-arm/build/s-valuns.o
 .debug_info    0x000000000000cdbc      0x374 /home/aquox/Scrivania/Arm/fps-ravenscar-arm/build/s-stalib.o
 .debug_info    0x000000000000d130     0x3f81 /home/aquox/Scrivania/Arm/fps-ravenscar-arm/build/a-except.o
 .debug_info    0x00000000000110b1      0x829 /home/aquox/Scrivania/Arm/fps-ravenscar-arm/build/s-bbthqu.o
 .debug_info    0x00000000000118da       0x9c /home/aquox/Scrivania/Arm/fps-ravenscar-arm/build/s-bbprot.o
 .debug_info    0x0000000000011976      0x6d7 /home/aquox/Scrivania/Arm/fps-ravenscar-arm/build/s-bbthre.o
 .debug_info    0x000000000001204d      0x4d0 /home/aquox/Scrivania/Arm/fps-ravenscar-arm/build/s-bbinte.o
 .debug_info    0x000000000001251d      0x701 /home/aquox/Scrivania/Arm/fps-ravenscar-arm/build/s-bbcppr.o
 .debug_info    0x0000000000012c1e      0x562 /home/aquox/Scrivania/Arm/fps-ravenscar-arm/build/s-osinte.o
 .debug_info    0x0000000000013180      0x38b /home/aquox/Scrivania/Arm/fps-ravenscar-arm/build/a-elchha.o
 .debug_info    0x000000000001350b       0x56 /home/aquox/Scrivania/Arm/fps-ravenscar-arm/build/s-taspri.o
 .debug_info    0x0000000000013561      0x689 /home/aquox/Scrivania/Arm/fps-ravenscar-arm/build/s-bbtiev.o
 .debug_info    0x0000000000013bea      0xb7f /home/aquox/Scrivania/Arm/fps-ravenscar-arm/build/s-bbtime.o
 .debug_info    0x0000000000014769      0x213 /home/aquox/Scrivania/Arm/fps-ravenscar-arm/build/s-mufalo.o
 .debug_info    0x000000000001497c      0x8e4 /home/aquox/Scrivania/Arm/fps-ravenscar-arm/build/s-tasdeb.o
 .debug_info    0x0000000000015260      0xb54 /home/aquox/Scrivania/Arm/fps-ravenscar-arm/build/s-taskin.o
 .debug_info    0x0000000000015db4      0xbbc /home/aquox/Scrivania/Arm/fps-ravenscar-arm/build/s-soflin.o
 .debug_info    0x0000000000016970      0xec7 /home/aquox/Scrivania/Arm/fps-ravenscar-arm/build/s-taprop.o
 .debug_info    0x0000000000017837      0x8c9 /home/aquox/Scrivania/Arm/fps-ravenscar-arm/build/a-reatim.o
 .debug_info    0x0000000000018100      0x118 /home/aquox/Scrivania/Arm/fps-ravenscar-arm/build/a-retide.o
 .debug_info    0x0000000000018218      0xa7f /home/aquox/Scrivania/Arm/fps-ravenscar-arm/build/s-taprob.o
 .debug_info    0x0000000000018c97      0xdb1 /home/aquox/Scrivania/Arm/fps-ravenscar-arm/build/s-tpoben.o
 .debug_info    0x0000000000019a48      0xa08 /home/aquox/Scrivania/Arm/fps-ravenscar-arm/build/s-tpobmu.o
 .debug_info    0x000000000001a450      0xc5a /home/aquox/Scrivania/Arm/fps-ravenscar-arm/build/s-tposen.o
 .debug_info    0x000000000001b0aa      0xecf /home/aquox/Scrivania/Arm/fps-ravenscar-arm/build/s-tasque.o
 .debug_info    0x000000000001bf79     0x1009 /home/aquox/Scrivania/Arm/fps-ravenscar-arm/build/s-tpobop.o
 .debug_info    0x000000000001cf82      0xd96 /home/aquox/Scrivania/Arm/fps-ravenscar-arm/build/s-tarest.o
 .debug_info    0x000000000001dd18      0xa96 /home/aquox/Scrivania/Arm/fps-ravenscar-arm/build/a-taside.o
 .debug_info    0x000000000001e7ae      0xcf5 /home/aquox/Scrivania/Arm/fps-ravenscar-arm/build/a-sytaco.o
 .debug_info    0x000000000001f4a3       0x47 /home/aquox/Scrivania/Arm/fps-ravenscar-arm/build/activation_log_parameters.o
 .debug_info    0x000000000001f4ea      0xb7d /home/aquox/Scrivania/Arm/fps-ravenscar-arm/build/activation_log.o
 .debug_info    0x0000000000020067      0x120 /home/aquox/Scrivania/Arm/fps-ravenscar-arm/build/activation_manager.o
 .debug_info    0x0000000000020187       0xf1 /home/aquox/Scrivania/Arm/fps-ravenscar-arm/build/auxiliary.o
 .debug_info    0x0000000000020278       0x83 /home/aquox/Scrivania/Arm/fps-ravenscar-arm/build/external_event_server_parameters.o
 .debug_info    0x00000000000202fb      0xec0 /home/aquox/Scrivania/Arm/fps-ravenscar-arm/build/event_queue.o
 .debug_info    0x00000000000211bb      0xa6f /home/aquox/Scrivania/Arm/fps-ravenscar-arm/build/external_event_server.o
 .debug_info    0x0000000000021c2a      0x2ca /home/aquox/Scrivania/Arm/fps-ravenscar-arm/build/production_workload.o
 .debug_info    0x0000000000021ef4      0x147 /home/aquox/Scrivania/Arm/fps-ravenscar-arm/build/activation_log_reader_parameters.o
 .debug_info    0x000000000002203b      0xc37 /home/aquox/Scrivania/Arm/fps-ravenscar-arm/build/activation_log_reader.o
 .debug_info    0x0000000000022c72       0x8f /home/aquox/Scrivania/Arm/fps-ravenscar-arm/build/on_call_producer_parameters.o
 .debug_info    0x0000000000022d01       0x6b /home/aquox/Scrivania/Arm/fps-ravenscar-arm/build/request_buffer_parameters.o
 .debug_info    0x0000000000022d6c     0x105f /home/aquox/Scrivania/Arm/fps-ravenscar-arm/build/request_buffer.o
 .debug_info    0x0000000000023dcb      0xa95 /home/aquox/Scrivania/Arm/fps-ravenscar-arm/build/on_call_producer.o
 .debug_info    0x0000000000024860       0xf5 /home/aquox/Scrivania/Arm/fps-ravenscar-arm/build/regular_producer_parameters.o
 .debug_info    0x0000000000024955      0xab6 /home/aquox/Scrivania/Arm/fps-ravenscar-arm/build/regular_producer.o
 .debug_info    0x000000000002540b      0x91b /usr/local/gnat-arm/bin/../lib/gcc/arm-eabi/7.3.1/../../../../arm-eabi/lib/thumb/v7e-m/fpv4-sp/hard/libc.a(lib_a-malloc.o)
 .debug_info    0x0000000000025d26      0xde9 /usr/local/gnat-arm/bin/../lib/gcc/arm-eabi/7.3.1/../../../../arm-eabi/lib/thumb/v7e-m/fpv4-sp/hard/libc.a(lib_a-mallocr.o)
 .debug_info    0x0000000000026b0f      0x912 /usr/local/gnat-arm/bin/../lib/gcc/arm-eabi/7.3.1/../../../../arm-eabi/lib/thumb/v7e-m/fpv4-sp/hard/libc.a(lib_a-memcmp.o)
 .debug_info    0x0000000000027421       0x26 /usr/local/gnat-arm/bin/../lib/gcc/arm-eabi/7.3.1/../../../../arm-eabi/lib/thumb/v7e-m/fpv4-sp/hard/libc.a(lib_a-memcpy.o)
 .debug_info    0x0000000000027447      0x923 /usr/local/gnat-arm/bin/../lib/gcc/arm-eabi/7.3.1/../../../../arm-eabi/lib/thumb/v7e-m/fpv4-sp/hard/libc.a(lib_a-memmove.o)
 .debug_info    0x0000000000027d6a      0x914 /usr/local/gnat-arm/bin/../lib/gcc/arm-eabi/7.3.1/../../../../arm-eabi/lib/thumb/v7e-m/fpv4-sp/hard/libc.a(lib_a-memset.o)
 .debug_info    0x000000000002867e      0x8d1 /usr/local/gnat-arm/bin/../lib/gcc/arm-eabi/7.3.1/../../../../arm-eabi/lib/thumb/v7e-m/fpv4-sp/hard/libc.a(lib_a-mlock.o)
 .debug_info    0x0000000000028f4f      0x8ef /usr/local/gnat-arm/bin/../lib/gcc/arm-eabi/7.3.1/../../../../arm-eabi/lib/thumb/v7e-m/fpv4-sp/hard/libc.a(lib_a-realloc.o)
 .debug_info    0x000000000002983e      0xdc4 /usr/local/gnat-arm/bin/../lib/gcc/arm-eabi/7.3.1/../../../../arm-eabi/lib/thumb/v7e-m/fpv4-sp/hard/libc.a(lib_a-reallocr.o)
 .debug_info    0x000000000002a602      0x953 /usr/local/gnat-arm/bin/../lib/gcc/arm-eabi/7.3.1/../../../../arm-eabi/lib/thumb/v7e-m/fpv4-sp/hard/libc.a(lib_a-sbrkr.o)
 .debug_info    0x000000000002af55      0xcb7 /usr/local/gnat-arm/bin/../lib/gcc/arm-eabi/7.3.1/../../../../arm-eabi/lib/thumb/v7e-m/fpv4-sp/hard/libc.a(lib_a-freer.o)
 .debug_info    0x000000000002bc0c      0x89e /usr/local/gnat-arm/bin/../lib/gcc/arm-eabi/7.3.1/../../../../arm-eabi/lib/thumb/v7e-m/fpv4-sp/hard/libc.a(lib_a-impure.o)
 .debug_info    0x000000000002c4aa      0xa22 /usr/local/gnat-arm/bin/../lib/gcc/arm-eabi/7.3.1/../../../../arm-eabi/lib/thumb/v7e-m/fpv4-sp/hard/libc.a(lib_a-reent.o)
 .debug_info    0x000000000002cecc       0x26 /usr/local/gnat-arm/bin/../lib/gcc/arm-eabi/7.3.1/thumb/v7e-m/fpv4-sp/hard/libgcc.a(_arm_addsubdf3.o)
 .debug_info    0x000000000002cef2       0x26 /usr/local/gnat-arm/bin/../lib/gcc/arm-eabi/7.3.1/thumb/v7e-m/fpv4-sp/hard/libgcc.a(_arm_truncdfsf2.o)
 .debug_info    0x000000000002cf18       0x26 /usr/local/gnat-arm/bin/../lib/gcc/arm-eabi/7.3.1/thumb/v7e-m/fpv4-sp/hard/libgcc.a(_aeabi_ldivmod.o)
 .debug_info    0x000000000002cf3e       0x26 /usr/local/gnat-arm/bin/../lib/gcc/arm-eabi/7.3.1/thumb/v7e-m/fpv4-sp/hard/libgcc.a(_aeabi_uldivmod.o)
 .debug_info    0x000000000002cf64      0x9d4 /usr/local/gnat-arm/bin/../lib/gcc/arm-eabi/7.3.1/thumb/v7e-m/fpv4-sp/hard/libgcc.a(_fixsfdi.o)
 .debug_info    0x000000000002d938      0xa54 /usr/local/gnat-arm/bin/../lib/gcc/arm-eabi/7.3.1/thumb/v7e-m/fpv4-sp/hard/libgcc.a(_fixunssfdi.o)
 .debug_info    0x000000000002e38c      0xa22 /usr/local/gnat-arm/bin/../lib/gcc/arm-eabi/7.3.1/thumb/v7e-m/fpv4-sp/hard/libgcc.a(_fixunsdfdi.o)
 .debug_info    0x000000000002edae      0xcff /usr/local/gnat-arm/bin/../lib/gcc/arm-eabi/7.3.1/thumb/v7e-m/fpv4-sp/hard/libgcc.a(_udivmoddi4.o)
 .debug_info    0x000000000002faad     0x1bea /usr/local/gnat-arm/bin/../lib/gcc/arm-eabi/7.3.1/thumb/v7e-m/fpv4-sp/hard/libgcc.a(unwind-arm.o)
 .debug_info    0x0000000000031697       0x26 /usr/local/gnat-arm/bin/../lib/gcc/arm-eabi/7.3.1/thumb/v7e-m/fpv4-sp/hard/libgcc.a(libunwind.o)
 .debug_info    0x00000000000316bd      0x99d /usr/local/gnat-arm/bin/../lib/gcc/arm-eabi/7.3.1/thumb/v7e-m/fpv4-sp/hard/libgcc.a(pr-support.o)
 .debug_info    0x000000000003205a       0x26 /usr/local/gnat-arm/bin/../lib/gcc/arm-eabi/7.3.1/thumb/v7e-m/fpv4-sp/hard/libgcc.a(_dvmd_tls.o)
 .debug_info    0x0000000000032080       0x26 /usr/local/gnat-arm/bin/../lib/gcc/arm-eabi/7.3.1/thumb/v7e-m/fpv4-sp/hard/libgcc.a(_arm_muldivdf3.o)
 .debug_info    0x00000000000320a6       0x26 /usr/local/gnat-arm/bin/../lib/gcc/arm-eabi/7.3.1/thumb/v7e-m/fpv4-sp/hard/libgcc.a(_arm_fixunsdfsi.o)
 .debug_info    0x00000000000320cc      0x8c5 /usr/local/gnat-arm/bin/../lib/gcc/arm-eabi/7.3.1/../../../../arm-eabi/lib/thumb/v7e-m/fpv4-sp/hard/libc.a(lib_a-errno.o)

.debug_abbrev   0x0000000000000000     0xc33c
 *(.debug_abbrev)
 .debug_abbrev  0x0000000000000000       0x2c gee.o
 .debug_abbrev  0x000000000000002c      0x262 b__gee.o
 .debug_abbrev  0x000000000000028e       0x74 /home/aquox/Scrivania/Arm/fps-ravenscar-arm/build/interfac.o
 .debug_abbrev  0x0000000000000302       0x9b /home/aquox/Scrivania/Arm/fps-ravenscar-arm/build/system.o
 .debug_abbrev  0x000000000000039d       0x40 /home/aquox/Scrivania/Arm/fps-ravenscar-arm/build/i-stm32.o
 .debug_abbrev  0x00000000000003dd       0xb2 /home/aquox/Scrivania/Arm/fps-ravenscar-arm/build/i-stm32-pwr.o
 .debug_abbrev  0x000000000000048f       0x4d /home/aquox/Scrivania/Arm/fps-ravenscar-arm/build/s-bbmcpa.o
 .debug_abbrev  0x00000000000004dc       0x89 /home/aquox/Scrivania/Arm/fps-ravenscar-arm/build/s-except.o
 .debug_abbrev  0x0000000000000565       0xf0 /home/aquox/Scrivania/Arm/fps-ravenscar-arm/build/s-imgint.o
 .debug_abbrev  0x0000000000000655       0xdc /home/aquox/Scrivania/Arm/fps-ravenscar-arm/build/s-maccod.o
 .debug_abbrev  0x0000000000000731       0x95 /home/aquox/Scrivania/Arm/fps-ravenscar-arm/build/s-parame.o
 .debug_abbrev  0x00000000000007c6      0x15e /home/aquox/Scrivania/Arm/fps-ravenscar-arm/build/s-semiho.o
 .debug_abbrev  0x0000000000000924       0x28 /home/aquox/Scrivania/Arm/fps-ravenscar-arm/build/s-stoele.o
 .debug_abbrev  0x000000000000094c      0x2a9 /home/aquox/Scrivania/Arm/fps-ravenscar-arm/build/s-secsta.o
 .debug_abbrev  0x0000000000000bf5      0x1e0 /home/aquox/Scrivania/Arm/fps-ravenscar-arm/build/g-debuti.o
 .debug_abbrev  0x0000000000000dd5      0x159 /home/aquox/Scrivania/Arm/fps-ravenscar-arm/build/s-casuti.o
 .debug_abbrev  0x0000000000000f2e       0x69 /home/aquox/Scrivania/Arm/fps-ravenscar-arm/build/s-tasinf.o
 .debug_abbrev  0x0000000000000f97       0xb5 /home/aquox/Scrivania/Arm/fps-ravenscar-arm/build/s-textio.o
 .debug_abbrev  0x000000000000104c      0x15b /home/aquox/Scrivania/Arm/fps-ravenscar-arm/build/s-io.o
 .debug_abbrev  0x00000000000011a7       0x94 /home/aquox/Scrivania/Arm/fps-ravenscar-arm/build/s-traent.o
 .debug_abbrev  0x000000000000123b       0x67 /home/aquox/Scrivania/Arm/fps-ravenscar-arm/build/s-unstyp.o
 .debug_abbrev  0x00000000000012a2      0x20f /home/aquox/Scrivania/Arm/fps-ravenscar-arm/build/i-stm32-rcc.o
 .debug_abbrev  0x00000000000014b1       0x7c /home/aquox/Scrivania/Arm/fps-ravenscar-arm/build/s-bbpara.o
 .debug_abbrev  0x000000000000152d      0x174 /home/aquox/Scrivania/Arm/fps-ravenscar-arm/build/s-stm32.o
 .debug_abbrev  0x00000000000016a1      0x136 /home/aquox/Scrivania/Arm/fps-ravenscar-arm/build/s-wchcon.o
 .debug_abbrev  0x00000000000017d7       0xfc /home/aquox/Scrivania/Arm/fps-ravenscar-arm/build/s-wchjis.o
 .debug_abbrev  0x00000000000018d3       0x28 /home/aquox/Scrivania/Arm/fps-ravenscar-arm/build/s-wchcnv.o
 .debug_abbrev  0x00000000000018fb      0x134 /home/aquox/Scrivania/Arm/fps-ravenscar-arm/build/s-addima.o
 .debug_abbrev  0x0000000000001a2f      0x1c4 /home/aquox/Scrivania/Arm/fps-ravenscar-arm/build/s-traceb.o
 .debug_abbrev  0x0000000000001bf3      0x120 /home/aquox/Scrivania/Arm/fps-ravenscar-arm/build/s-excdeb.o
 .debug_abbrev  0x0000000000001d13      0x1ab /home/aquox/Scrivania/Arm/fps-ravenscar-arm/build/s-excmac.o
 .debug_abbrev  0x0000000000001ebe       0x69 /home/aquox/Scrivania/Arm/fps-ravenscar-arm/build/s-multip.o
 .debug_abbrev  0x0000000000001f27       0xd4 /home/aquox/Scrivania/Arm/fps-ravenscar-arm/build/s-musplo.o
 .debug_abbrev  0x0000000000001ffb      0x297 /home/aquox/Scrivania/Arm/fps-ravenscar-arm/build/s-exctab.o
 .debug_abbrev  0x0000000000002292       0xb0 /home/aquox/Scrivania/Arm/fps-ravenscar-arm/build/s-bcpcst.o
 .debug_abbrev  0x0000000000002342      0x240 /home/aquox/Scrivania/Arm/fps-ravenscar-arm/build/s-bbbosu.o
 .debug_abbrev  0x0000000000002582       0x5a /home/aquox/Scrivania/Arm/fps-ravenscar-arm/build/s-bbdead.o
 .debug_abbrev  0x00000000000025dc      0x182 /home/aquox/Scrivania/Arm/fps-ravenscar-arm/build/a-exctra.o
 .debug_abbrev  0x000000000000275e       0xf1 /home/aquox/Scrivania/Arm/fps-ravenscar-arm/build/s-memory.o
 .debug_abbrev  0x000000000000284f      0x21c /home/aquox/Scrivania/Arm/fps-ravenscar-arm/build/s-trasym.o
 .debug_abbrev  0x0000000000002a6b      0x199 /home/aquox/Scrivania/Arm/fps-ravenscar-arm/build/s-wchstw.o
 .debug_abbrev  0x0000000000002c04      0x50c /home/aquox/Scrivania/Arm/fps-ravenscar-arm/build/a-tags.o
 .debug_abbrev  0x0000000000003110      0x1d7 /home/aquox/Scrivania/Arm/fps-ravenscar-arm/build/s-valuti.o
 .debug_abbrev  0x00000000000032e7      0x18d /home/aquox/Scrivania/Arm/fps-ravenscar-arm/build/s-valuns.o
 .debug_abbrev  0x0000000000003474      0x12b /home/aquox/Scrivania/Arm/fps-ravenscar-arm/build/s-stalib.o
 .debug_abbrev  0x000000000000359f      0x5e8 /home/aquox/Scrivania/Arm/fps-ravenscar-arm/build/a-except.o
 .debug_abbrev  0x0000000000003b87      0x2a7 /home/aquox/Scrivania/Arm/fps-ravenscar-arm/build/s-bbthqu.o
 .debug_abbrev  0x0000000000003e2e       0x65 /home/aquox/Scrivania/Arm/fps-ravenscar-arm/build/s-bbprot.o
 .debug_abbrev  0x0000000000003e93      0x289 /home/aquox/Scrivania/Arm/fps-ravenscar-arm/build/s-bbthre.o
 .debug_abbrev  0x000000000000411c      0x208 /home/aquox/Scrivania/Arm/fps-ravenscar-arm/build/s-bbinte.o
 .debug_abbrev  0x0000000000004324      0x280 /home/aquox/Scrivania/Arm/fps-ravenscar-arm/build/s-bbcppr.o
 .debug_abbrev  0x00000000000045a4      0x1b8 /home/aquox/Scrivania/Arm/fps-ravenscar-arm/build/s-osinte.o
 .debug_abbrev  0x000000000000475c      0x1aa /home/aquox/Scrivania/Arm/fps-ravenscar-arm/build/a-elchha.o
 .debug_abbrev  0x0000000000004906       0x28 /home/aquox/Scrivania/Arm/fps-ravenscar-arm/build/s-taspri.o
 .debug_abbrev  0x000000000000492e      0x2c1 /home/aquox/Scrivania/Arm/fps-ravenscar-arm/build/s-bbtiev.o
 .debug_abbrev  0x0000000000004bef      0x2ad /home/aquox/Scrivania/Arm/fps-ravenscar-arm/build/s-bbtime.o
 .debug_abbrev  0x0000000000004e9c      0x104 /home/aquox/Scrivania/Arm/fps-ravenscar-arm/build/s-mufalo.o
 .debug_abbrev  0x0000000000004fa0      0x2a3 /home/aquox/Scrivania/Arm/fps-ravenscar-arm/build/s-tasdeb.o
 .debug_abbrev  0x0000000000005243      0x375 /home/aquox/Scrivania/Arm/fps-ravenscar-arm/build/s-taskin.o
 .debug_abbrev  0x00000000000055b8      0x34a /home/aquox/Scrivania/Arm/fps-ravenscar-arm/build/s-soflin.o
 .debug_abbrev  0x0000000000005902      0x489 /home/aquox/Scrivania/Arm/fps-ravenscar-arm/build/s-taprop.o
 .debug_abbrev  0x0000000000005d8b      0x1ce /home/aquox/Scrivania/Arm/fps-ravenscar-arm/build/a-reatim.o
 .debug_abbrev  0x0000000000005f59       0x9d /home/aquox/Scrivania/Arm/fps-ravenscar-arm/build/a-retide.o
 .debug_abbrev  0x0000000000005ff6      0x2f4 /home/aquox/Scrivania/Arm/fps-ravenscar-arm/build/s-taprob.o
 .debug_abbrev  0x00000000000062ea      0x307 /home/aquox/Scrivania/Arm/fps-ravenscar-arm/build/s-tpoben.o
 .debug_abbrev  0x00000000000065f1      0x2e7 /home/aquox/Scrivania/Arm/fps-ravenscar-arm/build/s-tpobmu.o
 .debug_abbrev  0x00000000000068d8      0x324 /home/aquox/Scrivania/Arm/fps-ravenscar-arm/build/s-tposen.o
 .debug_abbrev  0x0000000000006bfc      0x37e /home/aquox/Scrivania/Arm/fps-ravenscar-arm/build/s-tasque.o
 .debug_abbrev  0x0000000000006f7a      0x39f /home/aquox/Scrivania/Arm/fps-ravenscar-arm/build/s-tpobop.o
 .debug_abbrev  0x0000000000007319      0x3e2 /home/aquox/Scrivania/Arm/fps-ravenscar-arm/build/s-tarest.o
 .debug_abbrev  0x00000000000076fb      0x318 /home/aquox/Scrivania/Arm/fps-ravenscar-arm/build/a-taside.o
 .debug_abbrev  0x0000000000007a13      0x383 /home/aquox/Scrivania/Arm/fps-ravenscar-arm/build/a-sytaco.o
 .debug_abbrev  0x0000000000007d96       0x40 /home/aquox/Scrivania/Arm/fps-ravenscar-arm/build/activation_log_parameters.o
 .debug_abbrev  0x0000000000007dd6      0x343 /home/aquox/Scrivania/Arm/fps-ravenscar-arm/build/activation_log.o
 .debug_abbrev  0x0000000000008119       0xe0 /home/aquox/Scrivania/Arm/fps-ravenscar-arm/build/activation_manager.o
 .debug_abbrev  0x00000000000081f9       0xb9 /home/aquox/Scrivania/Arm/fps-ravenscar-arm/build/auxiliary.o
 .debug_abbrev  0x00000000000082b2       0x5a /home/aquox/Scrivania/Arm/fps-ravenscar-arm/build/external_event_server_parameters.o
 .debug_abbrev  0x000000000000830c      0x356 /home/aquox/Scrivania/Arm/fps-ravenscar-arm/build/event_queue.o
 .debug_abbrev  0x0000000000008662      0x391 /home/aquox/Scrivania/Arm/fps-ravenscar-arm/build/external_event_server.o
 .debug_abbrev  0x00000000000089f3      0x177 /home/aquox/Scrivania/Arm/fps-ravenscar-arm/build/production_workload.o
 .debug_abbrev  0x0000000000008b6a       0xaf /home/aquox/Scrivania/Arm/fps-ravenscar-arm/build/activation_log_reader_parameters.o
 .debug_abbrev  0x0000000000008c19      0x3a0 /home/aquox/Scrivania/Arm/fps-ravenscar-arm/build/activation_log_reader.o
 .debug_abbrev  0x0000000000008fb9       0x8a /home/aquox/Scrivania/Arm/fps-ravenscar-arm/build/on_call_producer_parameters.o
 .debug_abbrev  0x0000000000009043       0x56 /home/aquox/Scrivania/Arm/fps-ravenscar-arm/build/request_buffer_parameters.o
 .debug_abbrev  0x0000000000009099      0x398 /home/aquox/Scrivania/Arm/fps-ravenscar-arm/build/request_buffer.o
 .debug_abbrev  0x0000000000009431      0x39b /home/aquox/Scrivania/Arm/fps-ravenscar-arm/build/on_call_producer.o
 .debug_abbrev  0x00000000000097cc       0xa4 /home/aquox/Scrivania/Arm/fps-ravenscar-arm/build/regular_producer_parameters.o
 .debug_abbrev  0x0000000000009870      0x38f /home/aquox/Scrivania/Arm/fps-ravenscar-arm/build/regular_producer.o
 .debug_abbrev  0x0000000000009bff      0x1f6 /usr/local/gnat-arm/bin/../lib/gcc/arm-eabi/7.3.1/../../../../arm-eabi/lib/thumb/v7e-m/fpv4-sp/hard/libc.a(lib_a-malloc.o)
 .debug_abbrev  0x0000000000009df5      0x2c4 /usr/local/gnat-arm/bin/../lib/gcc/arm-eabi/7.3.1/../../../../arm-eabi/lib/thumb/v7e-m/fpv4-sp/hard/libc.a(lib_a-mallocr.o)
 .debug_abbrev  0x000000000000a0b9      0x1b4 /usr/local/gnat-arm/bin/../lib/gcc/arm-eabi/7.3.1/../../../../arm-eabi/lib/thumb/v7e-m/fpv4-sp/hard/libc.a(lib_a-memcmp.o)
 .debug_abbrev  0x000000000000a26d       0x14 /usr/local/gnat-arm/bin/../lib/gcc/arm-eabi/7.3.1/../../../../arm-eabi/lib/thumb/v7e-m/fpv4-sp/hard/libc.a(lib_a-memcpy.o)
 .debug_abbrev  0x000000000000a281      0x1d2 /usr/local/gnat-arm/bin/../lib/gcc/arm-eabi/7.3.1/../../../../arm-eabi/lib/thumb/v7e-m/fpv4-sp/hard/libc.a(lib_a-memmove.o)
 .debug_abbrev  0x000000000000a453      0x1cd /usr/local/gnat-arm/bin/../lib/gcc/arm-eabi/7.3.1/../../../../arm-eabi/lib/thumb/v7e-m/fpv4-sp/hard/libc.a(lib_a-memset.o)
 .debug_abbrev  0x000000000000a620      0x1ca /usr/local/gnat-arm/bin/../lib/gcc/arm-eabi/7.3.1/../../../../arm-eabi/lib/thumb/v7e-m/fpv4-sp/hard/libc.a(lib_a-mlock.o)
 .debug_abbrev  0x000000000000a7ea      0x1eb /usr/local/gnat-arm/bin/../lib/gcc/arm-eabi/7.3.1/../../../../arm-eabi/lib/thumb/v7e-m/fpv4-sp/hard/libc.a(lib_a-realloc.o)
 .debug_abbrev  0x000000000000a9d5      0x260 /usr/local/gnat-arm/bin/../lib/gcc/arm-eabi/7.3.1/../../../../arm-eabi/lib/thumb/v7e-m/fpv4-sp/hard/libc.a(lib_a-reallocr.o)
 .debug_abbrev  0x000000000000ac35      0x20c /usr/local/gnat-arm/bin/../lib/gcc/arm-eabi/7.3.1/../../../../arm-eabi/lib/thumb/v7e-m/fpv4-sp/hard/libc.a(lib_a-sbrkr.o)
 .debug_abbrev  0x000000000000ae41      0x288 /usr/local/gnat-arm/bin/../lib/gcc/arm-eabi/7.3.1/../../../../arm-eabi/lib/thumb/v7e-m/fpv4-sp/hard/libc.a(lib_a-freer.o)
 .debug_abbrev  0x000000000000b0c9      0x189 /usr/local/gnat-arm/bin/../lib/gcc/arm-eabi/7.3.1/../../../../arm-eabi/lib/thumb/v7e-m/fpv4-sp/hard/libc.a(lib_a-impure.o)
 .debug_abbrev  0x000000000000b252      0x288 /usr/local/gnat-arm/bin/../lib/gcc/arm-eabi/7.3.1/../../../../arm-eabi/lib/thumb/v7e-m/fpv4-sp/hard/libc.a(lib_a-reent.o)
 .debug_abbrev  0x000000000000b4da       0x14 /usr/local/gnat-arm/bin/../lib/gcc/arm-eabi/7.3.1/thumb/v7e-m/fpv4-sp/hard/libgcc.a(_arm_addsubdf3.o)
 .debug_abbrev  0x000000000000b4ee       0x14 /usr/local/gnat-arm/bin/../lib/gcc/arm-eabi/7.3.1/thumb/v7e-m/fpv4-sp/hard/libgcc.a(_arm_truncdfsf2.o)
 .debug_abbrev  0x000000000000b502       0x14 /usr/local/gnat-arm/bin/../lib/gcc/arm-eabi/7.3.1/thumb/v7e-m/fpv4-sp/hard/libgcc.a(_aeabi_ldivmod.o)
 .debug_abbrev  0x000000000000b516       0x14 /usr/local/gnat-arm/bin/../lib/gcc/arm-eabi/7.3.1/thumb/v7e-m/fpv4-sp/hard/libgcc.a(_aeabi_uldivmod.o)
 .debug_abbrev  0x000000000000b52a      0x162 /usr/local/gnat-arm/bin/../lib/gcc/arm-eabi/7.3.1/thumb/v7e-m/fpv4-sp/hard/libgcc.a(_fixsfdi.o)
 .debug_abbrev  0x000000000000b68c      0x14f /usr/local/gnat-arm/bin/../lib/gcc/arm-eabi/7.3.1/thumb/v7e-m/fpv4-sp/hard/libgcc.a(_fixunssfdi.o)
 .debug_abbrev  0x000000000000b7db      0x14f /usr/local/gnat-arm/bin/../lib/gcc/arm-eabi/7.3.1/thumb/v7e-m/fpv4-sp/hard/libgcc.a(_fixunsdfdi.o)
 .debug_abbrev  0x000000000000b92a      0x199 /usr/local/gnat-arm/bin/../lib/gcc/arm-eabi/7.3.1/thumb/v7e-m/fpv4-sp/hard/libgcc.a(_udivmoddi4.o)
 .debug_abbrev  0x000000000000bac3      0x407 /usr/local/gnat-arm/bin/../lib/gcc/arm-eabi/7.3.1/thumb/v7e-m/fpv4-sp/hard/libgcc.a(unwind-arm.o)
 .debug_abbrev  0x000000000000beca       0x14 /usr/local/gnat-arm/bin/../lib/gcc/arm-eabi/7.3.1/thumb/v7e-m/fpv4-sp/hard/libgcc.a(libunwind.o)
 .debug_abbrev  0x000000000000bede      0x27d /usr/local/gnat-arm/bin/../lib/gcc/arm-eabi/7.3.1/thumb/v7e-m/fpv4-sp/hard/libgcc.a(pr-support.o)
 .debug_abbrev  0x000000000000c15b       0x14 /usr/local/gnat-arm/bin/../lib/gcc/arm-eabi/7.3.1/thumb/v7e-m/fpv4-sp/hard/libgcc.a(_dvmd_tls.o)
 .debug_abbrev  0x000000000000c16f       0x14 /usr/local/gnat-arm/bin/../lib/gcc/arm-eabi/7.3.1/thumb/v7e-m/fpv4-sp/hard/libgcc.a(_arm_muldivdf3.o)
 .debug_abbrev  0x000000000000c183       0x14 /usr/local/gnat-arm/bin/../lib/gcc/arm-eabi/7.3.1/thumb/v7e-m/fpv4-sp/hard/libgcc.a(_arm_fixunsdfsi.o)
 .debug_abbrev  0x000000000000c197      0x1a5 /usr/local/gnat-arm/bin/../lib/gcc/arm-eabi/7.3.1/../../../../arm-eabi/lib/thumb/v7e-m/fpv4-sp/hard/libc.a(lib_a-errno.o)

.debug_line     0x0000000000000000     0xd332
 *(.debug_line)
 .debug_line    0x0000000000000000       0x80 gee.o
 .debug_line    0x0000000000000080      0x124 b__gee.o
 .debug_line    0x00000000000001a4        0x0 /home/aquox/Scrivania/Arm/fps-ravenscar-arm/build/ada.o
 .debug_line    0x00000000000001a4        0x0 /home/aquox/Scrivania/Arm/fps-ravenscar-arm/build/gnat.o
 .debug_line    0x00000000000001a4       0x61 /home/aquox/Scrivania/Arm/fps-ravenscar-arm/build/interfac.o
 .debug_line    0x0000000000000205       0x6d /home/aquox/Scrivania/Arm/fps-ravenscar-arm/build/system.o
 .debug_line    0x0000000000000272       0x60 /home/aquox/Scrivania/Arm/fps-ravenscar-arm/build/i-stm32.o
 .debug_line    0x00000000000002d2       0x73 /home/aquox/Scrivania/Arm/fps-ravenscar-arm/build/i-stm32-pwr.o
 .debug_line    0x0000000000000345        0x0 /home/aquox/Scrivania/Arm/fps-ravenscar-arm/build/s-bb.o
 .debug_line    0x0000000000000345        0x0 /home/aquox/Scrivania/Arm/fps-ravenscar-arm/build/s-bbbopa.o
 .debug_line    0x0000000000000345        0x0 /home/aquox/Scrivania/Arm/fps-ravenscar-arm/build/s-bbcpsp.o
 .debug_line    0x0000000000000345       0x8c /home/aquox/Scrivania/Arm/fps-ravenscar-arm/build/s-bbmcpa.o
 .debug_line    0x00000000000003d1       0x6f /home/aquox/Scrivania/Arm/fps-ravenscar-arm/build/s-except.o
 .debug_line    0x0000000000000440      0x11d /home/aquox/Scrivania/Arm/fps-ravenscar-arm/build/s-imgint.o
 .debug_line    0x000000000000055d       0x6f /home/aquox/Scrivania/Arm/fps-ravenscar-arm/build/s-maccod.o
 .debug_line    0x00000000000005cc       0x84 /home/aquox/Scrivania/Arm/fps-ravenscar-arm/build/s-parame.o
 .debug_line    0x0000000000000650      0x10b /home/aquox/Scrivania/Arm/fps-ravenscar-arm/build/s-semiho.o
 .debug_line    0x000000000000075b       0x1d /home/aquox/Scrivania/Arm/fps-ravenscar-arm/build/s-stoele.o
 .debug_line    0x0000000000000778      0x169 /home/aquox/Scrivania/Arm/fps-ravenscar-arm/build/s-secsta.o
 .debug_line    0x00000000000008e1      0x2cf /home/aquox/Scrivania/Arm/fps-ravenscar-arm/build/g-debuti.o
 .debug_line    0x0000000000000bb0      0x26a /home/aquox/Scrivania/Arm/fps-ravenscar-arm/build/s-casuti.o
 .debug_line    0x0000000000000e1a        0x0 /home/aquox/Scrivania/Arm/fps-ravenscar-arm/build/s-strhas.o
 .debug_line    0x0000000000000e1a        0x0 /home/aquox/Scrivania/Arm/fps-ravenscar-arm/build/s-htable.o
 .debug_line    0x0000000000000e1a       0x61 /home/aquox/Scrivania/Arm/fps-ravenscar-arm/build/s-tasinf.o
 .debug_line    0x0000000000000e7b       0x8c /home/aquox/Scrivania/Arm/fps-ravenscar-arm/build/s-textio.o
 .debug_line    0x0000000000000f07       0xd8 /home/aquox/Scrivania/Arm/fps-ravenscar-arm/build/s-io.o
 .debug_line    0x0000000000000fdf       0x85 /home/aquox/Scrivania/Arm/fps-ravenscar-arm/build/s-traent.o
 .debug_line    0x0000000000001064       0x61 /home/aquox/Scrivania/Arm/fps-ravenscar-arm/build/s-unstyp.o
 .debug_line    0x00000000000010c5       0x73 /home/aquox/Scrivania/Arm/fps-ravenscar-arm/build/i-stm32-rcc.o
 .debug_line    0x0000000000001138       0x70 /home/aquox/Scrivania/Arm/fps-ravenscar-arm/build/s-bbpara.o
 .debug_line    0x00000000000011a8      0x165 /home/aquox/Scrivania/Arm/fps-ravenscar-arm/build/s-stm32.o
 .debug_line    0x000000000000130d       0xfc /home/aquox/Scrivania/Arm/fps-ravenscar-arm/build/s-wchcon.o
 .debug_line    0x0000000000001409      0x136 /home/aquox/Scrivania/Arm/fps-ravenscar-arm/build/s-wchjis.o
 .debug_line    0x000000000000153f       0x1d /home/aquox/Scrivania/Arm/fps-ravenscar-arm/build/s-wchcnv.o
 .debug_line    0x000000000000155c      0x112 /home/aquox/Scrivania/Arm/fps-ravenscar-arm/build/s-addima.o
 .debug_line    0x000000000000166e      0x165 /home/aquox/Scrivania/Arm/fps-ravenscar-arm/build/s-traceb.o
 .debug_line    0x00000000000017d3       0xab /home/aquox/Scrivania/Arm/fps-ravenscar-arm/build/s-excdeb.o
 .debug_line    0x000000000000187e      0x106 /home/aquox/Scrivania/Arm/fps-ravenscar-arm/build/s-excmac.o
 .debug_line    0x0000000000001984       0x81 /home/aquox/Scrivania/Arm/fps-ravenscar-arm/build/s-multip.o
 .debug_line    0x0000000000001a05       0x92 /home/aquox/Scrivania/Arm/fps-ravenscar-arm/build/s-musplo.o
 .debug_line    0x0000000000001a97      0x306 /home/aquox/Scrivania/Arm/fps-ravenscar-arm/build/s-exctab.o
 .debug_line    0x0000000000001d9d       0x76 /home/aquox/Scrivania/Arm/fps-ravenscar-arm/build/s-bcpcst.o
 .debug_line    0x0000000000001e13      0x21f /home/aquox/Scrivania/Arm/fps-ravenscar-arm/build/s-bbbosu.o
 .debug_line    0x0000000000002032       0x60 /home/aquox/Scrivania/Arm/fps-ravenscar-arm/build/s-bbdead.o
 .debug_line    0x0000000000002092      0x11a /home/aquox/Scrivania/Arm/fps-ravenscar-arm/build/a-exctra.o
 .debug_line    0x00000000000021ac       0x9c /home/aquox/Scrivania/Arm/fps-ravenscar-arm/build/s-memory.o
 .debug_line    0x0000000000002248      0x332 /home/aquox/Scrivania/Arm/fps-ravenscar-arm/build/s-trasym.o
 .debug_line    0x000000000000257a      0x31f /home/aquox/Scrivania/Arm/fps-ravenscar-arm/build/s-wchstw.o
 .debug_line    0x0000000000002899     0x1182 /home/aquox/Scrivania/Arm/fps-ravenscar-arm/build/a-tags.o
 .debug_line    0x0000000000003a1b      0x33f /home/aquox/Scrivania/Arm/fps-ravenscar-arm/build/s-valuti.o
 .debug_line    0x0000000000003d5a      0x2f0 /home/aquox/Scrivania/Arm/fps-ravenscar-arm/build/s-valuns.o
 .debug_line    0x000000000000404a       0x9b /home/aquox/Scrivania/Arm/fps-ravenscar-arm/build/s-stalib.o
 .debug_line    0x00000000000040e5      0x994 /home/aquox/Scrivania/Arm/fps-ravenscar-arm/build/a-except.o
 .debug_line    0x0000000000004a79      0x78e /home/aquox/Scrivania/Arm/fps-ravenscar-arm/build/s-bbthqu.o
 .debug_line    0x0000000000005207       0xa1 /home/aquox/Scrivania/Arm/fps-ravenscar-arm/build/s-bbprot.o
 .debug_line    0x00000000000052a8      0x369 /home/aquox/Scrivania/Arm/fps-ravenscar-arm/build/s-bbthre.o
 .debug_line    0x0000000000005611      0x1d2 /home/aquox/Scrivania/Arm/fps-ravenscar-arm/build/s-bbinte.o
 .debug_line    0x00000000000057e3      0x17b /home/aquox/Scrivania/Arm/fps-ravenscar-arm/build/s-bbcppr.o
 .debug_line    0x000000000000595e      0x102 /home/aquox/Scrivania/Arm/fps-ravenscar-arm/build/s-osinte.o
 .debug_line    0x0000000000005a60      0x171 /home/aquox/Scrivania/Arm/fps-ravenscar-arm/build/a-elchha.o
 .debug_line    0x0000000000005bd1       0x1d /home/aquox/Scrivania/Arm/fps-ravenscar-arm/build/s-taspri.o
 .debug_line    0x0000000000005bee      0x29d /home/aquox/Scrivania/Arm/fps-ravenscar-arm/build/s-bbtiev.o
 .debug_line    0x0000000000005e8b      0x3bb /home/aquox/Scrivania/Arm/fps-ravenscar-arm/build/s-bbtime.o
 .debug_line    0x0000000000006246       0xd0 /home/aquox/Scrivania/Arm/fps-ravenscar-arm/build/s-mufalo.o
 .debug_line    0x0000000000006316      0x1c4 /home/aquox/Scrivania/Arm/fps-ravenscar-arm/build/s-tasdeb.o
 .debug_line    0x00000000000064da      0x296 /home/aquox/Scrivania/Arm/fps-ravenscar-arm/build/s-taskin.o
 .debug_line    0x0000000000006770      0x25e /home/aquox/Scrivania/Arm/fps-ravenscar-arm/build/s-soflin.o
 .debug_line    0x00000000000069ce      0x33f /home/aquox/Scrivania/Arm/fps-ravenscar-arm/build/s-taprop.o
 .debug_line    0x0000000000006d0d      0x26c /home/aquox/Scrivania/Arm/fps-ravenscar-arm/build/a-reatim.o
 .debug_line    0x0000000000006f79       0x95 /home/aquox/Scrivania/Arm/fps-ravenscar-arm/build/a-retide.o
 .debug_line    0x000000000000700e      0x2e6 /home/aquox/Scrivania/Arm/fps-ravenscar-arm/build/s-taprob.o
 .debug_line    0x00000000000072f4      0x2c3 /home/aquox/Scrivania/Arm/fps-ravenscar-arm/build/s-tpoben.o
 .debug_line    0x00000000000075b7      0x284 /home/aquox/Scrivania/Arm/fps-ravenscar-arm/build/s-tpobmu.o
 .debug_line    0x000000000000783b      0x22a /home/aquox/Scrivania/Arm/fps-ravenscar-arm/build/s-tposen.o
 .debug_line    0x0000000000007a65      0x3d2 /home/aquox/Scrivania/Arm/fps-ravenscar-arm/build/s-tasque.o
 .debug_line    0x0000000000007e37      0x50e /home/aquox/Scrivania/Arm/fps-ravenscar-arm/build/s-tpobop.o
 .debug_line    0x0000000000008345        0x0 /home/aquox/Scrivania/Arm/fps-ravenscar-arm/build/s-tasres.o
 .debug_line    0x0000000000008345      0x34d /home/aquox/Scrivania/Arm/fps-ravenscar-arm/build/s-tarest.o
 .debug_line    0x0000000000008692      0x1f9 /home/aquox/Scrivania/Arm/fps-ravenscar-arm/build/a-taside.o
 .debug_line    0x000000000000888b      0x244 /home/aquox/Scrivania/Arm/fps-ravenscar-arm/build/a-sytaco.o
 .debug_line    0x0000000000008acf       0x85 /home/aquox/Scrivania/Arm/fps-ravenscar-arm/build/activation_log_parameters.o
 .debug_line    0x0000000000008b54      0x253 /home/aquox/Scrivania/Arm/fps-ravenscar-arm/build/activation_log.o
 .debug_line    0x0000000000008da7      0x108 /home/aquox/Scrivania/Arm/fps-ravenscar-arm/build/activation_manager.o
 .debug_line    0x0000000000008eaf       0xd1 /home/aquox/Scrivania/Arm/fps-ravenscar-arm/build/auxiliary.o
 .debug_line    0x0000000000008f80       0xc3 /home/aquox/Scrivania/Arm/fps-ravenscar-arm/build/external_event_server_parameters.o
 .debug_line    0x0000000000009043      0x232 /home/aquox/Scrivania/Arm/fps-ravenscar-arm/build/event_queue.o
 .debug_line    0x0000000000009275      0x256 /home/aquox/Scrivania/Arm/fps-ravenscar-arm/build/external_event_server.o
 .debug_line    0x00000000000094cb      0x1e0 /home/aquox/Scrivania/Arm/fps-ravenscar-arm/build/production_workload.o
 .debug_line    0x00000000000096ab       0xc6 /home/aquox/Scrivania/Arm/fps-ravenscar-arm/build/activation_log_reader_parameters.o
 .debug_line    0x0000000000009771      0x2ad /home/aquox/Scrivania/Arm/fps-ravenscar-arm/build/activation_log_reader.o
 .debug_line    0x0000000000009a1e       0xba /home/aquox/Scrivania/Arm/fps-ravenscar-arm/build/on_call_producer_parameters.o
 .debug_line    0x0000000000009ad8       0x85 /home/aquox/Scrivania/Arm/fps-ravenscar-arm/build/request_buffer_parameters.o
 .debug_line    0x0000000000009b5d      0x300 /home/aquox/Scrivania/Arm/fps-ravenscar-arm/build/request_buffer.o
 .debug_line    0x0000000000009e5d      0x24d /home/aquox/Scrivania/Arm/fps-ravenscar-arm/build/on_call_producer.o
 .debug_line    0x000000000000a0aa       0xc1 /home/aquox/Scrivania/Arm/fps-ravenscar-arm/build/regular_producer_parameters.o
 .debug_line    0x000000000000a16b      0x253 /home/aquox/Scrivania/Arm/fps-ravenscar-arm/build/regular_producer.o
 .debug_line    0x000000000000a3be      0x1de /usr/local/gnat-arm/bin/../lib/gcc/arm-eabi/7.3.1/../../../../arm-eabi/lib/thumb/v7e-m/fpv4-sp/hard/libc.a(lib_a-malloc.o)
 .debug_line    0x000000000000a59c      0x41e /usr/local/gnat-arm/bin/../lib/gcc/arm-eabi/7.3.1/../../../../arm-eabi/lib/thumb/v7e-m/fpv4-sp/hard/libc.a(lib_a-mallocr.o)
 .debug_line    0x000000000000a9ba      0x1f2 /usr/local/gnat-arm/bin/../lib/gcc/arm-eabi/7.3.1/../../../../arm-eabi/lib/thumb/v7e-m/fpv4-sp/hard/libc.a(lib_a-memcmp.o)
 .debug_line    0x000000000000abac       0xc5 /usr/local/gnat-arm/bin/../lib/gcc/arm-eabi/7.3.1/../../../../arm-eabi/lib/thumb/v7e-m/fpv4-sp/hard/libc.a(lib_a-memcpy.o)
 .debug_line    0x000000000000ac71      0x207 /usr/local/gnat-arm/bin/../lib/gcc/arm-eabi/7.3.1/../../../../arm-eabi/lib/thumb/v7e-m/fpv4-sp/hard/libc.a(lib_a-memmove.o)
 .debug_line    0x000000000000ae78      0x201 /usr/local/gnat-arm/bin/../lib/gcc/arm-eabi/7.3.1/../../../../arm-eabi/lib/thumb/v7e-m/fpv4-sp/hard/libc.a(lib_a-memset.o)
 .debug_line    0x000000000000b079      0x163 /usr/local/gnat-arm/bin/../lib/gcc/arm-eabi/7.3.1/../../../../arm-eabi/lib/thumb/v7e-m/fpv4-sp/hard/libc.a(lib_a-mlock.o)
 .debug_line    0x000000000000b1dc      0x1dc /usr/local/gnat-arm/bin/../lib/gcc/arm-eabi/7.3.1/../../../../arm-eabi/lib/thumb/v7e-m/fpv4-sp/hard/libc.a(lib_a-realloc.o)
 .debug_line    0x000000000000b3b8      0x2d8 /usr/local/gnat-arm/bin/../lib/gcc/arm-eabi/7.3.1/../../../../arm-eabi/lib/thumb/v7e-m/fpv4-sp/hard/libc.a(lib_a-reallocr.o)
 .debug_line    0x000000000000b690      0x1e4 /usr/local/gnat-arm/bin/../lib/gcc/arm-eabi/7.3.1/../../../../arm-eabi/lib/thumb/v7e-m/fpv4-sp/hard/libc.a(lib_a-sbrkr.o)
 .debug_line    0x000000000000b874      0x2ff /usr/local/gnat-arm/bin/../lib/gcc/arm-eabi/7.3.1/../../../../arm-eabi/lib/thumb/v7e-m/fpv4-sp/hard/libc.a(lib_a-freer.o)
 .debug_line    0x000000000000bb73      0x153 /usr/local/gnat-arm/bin/../lib/gcc/arm-eabi/7.3.1/../../../../arm-eabi/lib/thumb/v7e-m/fpv4-sp/hard/libc.a(lib_a-impure.o)
 .debug_line    0x000000000000bcc6      0x206 /usr/local/gnat-arm/bin/../lib/gcc/arm-eabi/7.3.1/../../../../arm-eabi/lib/thumb/v7e-m/fpv4-sp/hard/libc.a(lib_a-reent.o)
 .debug_line    0x000000000000becc      0x18c /usr/local/gnat-arm/bin/../lib/gcc/arm-eabi/7.3.1/thumb/v7e-m/fpv4-sp/hard/libgcc.a(_arm_addsubdf3.o)
 .debug_line    0x000000000000c058       0x94 /usr/local/gnat-arm/bin/../lib/gcc/arm-eabi/7.3.1/thumb/v7e-m/fpv4-sp/hard/libgcc.a(_arm_truncdfsf2.o)
 .debug_line    0x000000000000c0ec       0x85 /usr/local/gnat-arm/bin/../lib/gcc/arm-eabi/7.3.1/thumb/v7e-m/fpv4-sp/hard/libgcc.a(_aeabi_ldivmod.o)
 .debug_line    0x000000000000c171       0x67 /usr/local/gnat-arm/bin/../lib/gcc/arm-eabi/7.3.1/thumb/v7e-m/fpv4-sp/hard/libgcc.a(_aeabi_uldivmod.o)
 .debug_line    0x000000000000c1d8      0x125 /usr/local/gnat-arm/bin/../lib/gcc/arm-eabi/7.3.1/thumb/v7e-m/fpv4-sp/hard/libgcc.a(_fixsfdi.o)
 .debug_line    0x000000000000c2fd      0x129 /usr/local/gnat-arm/bin/../lib/gcc/arm-eabi/7.3.1/thumb/v7e-m/fpv4-sp/hard/libgcc.a(_fixunssfdi.o)
 .debug_line    0x000000000000c426      0x126 /usr/local/gnat-arm/bin/../lib/gcc/arm-eabi/7.3.1/thumb/v7e-m/fpv4-sp/hard/libgcc.a(_fixunsdfdi.o)
 .debug_line    0x000000000000c54c      0x267 /usr/local/gnat-arm/bin/../lib/gcc/arm-eabi/7.3.1/thumb/v7e-m/fpv4-sp/hard/libgcc.a(_udivmoddi4.o)
 .debug_line    0x000000000000c7b3      0x4ee /usr/local/gnat-arm/bin/../lib/gcc/arm-eabi/7.3.1/thumb/v7e-m/fpv4-sp/hard/libgcc.a(unwind-arm.o)
 .debug_line    0x000000000000cca1       0xb4 /usr/local/gnat-arm/bin/../lib/gcc/arm-eabi/7.3.1/thumb/v7e-m/fpv4-sp/hard/libgcc.a(libunwind.o)
 .debug_line    0x000000000000cd55      0x1e7 /usr/local/gnat-arm/bin/../lib/gcc/arm-eabi/7.3.1/thumb/v7e-m/fpv4-sp/hard/libgcc.a(pr-support.o)
 .debug_line    0x000000000000cf3c       0x67 /usr/local/gnat-arm/bin/../lib/gcc/arm-eabi/7.3.1/thumb/v7e-m/fpv4-sp/hard/libgcc.a(_dvmd_tls.o)
 .debug_line    0x000000000000cfa3      0x1a5 /usr/local/gnat-arm/bin/../lib/gcc/arm-eabi/7.3.1/thumb/v7e-m/fpv4-sp/hard/libgcc.a(_arm_muldivdf3.o)
 .debug_line    0x000000000000d148       0x7c /usr/local/gnat-arm/bin/../lib/gcc/arm-eabi/7.3.1/thumb/v7e-m/fpv4-sp/hard/libgcc.a(_arm_fixunsdfsi.o)
 .debug_line    0x000000000000d1c4      0x16e /usr/local/gnat-arm/bin/../lib/gcc/arm-eabi/7.3.1/../../../../arm-eabi/lib/thumb/v7e-m/fpv4-sp/hard/libc.a(lib_a-errno.o)

.debug_frame    0x0000000000000000     0x7cf8
 *(.debug_frame)
 .debug_frame   0x0000000000000000       0x2c gee.o
 .debug_frame   0x000000000000002c       0xb8 b__gee.o
 .debug_frame   0x00000000000000e4       0x84 /home/aquox/Scrivania/Arm/fps-ravenscar-arm/build/i-stm32-pwr.o
 .debug_frame   0x0000000000000168       0x70 /home/aquox/Scrivania/Arm/fps-ravenscar-arm/build/s-bbmcpa.o
 .debug_frame   0x00000000000001d8       0x80 /home/aquox/Scrivania/Arm/fps-ravenscar-arm/build/s-imgint.o
 .debug_frame   0x0000000000000258       0x60 /home/aquox/Scrivania/Arm/fps-ravenscar-arm/build/s-maccod.o
 .debug_frame   0x00000000000002b8       0x38 /home/aquox/Scrivania/Arm/fps-ravenscar-arm/build/s-parame.o
 .debug_frame   0x00000000000002f0       0xf4 /home/aquox/Scrivania/Arm/fps-ravenscar-arm/build/s-semiho.o
 .debug_frame   0x00000000000003e4       0x38 /home/aquox/Scrivania/Arm/fps-ravenscar-arm/build/s-stoele.o
 .debug_frame   0x000000000000041c      0x10c /home/aquox/Scrivania/Arm/fps-ravenscar-arm/build/s-secsta.o
 .debug_frame   0x0000000000000528       0xb8 /home/aquox/Scrivania/Arm/fps-ravenscar-arm/build/g-debuti.o
 .debug_frame   0x00000000000005e0      0x160 /home/aquox/Scrivania/Arm/fps-ravenscar-arm/build/s-casuti.o
 .debug_frame   0x0000000000000740       0xd8 /home/aquox/Scrivania/Arm/fps-ravenscar-arm/build/s-textio.o
 .debug_frame   0x0000000000000818      0x15c /home/aquox/Scrivania/Arm/fps-ravenscar-arm/build/s-io.o
 .debug_frame   0x0000000000000974       0x88 /home/aquox/Scrivania/Arm/fps-ravenscar-arm/build/s-traent.o
 .debug_frame   0x00000000000009fc      0x574 /home/aquox/Scrivania/Arm/fps-ravenscar-arm/build/i-stm32-rcc.o
 .debug_frame   0x0000000000000f70      0x128 /home/aquox/Scrivania/Arm/fps-ravenscar-arm/build/s-stm32.o
 .debug_frame   0x0000000000001098       0x84 /home/aquox/Scrivania/Arm/fps-ravenscar-arm/build/s-wchcon.o
 .debug_frame   0x000000000000111c       0xa8 /home/aquox/Scrivania/Arm/fps-ravenscar-arm/build/s-wchjis.o
 .debug_frame   0x00000000000011c4       0x38 /home/aquox/Scrivania/Arm/fps-ravenscar-arm/build/s-wchcnv.o
 .debug_frame   0x00000000000011fc       0x38 /home/aquox/Scrivania/Arm/fps-ravenscar-arm/build/s-addima.o
 .debug_frame   0x0000000000001234       0xa4 /home/aquox/Scrivania/Arm/fps-ravenscar-arm/build/s-traceb.o
 .debug_frame   0x00000000000012d8       0xa8 /home/aquox/Scrivania/Arm/fps-ravenscar-arm/build/s-excdeb.o
 .debug_frame   0x0000000000001380      0x174 /home/aquox/Scrivania/Arm/fps-ravenscar-arm/build/s-excmac.o
 .debug_frame   0x00000000000014f4       0x2c /home/aquox/Scrivania/Arm/fps-ravenscar-arm/build/s-multip.o
 .debug_frame   0x0000000000001520       0xd4 /home/aquox/Scrivania/Arm/fps-ravenscar-arm/build/s-musplo.o
 .debug_frame   0x00000000000015f4      0x254 /home/aquox/Scrivania/Arm/fps-ravenscar-arm/build/s-exctab.o
 .debug_frame   0x0000000000001848       0x60 /home/aquox/Scrivania/Arm/fps-ravenscar-arm/build/s-bcpcst.o
 .debug_frame   0x00000000000018a8      0x2f4 /home/aquox/Scrivania/Arm/fps-ravenscar-arm/build/s-bbbosu.o
 .debug_frame   0x0000000000001b9c       0x6c /home/aquox/Scrivania/Arm/fps-ravenscar-arm/build/a-exctra.o
 .debug_frame   0x0000000000001c08       0x84 /home/aquox/Scrivania/Arm/fps-ravenscar-arm/build/s-memory.o
 .debug_frame   0x0000000000001c8c      0x130 /home/aquox/Scrivania/Arm/fps-ravenscar-arm/build/s-trasym.o
 .debug_frame   0x0000000000001dbc      0x130 /home/aquox/Scrivania/Arm/fps-ravenscar-arm/build/s-wchstw.o
 .debug_frame   0x0000000000001eec      0x978 /home/aquox/Scrivania/Arm/fps-ravenscar-arm/build/a-tags.o
 .debug_frame   0x0000000000002864      0x12c /home/aquox/Scrivania/Arm/fps-ravenscar-arm/build/s-valuti.o
 .debug_frame   0x0000000000002990       0x9c /home/aquox/Scrivania/Arm/fps-ravenscar-arm/build/s-valuns.o
 .debug_frame   0x0000000000002a2c       0x90 /home/aquox/Scrivania/Arm/fps-ravenscar-arm/build/s-stalib.o
 .debug_frame   0x0000000000002abc     0x14e0 /home/aquox/Scrivania/Arm/fps-ravenscar-arm/build/a-except.o
 .debug_frame   0x0000000000003f9c      0x37c /home/aquox/Scrivania/Arm/fps-ravenscar-arm/build/s-bbthqu.o
 .debug_frame   0x0000000000004318       0x48 /home/aquox/Scrivania/Arm/fps-ravenscar-arm/build/s-bbprot.o
 .debug_frame   0x0000000000004360      0x24c /home/aquox/Scrivania/Arm/fps-ravenscar-arm/build/s-bbthre.o
 .debug_frame   0x00000000000045ac      0x118 /home/aquox/Scrivania/Arm/fps-ravenscar-arm/build/s-bbinte.o
 .debug_frame   0x00000000000046c4      0x244 /home/aquox/Scrivania/Arm/fps-ravenscar-arm/build/s-bbcppr.o
 .debug_frame   0x0000000000004908       0x84 /home/aquox/Scrivania/Arm/fps-ravenscar-arm/build/a-elchha.o
 .debug_frame   0x000000000000498c       0x34 /home/aquox/Scrivania/Arm/fps-ravenscar-arm/build/s-taspri.o
 .debug_frame   0x00000000000049c0      0x218 /home/aquox/Scrivania/Arm/fps-ravenscar-arm/build/s-bbtiev.o
 .debug_frame   0x0000000000004bd8      0x4a8 /home/aquox/Scrivania/Arm/fps-ravenscar-arm/build/s-bbtime.o
 .debug_frame   0x0000000000005080      0x134 /home/aquox/Scrivania/Arm/fps-ravenscar-arm/build/s-mufalo.o
 .debug_frame   0x00000000000051b4       0x34 /home/aquox/Scrivania/Arm/fps-ravenscar-arm/build/s-tasdeb.o
 .debug_frame   0x00000000000051e8      0x134 /home/aquox/Scrivania/Arm/fps-ravenscar-arm/build/s-taskin.o
 .debug_frame   0x000000000000531c      0x12c /home/aquox/Scrivania/Arm/fps-ravenscar-arm/build/s-soflin.o
 .debug_frame   0x0000000000005448      0x334 /home/aquox/Scrivania/Arm/fps-ravenscar-arm/build/s-taprop.o
 .debug_frame   0x000000000000577c      0x3e0 /home/aquox/Scrivania/Arm/fps-ravenscar-arm/build/a-reatim.o
 .debug_frame   0x0000000000005b5c       0x5c /home/aquox/Scrivania/Arm/fps-ravenscar-arm/build/a-retide.o
 .debug_frame   0x0000000000005bb8       0xc0 /home/aquox/Scrivania/Arm/fps-ravenscar-arm/build/s-taprob.o
 .debug_frame   0x0000000000005c78      0x134 /home/aquox/Scrivania/Arm/fps-ravenscar-arm/build/s-tpoben.o
 .debug_frame   0x0000000000005dac       0xa0 /home/aquox/Scrivania/Arm/fps-ravenscar-arm/build/s-tpobmu.o
 .debug_frame   0x0000000000005e4c      0x140 /home/aquox/Scrivania/Arm/fps-ravenscar-arm/build/s-tposen.o
 .debug_frame   0x0000000000005f8c       0xec /home/aquox/Scrivania/Arm/fps-ravenscar-arm/build/s-tasque.o
 .debug_frame   0x0000000000006078      0x160 /home/aquox/Scrivania/Arm/fps-ravenscar-arm/build/s-tpobop.o
 .debug_frame   0x00000000000061d8      0x1ac /home/aquox/Scrivania/Arm/fps-ravenscar-arm/build/s-tarest.o
 .debug_frame   0x0000000000006384      0x170 /home/aquox/Scrivania/Arm/fps-ravenscar-arm/build/a-taside.o
 .debug_frame   0x00000000000064f4      0x274 /home/aquox/Scrivania/Arm/fps-ravenscar-arm/build/a-sytaco.o
 .debug_frame   0x0000000000006768      0x1a4 /home/aquox/Scrivania/Arm/fps-ravenscar-arm/build/activation_log.o
 .debug_frame   0x000000000000690c       0x78 /home/aquox/Scrivania/Arm/fps-ravenscar-arm/build/activation_manager.o
 .debug_frame   0x0000000000006984       0x60 /home/aquox/Scrivania/Arm/fps-ravenscar-arm/build/auxiliary.o
 .debug_frame   0x00000000000069e4       0x2c /home/aquox/Scrivania/Arm/fps-ravenscar-arm/build/external_event_server_parameters.o
 .debug_frame   0x0000000000006a10      0x144 /home/aquox/Scrivania/Arm/fps-ravenscar-arm/build/event_queue.o
 .debug_frame   0x0000000000006b54      0x150 /home/aquox/Scrivania/Arm/fps-ravenscar-arm/build/external_event_server.o
 .debug_frame   0x0000000000006ca4       0x90 /home/aquox/Scrivania/Arm/fps-ravenscar-arm/build/production_workload.o
 .debug_frame   0x0000000000006d34       0x3c /home/aquox/Scrivania/Arm/fps-ravenscar-arm/build/activation_log_reader_parameters.o
 .debug_frame   0x0000000000006d70      0x164 /home/aquox/Scrivania/Arm/fps-ravenscar-arm/build/activation_log_reader.o
 .debug_frame   0x0000000000006ed4       0x38 /home/aquox/Scrivania/Arm/fps-ravenscar-arm/build/on_call_producer_parameters.o
 .debug_frame   0x0000000000006f0c      0x1dc /home/aquox/Scrivania/Arm/fps-ravenscar-arm/build/request_buffer.o
 .debug_frame   0x00000000000070e8      0x150 /home/aquox/Scrivania/Arm/fps-ravenscar-arm/build/on_call_producer.o
 .debug_frame   0x0000000000007238       0x38 /home/aquox/Scrivania/Arm/fps-ravenscar-arm/build/regular_producer_parameters.o
 .debug_frame   0x0000000000007270      0x130 /home/aquox/Scrivania/Arm/fps-ravenscar-arm/build/regular_producer.o
 .debug_frame   0x00000000000073a0       0x30 /usr/local/gnat-arm/bin/../lib/gcc/arm-eabi/7.3.1/../../../../arm-eabi/lib/thumb/v7e-m/fpv4-sp/hard/libc.a(lib_a-malloc.o)
 .debug_frame   0x00000000000073d0       0x54 /usr/local/gnat-arm/bin/../lib/gcc/arm-eabi/7.3.1/../../../../arm-eabi/lib/thumb/v7e-m/fpv4-sp/hard/libc.a(lib_a-mallocr.o)
 .debug_frame   0x0000000000007424       0x38 /usr/local/gnat-arm/bin/../lib/gcc/arm-eabi/7.3.1/../../../../arm-eabi/lib/thumb/v7e-m/fpv4-sp/hard/libc.a(lib_a-memcmp.o)
 .debug_frame   0x000000000000745c       0x40 /usr/local/gnat-arm/bin/../lib/gcc/arm-eabi/7.3.1/../../../../arm-eabi/lib/thumb/v7e-m/fpv4-sp/hard/libc.a(lib_a-memmove.o)
 .debug_frame   0x000000000000749c       0x38 /usr/local/gnat-arm/bin/../lib/gcc/arm-eabi/7.3.1/../../../../arm-eabi/lib/thumb/v7e-m/fpv4-sp/hard/libc.a(lib_a-memset.o)
 .debug_frame   0x00000000000074d4       0x30 /usr/local/gnat-arm/bin/../lib/gcc/arm-eabi/7.3.1/../../../../arm-eabi/lib/thumb/v7e-m/fpv4-sp/hard/libc.a(lib_a-mlock.o)
 .debug_frame   0x0000000000007504       0x20 /usr/local/gnat-arm/bin/../lib/gcc/arm-eabi/7.3.1/../../../../arm-eabi/lib/thumb/v7e-m/fpv4-sp/hard/libc.a(lib_a-realloc.o)
 .debug_frame   0x0000000000007524       0x58 /usr/local/gnat-arm/bin/../lib/gcc/arm-eabi/7.3.1/../../../../arm-eabi/lib/thumb/v7e-m/fpv4-sp/hard/libc.a(lib_a-reallocr.o)
 .debug_frame   0x000000000000757c       0x2c /usr/local/gnat-arm/bin/../lib/gcc/arm-eabi/7.3.1/../../../../arm-eabi/lib/thumb/v7e-m/fpv4-sp/hard/libc.a(lib_a-sbrkr.o)
 .debug_frame   0x00000000000075a8       0x80 /usr/local/gnat-arm/bin/../lib/gcc/arm-eabi/7.3.1/../../../../arm-eabi/lib/thumb/v7e-m/fpv4-sp/hard/libc.a(lib_a-freer.o)
 .debug_frame   0x0000000000007628       0x68 /usr/local/gnat-arm/bin/../lib/gcc/arm-eabi/7.3.1/../../../../arm-eabi/lib/thumb/v7e-m/fpv4-sp/hard/libc.a(lib_a-reent.o)
 .debug_frame   0x0000000000007690       0xac /usr/local/gnat-arm/bin/../lib/gcc/arm-eabi/7.3.1/thumb/v7e-m/fpv4-sp/hard/libgcc.a(_arm_addsubdf3.o)
 .debug_frame   0x000000000000773c       0x24 /usr/local/gnat-arm/bin/../lib/gcc/arm-eabi/7.3.1/thumb/v7e-m/fpv4-sp/hard/libgcc.a(_arm_truncdfsf2.o)
 .debug_frame   0x0000000000007760       0x44 /usr/local/gnat-arm/bin/../lib/gcc/arm-eabi/7.3.1/thumb/v7e-m/fpv4-sp/hard/libgcc.a(_aeabi_ldivmod.o)
 .debug_frame   0x00000000000077a4       0x2c /usr/local/gnat-arm/bin/../lib/gcc/arm-eabi/7.3.1/thumb/v7e-m/fpv4-sp/hard/libgcc.a(_aeabi_uldivmod.o)
 .debug_frame   0x00000000000077d0       0x28 /usr/local/gnat-arm/bin/../lib/gcc/arm-eabi/7.3.1/thumb/v7e-m/fpv4-sp/hard/libgcc.a(_fixsfdi.o)
 .debug_frame   0x00000000000077f8       0x2c /usr/local/gnat-arm/bin/../lib/gcc/arm-eabi/7.3.1/thumb/v7e-m/fpv4-sp/hard/libgcc.a(_fixunssfdi.o)
 .debug_frame   0x0000000000007824       0x2c /usr/local/gnat-arm/bin/../lib/gcc/arm-eabi/7.3.1/thumb/v7e-m/fpv4-sp/hard/libgcc.a(_fixunsdfdi.o)
 .debug_frame   0x0000000000007850       0x34 /usr/local/gnat-arm/bin/../lib/gcc/arm-eabi/7.3.1/thumb/v7e-m/fpv4-sp/hard/libgcc.a(_udivmoddi4.o)
 .debug_frame   0x0000000000007884      0x2dc /usr/local/gnat-arm/bin/../lib/gcc/arm-eabi/7.3.1/thumb/v7e-m/fpv4-sp/hard/libgcc.a(unwind-arm.o)
 .debug_frame   0x0000000000007b60      0x104 /usr/local/gnat-arm/bin/../lib/gcc/arm-eabi/7.3.1/thumb/v7e-m/fpv4-sp/hard/libgcc.a(pr-support.o)
 .debug_frame   0x0000000000007c64       0x50 /usr/local/gnat-arm/bin/../lib/gcc/arm-eabi/7.3.1/thumb/v7e-m/fpv4-sp/hard/libgcc.a(_arm_muldivdf3.o)
 .debug_frame   0x0000000000007cb4       0x24 /usr/local/gnat-arm/bin/../lib/gcc/arm-eabi/7.3.1/thumb/v7e-m/fpv4-sp/hard/libgcc.a(_arm_fixunsdfsi.o)
 .debug_frame   0x0000000000007cd8       0x20 /usr/local/gnat-arm/bin/../lib/gcc/arm-eabi/7.3.1/../../../../arm-eabi/lib/thumb/v7e-m/fpv4-sp/hard/libc.a(lib_a-errno.o)

.debug_str      0x0000000000000000    0x1cacb
 *(.debug_str)
 .debug_str     0x0000000000000000      0x1a8 gee.o
 .debug_str     0x00000000000001a8      0xd93 b__gee.o
                                        0xf3d (size before relaxing)
 .debug_str     0x0000000000000f3b       0x3c /home/aquox/Scrivania/Arm/fps-ravenscar-arm/build/ada.o
                                        0x18c (size before relaxing)
 .debug_str     0x0000000000000f77       0x3d /home/aquox/Scrivania/Arm/fps-ravenscar-arm/build/gnat.o
                                        0x18d (size before relaxing)
 .debug_str     0x0000000000000fb4      0x3b5 /home/aquox/Scrivania/Arm/fps-ravenscar-arm/build/interfac.o
                                        0x530 (size before relaxing)
 .debug_str     0x0000000000001369      0x48b /home/aquox/Scrivania/Arm/fps-ravenscar-arm/build/system.o
                                        0x606 (size before relaxing)
 .debug_str     0x00000000000017f4      0xcec /home/aquox/Scrivania/Arm/fps-ravenscar-arm/build/i-stm32.o
                                        0xe93 (size before relaxing)
 .debug_str     0x00000000000024e0      0x161 /home/aquox/Scrivania/Arm/fps-ravenscar-arm/build/i-stm32-pwr.o
                                        0x33c (size before relaxing)
 .debug_str     0x0000000000002641       0x3d /home/aquox/Scrivania/Arm/fps-ravenscar-arm/build/s-bb.o
                                        0x18d (size before relaxing)
 .debug_str     0x000000000000267e       0x41 /home/aquox/Scrivania/Arm/fps-ravenscar-arm/build/s-bbbopa.o
                                        0x191 (size before relaxing)
 .debug_str     0x00000000000026bf       0x41 /home/aquox/Scrivania/Arm/fps-ravenscar-arm/build/s-bbcpsp.o
                                        0x191 (size before relaxing)
 .debug_str     0x0000000000002700       0xcb /home/aquox/Scrivania/Arm/fps-ravenscar-arm/build/s-bbmcpa.o
                                        0x2ae (size before relaxing)
 .debug_str     0x00000000000027cb      0x133 /home/aquox/Scrivania/Arm/fps-ravenscar-arm/build/s-except.o
                                        0x2d4 (size before relaxing)
 .debug_str     0x00000000000028fe       0x9f /home/aquox/Scrivania/Arm/fps-ravenscar-arm/build/s-imgint.o
                                        0x26e (size before relaxing)
 .debug_str     0x000000000000299d      0x3bb /home/aquox/Scrivania/Arm/fps-ravenscar-arm/build/s-maccod.o
                                        0x55d (size before relaxing)
 .debug_str     0x0000000000002d58      0x1e5 /home/aquox/Scrivania/Arm/fps-ravenscar-arm/build/s-parame.o
                                        0x3a2 (size before relaxing)
 .debug_str     0x0000000000002f3d      0x293 /home/aquox/Scrivania/Arm/fps-ravenscar-arm/build/s-semiho.o
                                        0x477 (size before relaxing)
 .debug_str     0x00000000000031d0       0x96 /home/aquox/Scrivania/Arm/fps-ravenscar-arm/build/s-stoele.o
                                        0x220 (size before relaxing)
 .debug_str     0x0000000000003266      0x80f /home/aquox/Scrivania/Arm/fps-ravenscar-arm/build/s-secsta.o
                                        0xc84 (size before relaxing)
 .debug_str     0x0000000000003a75      0x2d3 /home/aquox/Scrivania/Arm/fps-ravenscar-arm/build/g-debuti.o
                                        0x53d (size before relaxing)
 .debug_str     0x0000000000003d48      0x514 /home/aquox/Scrivania/Arm/fps-ravenscar-arm/build/s-casuti.o
                                        0x715 (size before relaxing)
 .debug_str     0x000000000000425c       0x41 /home/aquox/Scrivania/Arm/fps-ravenscar-arm/build/s-strhas.o
                                        0x191 (size before relaxing)
 .debug_str     0x000000000000429d       0x41 /home/aquox/Scrivania/Arm/fps-ravenscar-arm/build/s-htable.o
                                        0x191 (size before relaxing)
 .debug_str     0x00000000000042de      0x126 /home/aquox/Scrivania/Arm/fps-ravenscar-arm/build/s-tasinf.o
                                        0x288 (size before relaxing)
 .debug_str     0x0000000000004404      0x106 /home/aquox/Scrivania/Arm/fps-ravenscar-arm/build/s-textio.o
                                        0x26d (size before relaxing)
 .debug_str     0x000000000000450a      0x1b0 /home/aquox/Scrivania/Arm/fps-ravenscar-arm/build/s-io.o
                                        0x387 (size before relaxing)
 .debug_str     0x00000000000046ba       0xf4 /home/aquox/Scrivania/Arm/fps-ravenscar-arm/build/s-traent.o
                                        0x265 (size before relaxing)
 .debug_str     0x00000000000047ae      0x5b8 /home/aquox/Scrivania/Arm/fps-ravenscar-arm/build/s-unstyp.o
                                        0x73a (size before relaxing)
 .debug_str     0x0000000000004d66     0x1160 /home/aquox/Scrivania/Arm/fps-ravenscar-arm/build/i-stm32-rcc.o
                                       0x14da (size before relaxing)
 .debug_str     0x0000000000005ec6      0x2e2 /home/aquox/Scrivania/Arm/fps-ravenscar-arm/build/s-bbpara.o
                                        0x448 (size before relaxing)
 .debug_str     0x00000000000061a8      0x5ce /home/aquox/Scrivania/Arm/fps-ravenscar-arm/build/s-stm32.o
                                        0xbf6 (size before relaxing)
 .debug_str     0x0000000000006776      0x27f /home/aquox/Scrivania/Arm/fps-ravenscar-arm/build/s-wchcon.o
                                        0x445 (size before relaxing)
 .debug_str     0x00000000000069f5      0x11e /home/aquox/Scrivania/Arm/fps-ravenscar-arm/build/s-wchjis.o
                                        0x2b6 (size before relaxing)
 .debug_str     0x0000000000006b13       0x60 /home/aquox/Scrivania/Arm/fps-ravenscar-arm/build/s-wchcnv.o
                                        0x1b8 (size before relaxing)
 .debug_str     0x0000000000006b73      0x1d1 /home/aquox/Scrivania/Arm/fps-ravenscar-arm/build/s-addima.o
                                        0x3e6 (size before relaxing)
 .debug_str     0x0000000000006d44      0x571 /home/aquox/Scrivania/Arm/fps-ravenscar-arm/build/s-traceb.o
                                        0x78e (size before relaxing)
 .debug_str     0x00000000000072b5      0x219 /home/aquox/Scrivania/Arm/fps-ravenscar-arm/build/s-excdeb.o
                                        0x471 (size before relaxing)
 .debug_str     0x00000000000074ce      0x686 /home/aquox/Scrivania/Arm/fps-ravenscar-arm/build/s-excmac.o
                                        0xa13 (size before relaxing)
 .debug_str     0x0000000000007b54      0x112 /home/aquox/Scrivania/Arm/fps-ravenscar-arm/build/s-multip.o
                                        0x262 (size before relaxing)
 .debug_str     0x0000000000007c66      0x185 /home/aquox/Scrivania/Arm/fps-ravenscar-arm/build/s-musplo.o
                                        0x2ec (size before relaxing)
 .debug_str     0x0000000000007deb      0x697 /home/aquox/Scrivania/Arm/fps-ravenscar-arm/build/s-exctab.o
                                        0x983 (size before relaxing)
 .debug_str     0x0000000000008482      0x302 /home/aquox/Scrivania/Arm/fps-ravenscar-arm/build/s-bcpcst.o
                                        0x47c (size before relaxing)
 .debug_str     0x0000000000008784      0x7fc /home/aquox/Scrivania/Arm/fps-ravenscar-arm/build/s-bbbosu.o
                                        0xa26 (size before relaxing)
 .debug_str     0x0000000000008f80      0x147 /home/aquox/Scrivania/Arm/fps-ravenscar-arm/build/s-bbdead.o
                                        0x2ae (size before relaxing)
 .debug_str     0x00000000000090c7       0xd1 /home/aquox/Scrivania/Arm/fps-ravenscar-arm/build/a-exctra.o
                                        0x59a (size before relaxing)
 .debug_str     0x0000000000009198      0x11a /home/aquox/Scrivania/Arm/fps-ravenscar-arm/build/s-memory.o
                                        0x2b4 (size before relaxing)
 .debug_str     0x00000000000092b2      0x431 /home/aquox/Scrivania/Arm/fps-ravenscar-arm/build/s-trasym.o
                                        0x935 (size before relaxing)
 .debug_str     0x00000000000096e3      0x1fe /home/aquox/Scrivania/Arm/fps-ravenscar-arm/build/s-wchstw.o
                                        0x577 (size before relaxing)
 .debug_str     0x00000000000098e1     0x225d /home/aquox/Scrivania/Arm/fps-ravenscar-arm/build/a-tags.o
                                       0x27ab (size before relaxing)
 .debug_str     0x000000000000bb3e      0x2fb /home/aquox/Scrivania/Arm/fps-ravenscar-arm/build/s-valuti.o
                                        0x5c6 (size before relaxing)
 .debug_str     0x000000000000be39      0x153 /home/aquox/Scrivania/Arm/fps-ravenscar-arm/build/s-valuns.o
                                        0x442 (size before relaxing)
 .debug_str     0x000000000000bf8c      0x565 /home/aquox/Scrivania/Arm/fps-ravenscar-arm/build/s-stalib.o
                                        0x842 (size before relaxing)
 .debug_str     0x000000000000c4f1     0x55bd /home/aquox/Scrivania/Arm/fps-ravenscar-arm/build/a-except.o
                                       0x6088 (size before relaxing)
 .debug_str     0x0000000000011aae      0x8fd /home/aquox/Scrivania/Arm/fps-ravenscar-arm/build/s-bbthqu.o
                                        0xc3c (size before relaxing)
 .debug_str     0x00000000000123ab       0xdc /home/aquox/Scrivania/Arm/fps-ravenscar-arm/build/s-bbprot.o
                                        0x2e6 (size before relaxing)
 .debug_str     0x0000000000012487      0x2c6 /home/aquox/Scrivania/Arm/fps-ravenscar-arm/build/s-bbthre.o
                                        0x933 (size before relaxing)
 .debug_str     0x000000000001274d      0x358 /home/aquox/Scrivania/Arm/fps-ravenscar-arm/build/s-bbinte.o
                                        0x997 (size before relaxing)
 .debug_str     0x0000000000012aa5      0x871 /home/aquox/Scrivania/Arm/fps-ravenscar-arm/build/s-bbcppr.o
                                        0xcf9 (size before relaxing)
 .debug_str     0x0000000000013316      0x3bf /home/aquox/Scrivania/Arm/fps-ravenscar-arm/build/s-osinte.o
                                        0xc77 (size before relaxing)
 .debug_str     0x00000000000136d5      0x25d /home/aquox/Scrivania/Arm/fps-ravenscar-arm/build/a-elchha.o
                                        0x720 (size before relaxing)
 .debug_str     0x0000000000013932       0x41 /home/aquox/Scrivania/Arm/fps-ravenscar-arm/build/s-taspri.o
                                        0x24b (size before relaxing)
 .debug_str     0x0000000000013973      0x2d4 /home/aquox/Scrivania/Arm/fps-ravenscar-arm/build/s-bbtiev.o
                                        0x975 (size before relaxing)
 .debug_str     0x0000000000013c47      0x79b /home/aquox/Scrivania/Arm/fps-ravenscar-arm/build/s-bbtime.o
                                        0xe24 (size before relaxing)
 .debug_str     0x00000000000143e2      0x196 /home/aquox/Scrivania/Arm/fps-ravenscar-arm/build/s-mufalo.o
                                        0x43b (size before relaxing)
 .debug_str     0x0000000000014578      0x5e7 /home/aquox/Scrivania/Arm/fps-ravenscar-arm/build/s-tasdeb.o
                                       0x1165 (size before relaxing)
 .debug_str     0x0000000000014b5f      0x278 /home/aquox/Scrivania/Arm/fps-ravenscar-arm/build/s-taskin.o
                                       0x13c0 (size before relaxing)
 .debug_str     0x0000000000014dd7      0x389 /home/aquox/Scrivania/Arm/fps-ravenscar-arm/build/s-soflin.o
                                       0x153e (size before relaxing)
 .debug_str     0x0000000000015160      0x78f /home/aquox/Scrivania/Arm/fps-ravenscar-arm/build/s-taprop.o
                                       0x19b6 (size before relaxing)
 .debug_str     0x00000000000158ef      0x5a3 /home/aquox/Scrivania/Arm/fps-ravenscar-arm/build/a-reatim.o
                                        0x83a (size before relaxing)
 .debug_str     0x0000000000015e92       0xd5 /home/aquox/Scrivania/Arm/fps-ravenscar-arm/build/a-retide.o
                                        0x42f (size before relaxing)
 .debug_str     0x0000000000015f67      0x25c /home/aquox/Scrivania/Arm/fps-ravenscar-arm/build/s-taprob.o
                                       0x142f (size before relaxing)
 .debug_str     0x00000000000161c3      0x878 /home/aquox/Scrivania/Arm/fps-ravenscar-arm/build/s-tpoben.o
                                       0x1ae5 (size before relaxing)
 .debug_str     0x0000000000016a3b      0x23e /home/aquox/Scrivania/Arm/fps-ravenscar-arm/build/s-tpobmu.o
                                       0x143e (size before relaxing)
 .debug_str     0x0000000000016c79      0x47b /home/aquox/Scrivania/Arm/fps-ravenscar-arm/build/s-tposen.o
                                       0x1833 (size before relaxing)
 .debug_str     0x00000000000170f4      0x1d8 /home/aquox/Scrivania/Arm/fps-ravenscar-arm/build/s-tasque.o
                                       0x1ba6 (size before relaxing)
 .debug_str     0x00000000000172cc      0x535 /home/aquox/Scrivania/Arm/fps-ravenscar-arm/build/s-tpobop.o
                                       0x1f58 (size before relaxing)
 .debug_str     0x0000000000017801       0x41 /home/aquox/Scrivania/Arm/fps-ravenscar-arm/build/s-tasres.o
                                        0x191 (size before relaxing)
 .debug_str     0x0000000000017842      0x475 /home/aquox/Scrivania/Arm/fps-ravenscar-arm/build/s-tarest.o
                                       0x1618 (size before relaxing)
 .debug_str     0x0000000000017cb7      0x20f /home/aquox/Scrivania/Arm/fps-ravenscar-arm/build/a-taside.o
                                       0x12fc (size before relaxing)
 .debug_str     0x0000000000017ec6      0x360 /home/aquox/Scrivania/Arm/fps-ravenscar-arm/build/a-sytaco.o
                                       0x1765 (size before relaxing)
 .debug_str     0x0000000000018226       0x98 /home/aquox/Scrivania/Arm/fps-ravenscar-arm/build/activation_log_parameters.o
                                        0x20f (size before relaxing)
 .debug_str     0x00000000000182be      0x1ec /home/aquox/Scrivania/Arm/fps-ravenscar-arm/build/activation_log.o
                                       0x1438 (size before relaxing)
 .debug_str     0x00000000000184aa      0x17d /home/aquox/Scrivania/Arm/fps-ravenscar-arm/build/activation_manager.o
                                        0x36a (size before relaxing)
 .debug_str     0x0000000000018627      0x13a /home/aquox/Scrivania/Arm/fps-ravenscar-arm/build/auxiliary.o
                                        0x2bd (size before relaxing)
 .debug_str     0x0000000000018761      0x117 /home/aquox/Scrivania/Arm/fps-ravenscar-arm/build/external_event_server_parameters.o
                                        0x2b9 (size before relaxing)
 .debug_str     0x0000000000018878      0x19b /home/aquox/Scrivania/Arm/fps-ravenscar-arm/build/event_queue.o
                                       0x1ad2 (size before relaxing)
 .debug_str     0x0000000000018a13      0x2a3 /home/aquox/Scrivania/Arm/fps-ravenscar-arm/build/external_event_server.o
                                       0x1425 (size before relaxing)
 .debug_str     0x0000000000018cb6      0x1b8 /home/aquox/Scrivania/Arm/fps-ravenscar-arm/build/production_workload.o
                                        0x3eb (size before relaxing)
 .debug_str     0x0000000000018e6e      0x147 /home/aquox/Scrivania/Arm/fps-ravenscar-arm/build/activation_log_reader_parameters.o
                                        0x4ef (size before relaxing)
 .debug_str     0x0000000000018fb5      0x2ec /home/aquox/Scrivania/Arm/fps-ravenscar-arm/build/activation_log_reader.o
                                       0x177d (size before relaxing)
 .debug_str     0x00000000000192a1       0xd6 /home/aquox/Scrivania/Arm/fps-ravenscar-arm/build/on_call_producer_parameters.o
                                        0x270 (size before relaxing)
 .debug_str     0x0000000000019377       0xc8 /home/aquox/Scrivania/Arm/fps-ravenscar-arm/build/request_buffer_parameters.o
                                        0x25d (size before relaxing)
 .debug_str     0x000000000001943f      0x315 /home/aquox/Scrivania/Arm/fps-ravenscar-arm/build/request_buffer.o
                                       0x1c87 (size before relaxing)
 .debug_str     0x0000000000019754      0x256 /home/aquox/Scrivania/Arm/fps-ravenscar-arm/build/on_call_producer.o
                                       0x1399 (size before relaxing)
 .debug_str     0x00000000000199aa      0x1ab /home/aquox/Scrivania/Arm/fps-ravenscar-arm/build/regular_producer_parameters.o
                                        0x395 (size before relaxing)
 .debug_str     0x0000000000019b55      0x23d /home/aquox/Scrivania/Arm/fps-ravenscar-arm/build/regular_producer.o
                                       0x13b9 (size before relaxing)
 .debug_str     0x0000000000019d92      0x55a /usr/local/gnat-arm/bin/../lib/gcc/arm-eabi/7.3.1/../../../../arm-eabi/lib/thumb/v7e-m/fpv4-sp/hard/libc.a(lib_a-malloc.o)
                                        0x626 (size before relaxing)
 .debug_str     0x000000000001a2ec      0x251 /usr/local/gnat-arm/bin/../lib/gcc/arm-eabi/7.3.1/../../../../arm-eabi/lib/thumb/v7e-m/fpv4-sp/hard/libc.a(lib_a-mallocr.o)
                                        0x85d (size before relaxing)
 .debug_str     0x000000000001a53d       0xc4 /usr/local/gnat-arm/bin/../lib/gcc/arm-eabi/7.3.1/../../../../arm-eabi/lib/thumb/v7e-m/fpv4-sp/hard/libc.a(lib_a-memcmp.o)
                                        0x5f9 (size before relaxing)
 .debug_str     0x000000000001a601       0xe0 /usr/local/gnat-arm/bin/../lib/gcc/arm-eabi/7.3.1/../../../../arm-eabi/lib/thumb/v7e-m/fpv4-sp/hard/libc.a(lib_a-memcpy.o)
 .debug_str     0x000000000001a6e1       0x6e /usr/local/gnat-arm/bin/../lib/gcc/arm-eabi/7.3.1/../../../../arm-eabi/lib/thumb/v7e-m/fpv4-sp/hard/libc.a(lib_a-memmove.o)
                                        0x62c (size before relaxing)
 .debug_str     0x000000000001a74f       0x4f /usr/local/gnat-arm/bin/../lib/gcc/arm-eabi/7.3.1/../../../../arm-eabi/lib/thumb/v7e-m/fpv4-sp/hard/libc.a(lib_a-memset.o)
                                        0x60d (size before relaxing)
 .debug_str     0x000000000001a79e       0x4f /usr/local/gnat-arm/bin/../lib/gcc/arm-eabi/7.3.1/../../../../arm-eabi/lib/thumb/v7e-m/fpv4-sp/hard/libc.a(lib_a-mlock.o)
                                        0x61d (size before relaxing)
 .debug_str     0x000000000001a7ed       0x47 /usr/local/gnat-arm/bin/../lib/gcc/arm-eabi/7.3.1/../../../../arm-eabi/lib/thumb/v7e-m/fpv4-sp/hard/libc.a(lib_a-realloc.o)
                                        0x617 (size before relaxing)
 .debug_str     0x000000000001a834       0x4b /usr/local/gnat-arm/bin/../lib/gcc/arm-eabi/7.3.1/../../../../arm-eabi/lib/thumb/v7e-m/fpv4-sp/hard/libc.a(lib_a-reallocr.o)
                                        0x814 (size before relaxing)
 .debug_str     0x000000000001a87f       0xc9 /usr/local/gnat-arm/bin/../lib/gcc/arm-eabi/7.3.1/../../../../arm-eabi/lib/thumb/v7e-m/fpv4-sp/hard/libc.a(lib_a-sbrkr.o)
                                        0x637 (size before relaxing)
 .debug_str     0x000000000001a948       0x34 /usr/local/gnat-arm/bin/../lib/gcc/arm-eabi/7.3.1/../../../../arm-eabi/lib/thumb/v7e-m/fpv4-sp/hard/libc.a(lib_a-freer.o)
                                        0x7d6 (size before relaxing)
 .debug_str     0x000000000001a97c       0x46 /usr/local/gnat-arm/bin/../lib/gcc/arm-eabi/7.3.1/../../../../arm-eabi/lib/thumb/v7e-m/fpv4-sp/hard/libc.a(lib_a-impure.o)
                                        0x5f5 (size before relaxing)
 .debug_str     0x000000000001a9c2       0x65 /usr/local/gnat-arm/bin/../lib/gcc/arm-eabi/7.3.1/../../../../arm-eabi/lib/thumb/v7e-m/fpv4-sp/hard/libc.a(lib_a-reent.o)
                                        0x631 (size before relaxing)
 .debug_str     0x000000000001aa27       0xa9 /usr/local/gnat-arm/bin/../lib/gcc/arm-eabi/7.3.1/thumb/v7e-m/fpv4-sp/hard/libgcc.a(_arm_addsubdf3.o)
                                         0xb8 (size before relaxing)
 .debug_str     0x000000000001aad0       0xb8 /usr/local/gnat-arm/bin/../lib/gcc/arm-eabi/7.3.1/thumb/v7e-m/fpv4-sp/hard/libgcc.a(_arm_truncdfsf2.o)
 .debug_str     0x000000000001aad0       0x33 /usr/local/gnat-arm/bin/../lib/gcc/arm-eabi/7.3.1/thumb/v7e-m/fpv4-sp/hard/libgcc.a(_aeabi_ldivmod.o)
                                         0xb3 (size before relaxing)
 .debug_str     0x000000000001ab03       0xb3 /usr/local/gnat-arm/bin/../lib/gcc/arm-eabi/7.3.1/thumb/v7e-m/fpv4-sp/hard/libgcc.a(_aeabi_uldivmod.o)
 .debug_str     0x000000000001ab03     0x12d0 /usr/local/gnat-arm/bin/../lib/gcc/arm-eabi/7.3.1/thumb/v7e-m/fpv4-sp/hard/libgcc.a(_fixsfdi.o)
                                       0x13d4 (size before relaxing)
 .debug_str     0x000000000001bdd3       0x58 /usr/local/gnat-arm/bin/../lib/gcc/arm-eabi/7.3.1/thumb/v7e-m/fpv4-sp/hard/libgcc.a(_fixunssfdi.o)
                                       0x140d (size before relaxing)
 .debug_str     0x000000000001be2b        0xd /usr/local/gnat-arm/bin/../lib/gcc/arm-eabi/7.3.1/thumb/v7e-m/fpv4-sp/hard/libgcc.a(_fixunsdfdi.o)
                                       0x13fa (size before relaxing)
 .debug_str     0x000000000001be38      0x11f /usr/local/gnat-arm/bin/../lib/gcc/arm-eabi/7.3.1/thumb/v7e-m/fpv4-sp/hard/libgcc.a(_udivmoddi4.o)
                                       0x1412 (size before relaxing)
 .debug_str     0x000000000001bf57      0x95e /usr/local/gnat-arm/bin/../lib/gcc/arm-eabi/7.3.1/thumb/v7e-m/fpv4-sp/hard/libgcc.a(unwind-arm.o)
                                        0xccd (size before relaxing)
 .debug_str     0x000000000001c8b5       0x37 /usr/local/gnat-arm/bin/../lib/gcc/arm-eabi/7.3.1/thumb/v7e-m/fpv4-sp/hard/libgcc.a(libunwind.o)
                                         0xb7 (size before relaxing)
 .debug_str     0x000000000001c8ec       0xe6 /usr/local/gnat-arm/bin/../lib/gcc/arm-eabi/7.3.1/thumb/v7e-m/fpv4-sp/hard/libgcc.a(pr-support.o)
                                        0x597 (size before relaxing)
 .debug_str     0x000000000001c9d2       0x37 /usr/local/gnat-arm/bin/../lib/gcc/arm-eabi/7.3.1/thumb/v7e-m/fpv4-sp/hard/libgcc.a(_dvmd_tls.o)
                                         0xb7 (size before relaxing)
 .debug_str     0x000000000001ca09       0xb8 /usr/local/gnat-arm/bin/../lib/gcc/arm-eabi/7.3.1/thumb/v7e-m/fpv4-sp/hard/libgcc.a(_arm_muldivdf3.o)
 .debug_str     0x000000000001ca09       0xb8 /usr/local/gnat-arm/bin/../lib/gcc/arm-eabi/7.3.1/thumb/v7e-m/fpv4-sp/hard/libgcc.a(_arm_fixunsdfsi.o)
 .debug_str     0x000000000001ca09       0xc2 /usr/local/gnat-arm/bin/../lib/gcc/arm-eabi/7.3.1/../../../../arm-eabi/lib/thumb/v7e-m/fpv4-sp/hard/libc.a(lib_a-errno.o)
                                        0x607 (size before relaxing)

.debug_loc      0x0000000000000000     0x5452
 *(.debug_loc)
 .debug_loc     0x0000000000000000       0x58 /usr/local/gnat-arm/bin/../lib/gcc/arm-eabi/7.3.1/../../../../arm-eabi/lib/thumb/v7e-m/fpv4-sp/hard/libc.a(lib_a-malloc.o)
 .debug_loc     0x0000000000000058      0xcb1 /usr/local/gnat-arm/bin/../lib/gcc/arm-eabi/7.3.1/../../../../arm-eabi/lib/thumb/v7e-m/fpv4-sp/hard/libc.a(lib_a-mallocr.o)
 .debug_loc     0x0000000000000d09      0x157 /usr/local/gnat-arm/bin/../lib/gcc/arm-eabi/7.3.1/../../../../arm-eabi/lib/thumb/v7e-m/fpv4-sp/hard/libc.a(lib_a-memcmp.o)
 .debug_loc     0x0000000000000e60      0x26a /usr/local/gnat-arm/bin/../lib/gcc/arm-eabi/7.3.1/../../../../arm-eabi/lib/thumb/v7e-m/fpv4-sp/hard/libc.a(lib_a-memmove.o)
 .debug_loc     0x00000000000010ca      0x175 /usr/local/gnat-arm/bin/../lib/gcc/arm-eabi/7.3.1/../../../../arm-eabi/lib/thumb/v7e-m/fpv4-sp/hard/libc.a(lib_a-memset.o)
 .debug_loc     0x000000000000123f       0x58 /usr/local/gnat-arm/bin/../lib/gcc/arm-eabi/7.3.1/../../../../arm-eabi/lib/thumb/v7e-m/fpv4-sp/hard/libc.a(lib_a-realloc.o)
 .debug_loc     0x0000000000001297      0xe3f /usr/local/gnat-arm/bin/../lib/gcc/arm-eabi/7.3.1/../../../../arm-eabi/lib/thumb/v7e-m/fpv4-sp/hard/libc.a(lib_a-reallocr.o)
 .debug_loc     0x00000000000020d6       0x4d /usr/local/gnat-arm/bin/../lib/gcc/arm-eabi/7.3.1/../../../../arm-eabi/lib/thumb/v7e-m/fpv4-sp/hard/libc.a(lib_a-sbrkr.o)
 .debug_loc     0x0000000000002123      0x612 /usr/local/gnat-arm/bin/../lib/gcc/arm-eabi/7.3.1/../../../../arm-eabi/lib/thumb/v7e-m/fpv4-sp/hard/libc.a(lib_a-freer.o)
 .debug_loc     0x0000000000002735      0x165 /usr/local/gnat-arm/bin/../lib/gcc/arm-eabi/7.3.1/../../../../arm-eabi/lib/thumb/v7e-m/fpv4-sp/hard/libc.a(lib_a-reent.o)
 .debug_loc     0x000000000000289a       0x4a /usr/local/gnat-arm/bin/../lib/gcc/arm-eabi/7.3.1/thumb/v7e-m/fpv4-sp/hard/libgcc.a(_fixsfdi.o)
 .debug_loc     0x00000000000028e4       0xb2 /usr/local/gnat-arm/bin/../lib/gcc/arm-eabi/7.3.1/thumb/v7e-m/fpv4-sp/hard/libgcc.a(_fixunssfdi.o)
 .debug_loc     0x0000000000002996       0x9f /usr/local/gnat-arm/bin/../lib/gcc/arm-eabi/7.3.1/thumb/v7e-m/fpv4-sp/hard/libgcc.a(_fixunsdfdi.o)
 .debug_loc     0x0000000000002a35      0xdaa /usr/local/gnat-arm/bin/../lib/gcc/arm-eabi/7.3.1/thumb/v7e-m/fpv4-sp/hard/libgcc.a(_udivmoddi4.o)
 .debug_loc     0x00000000000037df     0x17a7 /usr/local/gnat-arm/bin/../lib/gcc/arm-eabi/7.3.1/thumb/v7e-m/fpv4-sp/hard/libgcc.a(unwind-arm.o)
 .debug_loc     0x0000000000004f86      0x4cc /usr/local/gnat-arm/bin/../lib/gcc/arm-eabi/7.3.1/thumb/v7e-m/fpv4-sp/hard/libgcc.a(pr-support.o)

.debug_macinfo
 *(.debug_macinfo)

.debug_pubtypes
 *(.debug_pubtypes)

.debug_ranges   0x0000000000000000      0x5d0
 *(.debug_ranges)
 .debug_ranges  0x0000000000000000       0x90 /home/aquox/Scrivania/Arm/fps-ravenscar-arm/build/s-trasym.o
 .debug_ranges  0x0000000000000090       0x18 /home/aquox/Scrivania/Arm/fps-ravenscar-arm/build/s-valuns.o
 .debug_ranges  0x00000000000000a8       0x18 /home/aquox/Scrivania/Arm/fps-ravenscar-arm/build/a-except.o
 .debug_ranges  0x00000000000000c0       0x60 /home/aquox/Scrivania/Arm/fps-ravenscar-arm/build/a-elchha.o
 .debug_ranges  0x0000000000000120       0x18 /home/aquox/Scrivania/Arm/fps-ravenscar-arm/build/s-bbtime.o
 .debug_ranges  0x0000000000000138       0x48 /home/aquox/Scrivania/Arm/fps-ravenscar-arm/build/external_event_server.o
 .debug_ranges  0x0000000000000180       0x18 /home/aquox/Scrivania/Arm/fps-ravenscar-arm/build/production_workload.o
 .debug_ranges  0x0000000000000198       0x48 /home/aquox/Scrivania/Arm/fps-ravenscar-arm/build/activation_log_reader.o
 .debug_ranges  0x00000000000001e0       0x60 /home/aquox/Scrivania/Arm/fps-ravenscar-arm/build/on_call_producer.o
 .debug_ranges  0x0000000000000240       0x60 /home/aquox/Scrivania/Arm/fps-ravenscar-arm/build/regular_producer.o
 .debug_ranges  0x00000000000002a0       0x40 /usr/local/gnat-arm/bin/../lib/gcc/arm-eabi/7.3.1/../../../../arm-eabi/lib/thumb/v7e-m/fpv4-sp/hard/libc.a(lib_a-mallocr.o)
 .debug_ranges  0x00000000000002e0      0x108 /usr/local/gnat-arm/bin/../lib/gcc/arm-eabi/7.3.1/../../../../arm-eabi/lib/thumb/v7e-m/fpv4-sp/hard/libc.a(lib_a-reallocr.o)
 .debug_ranges  0x00000000000003e8       0xd8 /usr/local/gnat-arm/bin/../lib/gcc/arm-eabi/7.3.1/thumb/v7e-m/fpv4-sp/hard/libgcc.a(_udivmoddi4.o)
 .debug_ranges  0x00000000000004c0      0x110 /usr/local/gnat-arm/bin/../lib/gcc/arm-eabi/7.3.1/thumb/v7e-m/fpv4-sp/hard/libgcc.a(unwind-arm.o)

.comment        0x0000000000000000       0x3d
 .comment       0x0000000000000000       0x3d gee.o
                                         0x3e (size before relaxing)
 .comment       0x000000000000003d       0x3e b__gee.o
 .comment       0x000000000000003d       0x3e /home/aquox/Scrivania/Arm/fps-ravenscar-arm/build/ada.o
 .comment       0x000000000000003d       0x3e /home/aquox/Scrivania/Arm/fps-ravenscar-arm/build/gnat.o
 .comment       0x000000000000003d       0x3e /home/aquox/Scrivania/Arm/fps-ravenscar-arm/build/interfac.o
 .comment       0x000000000000003d       0x3e /home/aquox/Scrivania/Arm/fps-ravenscar-arm/build/system.o
 .comment       0x000000000000003d       0x3e /home/aquox/Scrivania/Arm/fps-ravenscar-arm/build/i-stm32.o
 .comment       0x000000000000003d       0x3e /home/aquox/Scrivania/Arm/fps-ravenscar-arm/build/i-stm32-pwr.o
 .comment       0x000000000000003d       0x3e /home/aquox/Scrivania/Arm/fps-ravenscar-arm/build/s-bb.o
 .comment       0x000000000000003d       0x3e /home/aquox/Scrivania/Arm/fps-ravenscar-arm/build/s-bbbopa.o
 .comment       0x000000000000003d       0x3e /home/aquox/Scrivania/Arm/fps-ravenscar-arm/build/s-bbcpsp.o
 .comment       0x000000000000003d       0x3e /home/aquox/Scrivania/Arm/fps-ravenscar-arm/build/s-bbmcpa.o
 .comment       0x000000000000003d       0x3e /home/aquox/Scrivania/Arm/fps-ravenscar-arm/build/s-except.o
 .comment       0x000000000000003d       0x3e /home/aquox/Scrivania/Arm/fps-ravenscar-arm/build/s-imgint.o
 .comment       0x000000000000003d       0x3e /home/aquox/Scrivania/Arm/fps-ravenscar-arm/build/s-maccod.o
 .comment       0x000000000000003d       0x3e /home/aquox/Scrivania/Arm/fps-ravenscar-arm/build/s-parame.o
 .comment       0x000000000000003d       0x3e /home/aquox/Scrivania/Arm/fps-ravenscar-arm/build/s-semiho.o
 .comment       0x000000000000003d       0x3e /home/aquox/Scrivania/Arm/fps-ravenscar-arm/build/s-stoele.o
 .comment       0x000000000000003d       0x3e /home/aquox/Scrivania/Arm/fps-ravenscar-arm/build/s-secsta.o
 .comment       0x000000000000003d       0x3e /home/aquox/Scrivania/Arm/fps-ravenscar-arm/build/g-debuti.o
 .comment       0x000000000000003d       0x3e /home/aquox/Scrivania/Arm/fps-ravenscar-arm/build/s-casuti.o
 .comment       0x000000000000003d       0x3e /home/aquox/Scrivania/Arm/fps-ravenscar-arm/build/s-strhas.o
 .comment       0x000000000000003d       0x3e /home/aquox/Scrivania/Arm/fps-ravenscar-arm/build/s-htable.o
 .comment       0x000000000000003d       0x3e /home/aquox/Scrivania/Arm/fps-ravenscar-arm/build/s-tasinf.o
 .comment       0x000000000000003d       0x3e /home/aquox/Scrivania/Arm/fps-ravenscar-arm/build/s-textio.o
 .comment       0x000000000000003d       0x3e /home/aquox/Scrivania/Arm/fps-ravenscar-arm/build/s-io.o
 .comment       0x000000000000003d       0x3e /home/aquox/Scrivania/Arm/fps-ravenscar-arm/build/s-traent.o
 .comment       0x000000000000003d       0x3e /home/aquox/Scrivania/Arm/fps-ravenscar-arm/build/s-unstyp.o
 .comment       0x000000000000003d       0x3e /home/aquox/Scrivania/Arm/fps-ravenscar-arm/build/i-stm32-rcc.o
 .comment       0x000000000000003d       0x3e /home/aquox/Scrivania/Arm/fps-ravenscar-arm/build/s-bbpara.o
 .comment       0x000000000000003d       0x3e /home/aquox/Scrivania/Arm/fps-ravenscar-arm/build/s-stm32.o
 .comment       0x000000000000003d       0x3e /home/aquox/Scrivania/Arm/fps-ravenscar-arm/build/s-wchcon.o
 .comment       0x000000000000003d       0x3e /home/aquox/Scrivania/Arm/fps-ravenscar-arm/build/s-wchjis.o
 .comment       0x000000000000003d       0x3e /home/aquox/Scrivania/Arm/fps-ravenscar-arm/build/s-wchcnv.o
 .comment       0x000000000000003d       0x3e /home/aquox/Scrivania/Arm/fps-ravenscar-arm/build/s-addima.o
 .comment       0x000000000000003d       0x3e /home/aquox/Scrivania/Arm/fps-ravenscar-arm/build/s-traceb.o
 .comment       0x000000000000003d       0x3e /home/aquox/Scrivania/Arm/fps-ravenscar-arm/build/s-excdeb.o
 .comment       0x000000000000003d       0x3e /home/aquox/Scrivania/Arm/fps-ravenscar-arm/build/s-excmac.o
 .comment       0x000000000000003d       0x3e /home/aquox/Scrivania/Arm/fps-ravenscar-arm/build/s-multip.o
 .comment       0x000000000000003d       0x3e /home/aquox/Scrivania/Arm/fps-ravenscar-arm/build/s-musplo.o
 .comment       0x000000000000003d       0x3e /home/aquox/Scrivania/Arm/fps-ravenscar-arm/build/s-exctab.o
 .comment       0x000000000000003d       0x3e /home/aquox/Scrivania/Arm/fps-ravenscar-arm/build/s-bcpcst.o
 .comment       0x000000000000003d       0x3e /home/aquox/Scrivania/Arm/fps-ravenscar-arm/build/s-bbbosu.o
 .comment       0x000000000000003d       0x3e /home/aquox/Scrivania/Arm/fps-ravenscar-arm/build/s-bbdead.o
 .comment       0x000000000000003d       0x3e /home/aquox/Scrivania/Arm/fps-ravenscar-arm/build/a-exctra.o
 .comment       0x000000000000003d       0x3e /home/aquox/Scrivania/Arm/fps-ravenscar-arm/build/s-memory.o
 .comment       0x000000000000003d       0x3e /home/aquox/Scrivania/Arm/fps-ravenscar-arm/build/s-trasym.o
 .comment       0x000000000000003d       0x3e /home/aquox/Scrivania/Arm/fps-ravenscar-arm/build/s-wchstw.o
 .comment       0x000000000000003d       0x3e /home/aquox/Scrivania/Arm/fps-ravenscar-arm/build/a-tags.o
 .comment       0x000000000000003d       0x3e /home/aquox/Scrivania/Arm/fps-ravenscar-arm/build/s-valuti.o
 .comment       0x000000000000003d       0x3e /home/aquox/Scrivania/Arm/fps-ravenscar-arm/build/s-valuns.o
 .comment       0x000000000000003d       0x3e /home/aquox/Scrivania/Arm/fps-ravenscar-arm/build/s-stalib.o
 .comment       0x000000000000003d       0x3e /home/aquox/Scrivania/Arm/fps-ravenscar-arm/build/a-except.o
 .comment       0x000000000000003d       0x3e /home/aquox/Scrivania/Arm/fps-ravenscar-arm/build/s-bbthqu.o
 .comment       0x000000000000003d       0x3e /home/aquox/Scrivania/Arm/fps-ravenscar-arm/build/s-bbprot.o
 .comment       0x000000000000003d       0x3e /home/aquox/Scrivania/Arm/fps-ravenscar-arm/build/s-bbthre.o
 .comment       0x000000000000003d       0x3e /home/aquox/Scrivania/Arm/fps-ravenscar-arm/build/s-bbinte.o
 .comment       0x000000000000003d       0x3e /home/aquox/Scrivania/Arm/fps-ravenscar-arm/build/s-bbcppr.o
 .comment       0x000000000000003d       0x3e /home/aquox/Scrivania/Arm/fps-ravenscar-arm/build/s-osinte.o
 .comment       0x000000000000003d       0x3e /home/aquox/Scrivania/Arm/fps-ravenscar-arm/build/a-elchha.o
 .comment       0x000000000000003d       0x3e /home/aquox/Scrivania/Arm/fps-ravenscar-arm/build/s-taspri.o
 .comment       0x000000000000003d       0x3e /home/aquox/Scrivania/Arm/fps-ravenscar-arm/build/s-bbtiev.o
 .comment       0x000000000000003d       0x3e /home/aquox/Scrivania/Arm/fps-ravenscar-arm/build/s-bbtime.o
 .comment       0x000000000000003d       0x3e /home/aquox/Scrivania/Arm/fps-ravenscar-arm/build/s-mufalo.o
 .comment       0x000000000000003d       0x3e /home/aquox/Scrivania/Arm/fps-ravenscar-arm/build/s-tasdeb.o
 .comment       0x000000000000003d       0x3e /home/aquox/Scrivania/Arm/fps-ravenscar-arm/build/s-taskin.o
 .comment       0x000000000000003d       0x3e /home/aquox/Scrivania/Arm/fps-ravenscar-arm/build/s-soflin.o
 .comment       0x000000000000003d       0x3e /home/aquox/Scrivania/Arm/fps-ravenscar-arm/build/s-taprop.o
 .comment       0x000000000000003d       0x3e /home/aquox/Scrivania/Arm/fps-ravenscar-arm/build/a-reatim.o
 .comment       0x000000000000003d       0x3e /home/aquox/Scrivania/Arm/fps-ravenscar-arm/build/a-retide.o
 .comment       0x000000000000003d       0x3e /home/aquox/Scrivania/Arm/fps-ravenscar-arm/build/s-taprob.o
 .comment       0x000000000000003d       0x3e /home/aquox/Scrivania/Arm/fps-ravenscar-arm/build/s-tpoben.o
 .comment       0x000000000000003d       0x3e /home/aquox/Scrivania/Arm/fps-ravenscar-arm/build/s-tpobmu.o
 .comment       0x000000000000003d       0x3e /home/aquox/Scrivania/Arm/fps-ravenscar-arm/build/s-tposen.o
 .comment       0x000000000000003d       0x3e /home/aquox/Scrivania/Arm/fps-ravenscar-arm/build/s-tasque.o
 .comment       0x000000000000003d       0x3e /home/aquox/Scrivania/Arm/fps-ravenscar-arm/build/s-tpobop.o
 .comment       0x000000000000003d       0x3e /home/aquox/Scrivania/Arm/fps-ravenscar-arm/build/s-tasres.o
 .comment       0x000000000000003d       0x3e /home/aquox/Scrivania/Arm/fps-ravenscar-arm/build/s-tarest.o
 .comment       0x000000000000003d       0x3e /home/aquox/Scrivania/Arm/fps-ravenscar-arm/build/a-taside.o
 .comment       0x000000000000003d       0x3e /home/aquox/Scrivania/Arm/fps-ravenscar-arm/build/a-sytaco.o
 .comment       0x000000000000003d       0x3e /home/aquox/Scrivania/Arm/fps-ravenscar-arm/build/activation_log_parameters.o
 .comment       0x000000000000003d       0x3e /home/aquox/Scrivania/Arm/fps-ravenscar-arm/build/activation_log.o
 .comment       0x000000000000003d       0x3e /home/aquox/Scrivania/Arm/fps-ravenscar-arm/build/activation_manager.o
 .comment       0x000000000000003d       0x3e /home/aquox/Scrivania/Arm/fps-ravenscar-arm/build/auxiliary.o
 .comment       0x000000000000003d       0x3e /home/aquox/Scrivania/Arm/fps-ravenscar-arm/build/external_event_server_parameters.o
 .comment       0x000000000000003d       0x3e /home/aquox/Scrivania/Arm/fps-ravenscar-arm/build/event_queue.o
 .comment       0x000000000000003d       0x3e /home/aquox/Scrivania/Arm/fps-ravenscar-arm/build/external_event_server.o
 .comment       0x000000000000003d       0x3e /home/aquox/Scrivania/Arm/fps-ravenscar-arm/build/production_workload.o
 .comment       0x000000000000003d       0x3e /home/aquox/Scrivania/Arm/fps-ravenscar-arm/build/activation_log_reader_parameters.o
 .comment       0x000000000000003d       0x3e /home/aquox/Scrivania/Arm/fps-ravenscar-arm/build/activation_log_reader.o
 .comment       0x000000000000003d       0x3e /home/aquox/Scrivania/Arm/fps-ravenscar-arm/build/on_call_producer_parameters.o
 .comment       0x000000000000003d       0x3e /home/aquox/Scrivania/Arm/fps-ravenscar-arm/build/request_buffer_parameters.o
 .comment       0x000000000000003d       0x3e /home/aquox/Scrivania/Arm/fps-ravenscar-arm/build/request_buffer.o
 .comment       0x000000000000003d       0x3e /home/aquox/Scrivania/Arm/fps-ravenscar-arm/build/on_call_producer.o
 .comment       0x000000000000003d       0x3e /home/aquox/Scrivania/Arm/fps-ravenscar-arm/build/regular_producer_parameters.o
 .comment       0x000000000000003d       0x3e /home/aquox/Scrivania/Arm/fps-ravenscar-arm/build/regular_producer.o
 .comment       0x000000000000003d       0x3e /usr/local/gnat-arm/arm-eabi/lib/gnat/ravenscar-full-stm32f4/adalib/libgnat.a(a-nuelfu.o)
 .comment       0x000000000000003d       0x3e /usr/local/gnat-arm/arm-eabi/lib/gnat/ravenscar-full-stm32f4/adalib/libgnat.a(a-numeri.o)
 .comment       0x000000000000003d       0x3e /usr/local/gnat-arm/arm-eabi/lib/gnat/ravenscar-full-stm32f4/adalib/libgnat.a(a-textio.o)
 .comment       0x000000000000003d       0x3e /usr/local/gnat-arm/arm-eabi/lib/gnat/ravenscar-full-stm32f4/adalib/libgnat.a(adaint-xi.o)
 .comment       0x000000000000003d       0x3e /usr/local/gnat-arm/arm-eabi/lib/gnat/ravenscar-full-stm32f4/adalib/libgnat.a(raise-gcc.o)
 .comment       0x000000000000003d       0x3e /usr/local/gnat-arm/arm-eabi/lib/gnat/ravenscar-full-stm32f4/adalib/libgnat.a(s-fatflt.o)
 .comment       0x000000000000003d       0x3e /usr/local/gnat-arm/arm-eabi/lib/gnat/ravenscar-full-stm32f4/adalib/libgnat.a(s-init.o)
 .comment       0x000000000000003d       0x3e /usr/local/gnat-arm/arm-eabi/lib/gnat/ravenscar-full-stm32f4/adalib/libgnat.a(s-libsin.o)
 .comment       0x000000000000003d       0x3e /usr/local/gnat-arm/arm-eabi/lib/gnat/ravenscar-full-stm32f4/adalib/libgnat.a(s-lisisq.o)
 .comment       0x000000000000003d       0x3e /usr/local/gnat-arm/arm-eabi/lib/gnat/ravenscar-full-stm32f4/adalib/libgnat.a(s-macres.o)
 .comment       0x000000000000003d       0x3e /usr/local/gnat-arm/arm-eabi/lib/gnat/ravenscar-full-stm32f4/adalib/libgnat.a(s-restri.o)
 .comment       0x000000000000003d       0x3e /usr/local/gnat-arm/arm-eabi/lib/gnat/ravenscar-full-stm32f4/adalib/libgnat.a(setup_pll.o)
 .comment       0x000000000000003d       0x3e /usr/local/gnat-arm/bin/../lib/gcc/arm-eabi/7.3.1/../../../../arm-eabi/lib/thumb/v7e-m/fpv4-sp/hard/libc.a(lib_a-malloc.o)
 .comment       0x000000000000003d       0x3e /usr/local/gnat-arm/bin/../lib/gcc/arm-eabi/7.3.1/../../../../arm-eabi/lib/thumb/v7e-m/fpv4-sp/hard/libc.a(lib_a-mallocr.o)
 .comment       0x000000000000003d       0x3e /usr/local/gnat-arm/bin/../lib/gcc/arm-eabi/7.3.1/../../../../arm-eabi/lib/thumb/v7e-m/fpv4-sp/hard/libc.a(lib_a-memcmp.o)
 .comment       0x000000000000003d       0x3e /usr/local/gnat-arm/bin/../lib/gcc/arm-eabi/7.3.1/../../../../arm-eabi/lib/thumb/v7e-m/fpv4-sp/hard/libc.a(lib_a-memmove.o)
 .comment       0x000000000000003d       0x3e /usr/local/gnat-arm/bin/../lib/gcc/arm-eabi/7.3.1/../../../../arm-eabi/lib/thumb/v7e-m/fpv4-sp/hard/libc.a(lib_a-memset.o)
 .comment       0x000000000000003d       0x3e /usr/local/gnat-arm/bin/../lib/gcc/arm-eabi/7.3.1/../../../../arm-eabi/lib/thumb/v7e-m/fpv4-sp/hard/libc.a(lib_a-mlock.o)
 .comment       0x000000000000003d       0x3e /usr/local/gnat-arm/bin/../lib/gcc/arm-eabi/7.3.1/../../../../arm-eabi/lib/thumb/v7e-m/fpv4-sp/hard/libc.a(lib_a-realloc.o)
 .comment       0x000000000000003d       0x3e /usr/local/gnat-arm/bin/../lib/gcc/arm-eabi/7.3.1/../../../../arm-eabi/lib/thumb/v7e-m/fpv4-sp/hard/libc.a(lib_a-reallocr.o)
 .comment       0x000000000000003d       0x3e /usr/local/gnat-arm/bin/../lib/gcc/arm-eabi/7.3.1/../../../../arm-eabi/lib/thumb/v7e-m/fpv4-sp/hard/libc.a(lib_a-sbrkr.o)
 .comment       0x000000000000003d       0x3e /usr/local/gnat-arm/bin/../lib/gcc/arm-eabi/7.3.1/../../../../arm-eabi/lib/thumb/v7e-m/fpv4-sp/hard/libc.a(lib_a-freer.o)
 .comment       0x000000000000003d       0x3e /usr/local/gnat-arm/bin/../lib/gcc/arm-eabi/7.3.1/../../../../arm-eabi/lib/thumb/v7e-m/fpv4-sp/hard/libc.a(lib_a-impure.o)
 .comment       0x000000000000003d       0x3e /usr/local/gnat-arm/bin/../lib/gcc/arm-eabi/7.3.1/../../../../arm-eabi/lib/thumb/v7e-m/fpv4-sp/hard/libc.a(lib_a-reent.o)
 .comment       0x000000000000003d       0x3e /usr/local/gnat-arm/bin/../lib/gcc/arm-eabi/7.3.1/thumb/v7e-m/fpv4-sp/hard/libgcc.a(_fixsfdi.o)
 .comment       0x000000000000003d       0x3e /usr/local/gnat-arm/bin/../lib/gcc/arm-eabi/7.3.1/thumb/v7e-m/fpv4-sp/hard/libgcc.a(_fixunssfdi.o)
 .comment       0x000000000000003d       0x3e /usr/local/gnat-arm/bin/../lib/gcc/arm-eabi/7.3.1/thumb/v7e-m/fpv4-sp/hard/libgcc.a(_fixunsdfdi.o)
 .comment       0x000000000000003d       0x3e /usr/local/gnat-arm/bin/../lib/gcc/arm-eabi/7.3.1/thumb/v7e-m/fpv4-sp/hard/libgcc.a(_udivmoddi4.o)
 .comment       0x000000000000003d       0x3e /usr/local/gnat-arm/bin/../lib/gcc/arm-eabi/7.3.1/thumb/v7e-m/fpv4-sp/hard/libgcc.a(unwind-arm.o)
 .comment       0x000000000000003d       0x3e /usr/local/gnat-arm/bin/../lib/gcc/arm-eabi/7.3.1/thumb/v7e-m/fpv4-sp/hard/libgcc.a(pr-support.o)
 .comment       0x000000000000003d       0x3e /usr/local/gnat-arm/arm-eabi/lib/gnat/ravenscar-full-stm32f4/adalib//libgnat.a(newlib-bb.o)
 .comment       0x000000000000003d       0x3e /usr/local/gnat-arm/bin/../lib/gcc/arm-eabi/7.3.1/../../../../arm-eabi/lib/thumb/v7e-m/fpv4-sp/hard/libc.a(lib_a-errno.o)

.ARM.attributes
                0x0000000000000000       0x37
 .ARM.attributes
                0x0000000000000000       0x37 gee.o
 .ARM.attributes
                0x0000000000000037       0x37 b__gee.o
 .ARM.attributes
                0x000000000000006e       0x37 /home/aquox/Scrivania/Arm/fps-ravenscar-arm/build/ada.o
 .ARM.attributes
                0x00000000000000a5       0x37 /home/aquox/Scrivania/Arm/fps-ravenscar-arm/build/gnat.o
 .ARM.attributes
                0x00000000000000dc       0x37 /home/aquox/Scrivania/Arm/fps-ravenscar-arm/build/interfac.o
 .ARM.attributes
                0x0000000000000113       0x37 /home/aquox/Scrivania/Arm/fps-ravenscar-arm/build/system.o
 .ARM.attributes
                0x000000000000014a       0x37 /home/aquox/Scrivania/Arm/fps-ravenscar-arm/build/i-stm32.o
 .ARM.attributes
                0x0000000000000181       0x37 /home/aquox/Scrivania/Arm/fps-ravenscar-arm/build/i-stm32-pwr.o
 .ARM.attributes
                0x00000000000001b8       0x37 /home/aquox/Scrivania/Arm/fps-ravenscar-arm/build/s-bb.o
 .ARM.attributes
                0x00000000000001ef       0x37 /home/aquox/Scrivania/Arm/fps-ravenscar-arm/build/s-bbbopa.o
 .ARM.attributes
                0x0000000000000226       0x37 /home/aquox/Scrivania/Arm/fps-ravenscar-arm/build/s-bbcpsp.o
 .ARM.attributes
                0x000000000000025d       0x37 /home/aquox/Scrivania/Arm/fps-ravenscar-arm/build/s-bbmcpa.o
 .ARM.attributes
                0x0000000000000294       0x37 /home/aquox/Scrivania/Arm/fps-ravenscar-arm/build/s-except.o
 .ARM.attributes
                0x00000000000002cb       0x37 /home/aquox/Scrivania/Arm/fps-ravenscar-arm/build/s-imgint.o
 .ARM.attributes
                0x0000000000000302       0x37 /home/aquox/Scrivania/Arm/fps-ravenscar-arm/build/s-maccod.o
 .ARM.attributes
                0x0000000000000339       0x37 /home/aquox/Scrivania/Arm/fps-ravenscar-arm/build/s-parame.o
 .ARM.attributes
                0x0000000000000370       0x37 /home/aquox/Scrivania/Arm/fps-ravenscar-arm/build/s-semiho.o
 .ARM.attributes
                0x00000000000003a7       0x37 /home/aquox/Scrivania/Arm/fps-ravenscar-arm/build/s-stoele.o
 .ARM.attributes
                0x00000000000003de       0x37 /home/aquox/Scrivania/Arm/fps-ravenscar-arm/build/s-secsta.o
 .ARM.attributes
                0x0000000000000415       0x37 /home/aquox/Scrivania/Arm/fps-ravenscar-arm/build/g-debuti.o
 .ARM.attributes
                0x000000000000044c       0x37 /home/aquox/Scrivania/Arm/fps-ravenscar-arm/build/s-casuti.o
 .ARM.attributes
                0x0000000000000483       0x37 /home/aquox/Scrivania/Arm/fps-ravenscar-arm/build/s-strhas.o
 .ARM.attributes
                0x00000000000004ba       0x37 /home/aquox/Scrivania/Arm/fps-ravenscar-arm/build/s-htable.o
 .ARM.attributes
                0x00000000000004f1       0x37 /home/aquox/Scrivania/Arm/fps-ravenscar-arm/build/s-tasinf.o
 .ARM.attributes
                0x0000000000000528       0x37 /home/aquox/Scrivania/Arm/fps-ravenscar-arm/build/s-textio.o
 .ARM.attributes
                0x000000000000055f       0x37 /home/aquox/Scrivania/Arm/fps-ravenscar-arm/build/s-io.o
 .ARM.attributes
                0x0000000000000596       0x37 /home/aquox/Scrivania/Arm/fps-ravenscar-arm/build/s-traent.o
 .ARM.attributes
                0x00000000000005cd       0x37 /home/aquox/Scrivania/Arm/fps-ravenscar-arm/build/s-unstyp.o
 .ARM.attributes
                0x0000000000000604       0x37 /home/aquox/Scrivania/Arm/fps-ravenscar-arm/build/i-stm32-rcc.o
 .ARM.attributes
                0x000000000000063b       0x37 /home/aquox/Scrivania/Arm/fps-ravenscar-arm/build/s-bbpara.o
 .ARM.attributes
                0x0000000000000672       0x37 /home/aquox/Scrivania/Arm/fps-ravenscar-arm/build/s-stm32.o
 .ARM.attributes
                0x00000000000006a9       0x37 /home/aquox/Scrivania/Arm/fps-ravenscar-arm/build/s-wchcon.o
 .ARM.attributes
                0x00000000000006e0       0x37 /home/aquox/Scrivania/Arm/fps-ravenscar-arm/build/s-wchjis.o
 .ARM.attributes
                0x0000000000000717       0x37 /home/aquox/Scrivania/Arm/fps-ravenscar-arm/build/s-wchcnv.o
 .ARM.attributes
                0x000000000000074e       0x37 /home/aquox/Scrivania/Arm/fps-ravenscar-arm/build/s-addima.o
 .ARM.attributes
                0x0000000000000785       0x37 /home/aquox/Scrivania/Arm/fps-ravenscar-arm/build/s-traceb.o
 .ARM.attributes
                0x00000000000007bc       0x37 /home/aquox/Scrivania/Arm/fps-ravenscar-arm/build/s-excdeb.o
 .ARM.attributes
                0x00000000000007f3       0x37 /home/aquox/Scrivania/Arm/fps-ravenscar-arm/build/s-excmac.o
 .ARM.attributes
                0x000000000000082a       0x37 /home/aquox/Scrivania/Arm/fps-ravenscar-arm/build/s-multip.o
 .ARM.attributes
                0x0000000000000861       0x37 /home/aquox/Scrivania/Arm/fps-ravenscar-arm/build/s-musplo.o
 .ARM.attributes
                0x0000000000000898       0x37 /home/aquox/Scrivania/Arm/fps-ravenscar-arm/build/s-exctab.o
 .ARM.attributes
                0x00000000000008cf       0x37 /home/aquox/Scrivania/Arm/fps-ravenscar-arm/build/s-bcpcst.o
 .ARM.attributes
                0x0000000000000906       0x37 /home/aquox/Scrivania/Arm/fps-ravenscar-arm/build/s-bbbosu.o
 .ARM.attributes
                0x000000000000093d       0x37 /home/aquox/Scrivania/Arm/fps-ravenscar-arm/build/s-bbdead.o
 .ARM.attributes
                0x0000000000000974       0x37 /home/aquox/Scrivania/Arm/fps-ravenscar-arm/build/a-exctra.o
 .ARM.attributes
                0x00000000000009ab       0x37 /home/aquox/Scrivania/Arm/fps-ravenscar-arm/build/s-memory.o
 .ARM.attributes
                0x00000000000009e2       0x37 /home/aquox/Scrivania/Arm/fps-ravenscar-arm/build/s-trasym.o
 .ARM.attributes
                0x0000000000000a19       0x37 /home/aquox/Scrivania/Arm/fps-ravenscar-arm/build/s-wchstw.o
 .ARM.attributes
                0x0000000000000a50       0x37 /home/aquox/Scrivania/Arm/fps-ravenscar-arm/build/a-tags.o
 .ARM.attributes
                0x0000000000000a87       0x37 /home/aquox/Scrivania/Arm/fps-ravenscar-arm/build/s-valuti.o
 .ARM.attributes
                0x0000000000000abe       0x37 /home/aquox/Scrivania/Arm/fps-ravenscar-arm/build/s-valuns.o
 .ARM.attributes
                0x0000000000000af5       0x37 /home/aquox/Scrivania/Arm/fps-ravenscar-arm/build/s-stalib.o
 .ARM.attributes
                0x0000000000000b2c       0x37 /home/aquox/Scrivania/Arm/fps-ravenscar-arm/build/a-except.o
 .ARM.attributes
                0x0000000000000b63       0x37 /home/aquox/Scrivania/Arm/fps-ravenscar-arm/build/s-bbthqu.o
 .ARM.attributes
                0x0000000000000b9a       0x37 /home/aquox/Scrivania/Arm/fps-ravenscar-arm/build/s-bbprot.o
 .ARM.attributes
                0x0000000000000bd1       0x37 /home/aquox/Scrivania/Arm/fps-ravenscar-arm/build/s-bbthre.o
 .ARM.attributes
                0x0000000000000c08       0x37 /home/aquox/Scrivania/Arm/fps-ravenscar-arm/build/s-bbinte.o
 .ARM.attributes
                0x0000000000000c3f       0x37 /home/aquox/Scrivania/Arm/fps-ravenscar-arm/build/s-bbcppr.o
 .ARM.attributes
                0x0000000000000c76       0x37 /home/aquox/Scrivania/Arm/fps-ravenscar-arm/build/s-osinte.o
 .ARM.attributes
                0x0000000000000cad       0x37 /home/aquox/Scrivania/Arm/fps-ravenscar-arm/build/a-elchha.o
 .ARM.attributes
                0x0000000000000ce4       0x37 /home/aquox/Scrivania/Arm/fps-ravenscar-arm/build/s-taspri.o
 .ARM.attributes
                0x0000000000000d1b       0x37 /home/aquox/Scrivania/Arm/fps-ravenscar-arm/build/s-bbtiev.o
 .ARM.attributes
                0x0000000000000d52       0x37 /home/aquox/Scrivania/Arm/fps-ravenscar-arm/build/s-bbtime.o
 .ARM.attributes
                0x0000000000000d89       0x37 /home/aquox/Scrivania/Arm/fps-ravenscar-arm/build/s-mufalo.o
 .ARM.attributes
                0x0000000000000dc0       0x37 /home/aquox/Scrivania/Arm/fps-ravenscar-arm/build/s-tasdeb.o
 .ARM.attributes
                0x0000000000000df7       0x37 /home/aquox/Scrivania/Arm/fps-ravenscar-arm/build/s-taskin.o
 .ARM.attributes
                0x0000000000000e2e       0x37 /home/aquox/Scrivania/Arm/fps-ravenscar-arm/build/s-soflin.o
 .ARM.attributes
                0x0000000000000e65       0x37 /home/aquox/Scrivania/Arm/fps-ravenscar-arm/build/s-taprop.o
 .ARM.attributes
                0x0000000000000e9c       0x37 /home/aquox/Scrivania/Arm/fps-ravenscar-arm/build/a-reatim.o
 .ARM.attributes
                0x0000000000000ed3       0x37 /home/aquox/Scrivania/Arm/fps-ravenscar-arm/build/a-retide.o
 .ARM.attributes
                0x0000000000000f0a       0x37 /home/aquox/Scrivania/Arm/fps-ravenscar-arm/build/s-taprob.o
 .ARM.attributes
                0x0000000000000f41       0x37 /home/aquox/Scrivania/Arm/fps-ravenscar-arm/build/s-tpoben.o
 .ARM.attributes
                0x0000000000000f78       0x37 /home/aquox/Scrivania/Arm/fps-ravenscar-arm/build/s-tpobmu.o
 .ARM.attributes
                0x0000000000000faf       0x37 /home/aquox/Scrivania/Arm/fps-ravenscar-arm/build/s-tposen.o
 .ARM.attributes
                0x0000000000000fe6       0x37 /home/aquox/Scrivania/Arm/fps-ravenscar-arm/build/s-tasque.o
 .ARM.attributes
                0x000000000000101d       0x37 /home/aquox/Scrivania/Arm/fps-ravenscar-arm/build/s-tpobop.o
 .ARM.attributes
                0x0000000000001054       0x37 /home/aquox/Scrivania/Arm/fps-ravenscar-arm/build/s-tasres.o
 .ARM.attributes
                0x000000000000108b       0x37 /home/aquox/Scrivania/Arm/fps-ravenscar-arm/build/s-tarest.o
 .ARM.attributes
                0x00000000000010c2       0x37 /home/aquox/Scrivania/Arm/fps-ravenscar-arm/build/a-taside.o
 .ARM.attributes
                0x00000000000010f9       0x37 /home/aquox/Scrivania/Arm/fps-ravenscar-arm/build/a-sytaco.o
 .ARM.attributes
                0x0000000000001130       0x37 /home/aquox/Scrivania/Arm/fps-ravenscar-arm/build/activation_log_parameters.o
 .ARM.attributes
                0x0000000000001167       0x37 /home/aquox/Scrivania/Arm/fps-ravenscar-arm/build/activation_log.o
 .ARM.attributes
                0x000000000000119e       0x37 /home/aquox/Scrivania/Arm/fps-ravenscar-arm/build/activation_manager.o
 .ARM.attributes
                0x00000000000011d5       0x37 /home/aquox/Scrivania/Arm/fps-ravenscar-arm/build/auxiliary.o
 .ARM.attributes
                0x000000000000120c       0x37 /home/aquox/Scrivania/Arm/fps-ravenscar-arm/build/external_event_server_parameters.o
 .ARM.attributes
                0x0000000000001243       0x37 /home/aquox/Scrivania/Arm/fps-ravenscar-arm/build/event_queue.o
 .ARM.attributes
                0x000000000000127a       0x37 /home/aquox/Scrivania/Arm/fps-ravenscar-arm/build/external_event_server.o
 .ARM.attributes
                0x00000000000012b1       0x37 /home/aquox/Scrivania/Arm/fps-ravenscar-arm/build/production_workload.o
 .ARM.attributes
                0x00000000000012e8       0x37 /home/aquox/Scrivania/Arm/fps-ravenscar-arm/build/activation_log_reader_parameters.o
 .ARM.attributes
                0x000000000000131f       0x37 /home/aquox/Scrivania/Arm/fps-ravenscar-arm/build/activation_log_reader.o
 .ARM.attributes
                0x0000000000001356       0x37 /home/aquox/Scrivania/Arm/fps-ravenscar-arm/build/on_call_producer_parameters.o
 .ARM.attributes
                0x000000000000138d       0x37 /home/aquox/Scrivania/Arm/fps-ravenscar-arm/build/request_buffer_parameters.o
 .ARM.attributes
                0x00000000000013c4       0x37 /home/aquox/Scrivania/Arm/fps-ravenscar-arm/build/request_buffer.o
 .ARM.attributes
                0x00000000000013fb       0x37 /home/aquox/Scrivania/Arm/fps-ravenscar-arm/build/on_call_producer.o
 .ARM.attributes
                0x0000000000001432       0x37 /home/aquox/Scrivania/Arm/fps-ravenscar-arm/build/regular_producer_parameters.o
 .ARM.attributes
                0x0000000000001469       0x37 /home/aquox/Scrivania/Arm/fps-ravenscar-arm/build/regular_producer.o
 .ARM.attributes
                0x00000000000014a0       0x37 /usr/local/gnat-arm/arm-eabi/lib/gnat/ravenscar-full-stm32f4/adalib/libgnat.a(a-nuelfu.o)
 .ARM.attributes
                0x00000000000014d7       0x37 /usr/local/gnat-arm/arm-eabi/lib/gnat/ravenscar-full-stm32f4/adalib/libgnat.a(a-numeri.o)
 .ARM.attributes
                0x000000000000150e       0x37 /usr/local/gnat-arm/arm-eabi/lib/gnat/ravenscar-full-stm32f4/adalib/libgnat.a(a-textio.o)
 .ARM.attributes
                0x0000000000001545       0x39 /usr/local/gnat-arm/arm-eabi/lib/gnat/ravenscar-full-stm32f4/adalib/libgnat.a(adaint-xi.o)
 .ARM.attributes
                0x000000000000157e       0x25 /usr/local/gnat-arm/arm-eabi/lib/gnat/ravenscar-full-stm32f4/adalib/libgnat.a(handler.o)
 .ARM.attributes
                0x00000000000015a3       0x39 /usr/local/gnat-arm/arm-eabi/lib/gnat/ravenscar-full-stm32f4/adalib/libgnat.a(raise-gcc.o)
 .ARM.attributes
                0x00000000000015dc       0x37 /usr/local/gnat-arm/arm-eabi/lib/gnat/ravenscar-full-stm32f4/adalib/libgnat.a(s-fatflt.o)
 .ARM.attributes
                0x0000000000001613       0x37 /usr/local/gnat-arm/arm-eabi/lib/gnat/ravenscar-full-stm32f4/adalib/libgnat.a(s-init.o)
 .ARM.attributes
                0x000000000000164a       0x37 /usr/local/gnat-arm/arm-eabi/lib/gnat/ravenscar-full-stm32f4/adalib/libgnat.a(s-libsin.o)
 .ARM.attributes
                0x0000000000001681       0x37 /usr/local/gnat-arm/arm-eabi/lib/gnat/ravenscar-full-stm32f4/adalib/libgnat.a(s-lisisq.o)
 .ARM.attributes
                0x00000000000016b8       0x37 /usr/local/gnat-arm/arm-eabi/lib/gnat/ravenscar-full-stm32f4/adalib/libgnat.a(s-macres.o)
 .ARM.attributes
                0x00000000000016ef       0x37 /usr/local/gnat-arm/arm-eabi/lib/gnat/ravenscar-full-stm32f4/adalib/libgnat.a(s-restri.o)
 .ARM.attributes
                0x0000000000001726       0x25 /usr/local/gnat-arm/arm-eabi/lib/gnat/ravenscar-full-stm32f4/adalib/libgnat.a(start-rom.o)
 .ARM.attributes
                0x000000000000174b       0x25 /usr/local/gnat-arm/arm-eabi/lib/gnat/ravenscar-full-stm32f4/adalib/libgnat.a(breakpoint_handler-cortexm.o)
 .ARM.attributes
                0x0000000000001770       0x37 /usr/local/gnat-arm/arm-eabi/lib/gnat/ravenscar-full-stm32f4/adalib/libgnat.a(setup_pll.o)
 .ARM.attributes
                0x00000000000017a7       0x25 /usr/local/gnat-arm/arm-eabi/lib/gnat/ravenscar-full-stm32f4/adalib/libgnat.a(start-common.o)
 .ARM.attributes
                0x00000000000017cc       0x34 /usr/local/gnat-arm/bin/../lib/gcc/arm-eabi/7.3.1/../../../../arm-eabi/lib/thumb/v7e-m/fpv4-sp/hard/libc.a(lib_a-malloc.o)
 .ARM.attributes
                0x0000000000001800       0x34 /usr/local/gnat-arm/bin/../lib/gcc/arm-eabi/7.3.1/../../../../arm-eabi/lib/thumb/v7e-m/fpv4-sp/hard/libc.a(lib_a-mallocr.o)
 .ARM.attributes
                0x0000000000001834       0x34 /usr/local/gnat-arm/bin/../lib/gcc/arm-eabi/7.3.1/../../../../arm-eabi/lib/thumb/v7e-m/fpv4-sp/hard/libc.a(lib_a-memcmp.o)
 .ARM.attributes
                0x0000000000001868       0x20 /usr/local/gnat-arm/bin/../lib/gcc/arm-eabi/7.3.1/../../../../arm-eabi/lib/thumb/v7e-m/fpv4-sp/hard/libc.a(lib_a-memcpy.o)
 .ARM.attributes
                0x0000000000001888       0x34 /usr/local/gnat-arm/bin/../lib/gcc/arm-eabi/7.3.1/../../../../arm-eabi/lib/thumb/v7e-m/fpv4-sp/hard/libc.a(lib_a-memmove.o)
 .ARM.attributes
                0x00000000000018bc       0x34 /usr/local/gnat-arm/bin/../lib/gcc/arm-eabi/7.3.1/../../../../arm-eabi/lib/thumb/v7e-m/fpv4-sp/hard/libc.a(lib_a-memset.o)
 .ARM.attributes
                0x00000000000018f0       0x34 /usr/local/gnat-arm/bin/../lib/gcc/arm-eabi/7.3.1/../../../../arm-eabi/lib/thumb/v7e-m/fpv4-sp/hard/libc.a(lib_a-mlock.o)
 .ARM.attributes
                0x0000000000001924       0x34 /usr/local/gnat-arm/bin/../lib/gcc/arm-eabi/7.3.1/../../../../arm-eabi/lib/thumb/v7e-m/fpv4-sp/hard/libc.a(lib_a-realloc.o)
 .ARM.attributes
                0x0000000000001958       0x34 /usr/local/gnat-arm/bin/../lib/gcc/arm-eabi/7.3.1/../../../../arm-eabi/lib/thumb/v7e-m/fpv4-sp/hard/libc.a(lib_a-reallocr.o)
 .ARM.attributes
                0x000000000000198c       0x34 /usr/local/gnat-arm/bin/../lib/gcc/arm-eabi/7.3.1/../../../../arm-eabi/lib/thumb/v7e-m/fpv4-sp/hard/libc.a(lib_a-sbrkr.o)
 .ARM.attributes
                0x00000000000019c0       0x34 /usr/local/gnat-arm/bin/../lib/gcc/arm-eabi/7.3.1/../../../../arm-eabi/lib/thumb/v7e-m/fpv4-sp/hard/libc.a(lib_a-freer.o)
 .ARM.attributes
                0x00000000000019f4       0x34 /usr/local/gnat-arm/bin/../lib/gcc/arm-eabi/7.3.1/../../../../arm-eabi/lib/thumb/v7e-m/fpv4-sp/hard/libc.a(lib_a-impure.o)
 .ARM.attributes
                0x0000000000001a28       0x34 /usr/local/gnat-arm/bin/../lib/gcc/arm-eabi/7.3.1/../../../../arm-eabi/lib/thumb/v7e-m/fpv4-sp/hard/libc.a(lib_a-reent.o)
 .ARM.attributes
                0x0000000000001a5c       0x22 /usr/local/gnat-arm/bin/../lib/gcc/arm-eabi/7.3.1/thumb/v7e-m/fpv4-sp/hard/libgcc.a(_arm_addsubdf3.o)
 .ARM.attributes
                0x0000000000001a7e       0x22 /usr/local/gnat-arm/bin/../lib/gcc/arm-eabi/7.3.1/thumb/v7e-m/fpv4-sp/hard/libgcc.a(_arm_truncdfsf2.o)
 .ARM.attributes
                0x0000000000001aa0       0x22 /usr/local/gnat-arm/bin/../lib/gcc/arm-eabi/7.3.1/thumb/v7e-m/fpv4-sp/hard/libgcc.a(_aeabi_ldivmod.o)
 .ARM.attributes
                0x0000000000001ac2       0x22 /usr/local/gnat-arm/bin/../lib/gcc/arm-eabi/7.3.1/thumb/v7e-m/fpv4-sp/hard/libgcc.a(_aeabi_uldivmod.o)
 .ARM.attributes
                0x0000000000001ae4       0x34 /usr/local/gnat-arm/bin/../lib/gcc/arm-eabi/7.3.1/thumb/v7e-m/fpv4-sp/hard/libgcc.a(_fixsfdi.o)
 .ARM.attributes
                0x0000000000001b18       0x34 /usr/local/gnat-arm/bin/../lib/gcc/arm-eabi/7.3.1/thumb/v7e-m/fpv4-sp/hard/libgcc.a(_fixunssfdi.o)
 .ARM.attributes
                0x0000000000001b4c       0x34 /usr/local/gnat-arm/bin/../lib/gcc/arm-eabi/7.3.1/thumb/v7e-m/fpv4-sp/hard/libgcc.a(_fixunsdfdi.o)
 .ARM.attributes
                0x0000000000001b80       0x34 /usr/local/gnat-arm/bin/../lib/gcc/arm-eabi/7.3.1/thumb/v7e-m/fpv4-sp/hard/libgcc.a(_udivmoddi4.o)
 .ARM.attributes
                0x0000000000001bb4       0x34 /usr/local/gnat-arm/bin/../lib/gcc/arm-eabi/7.3.1/thumb/v7e-m/fpv4-sp/hard/libgcc.a(unwind-arm.o)
 .ARM.attributes
                0x0000000000001be8       0x22 /usr/local/gnat-arm/bin/../lib/gcc/arm-eabi/7.3.1/thumb/v7e-m/fpv4-sp/hard/libgcc.a(libunwind.o)
 .ARM.attributes
                0x0000000000001c0a       0x34 /usr/local/gnat-arm/bin/../lib/gcc/arm-eabi/7.3.1/thumb/v7e-m/fpv4-sp/hard/libgcc.a(pr-support.o)
 .ARM.attributes
                0x0000000000001c3e       0x22 /usr/local/gnat-arm/bin/../lib/gcc/arm-eabi/7.3.1/thumb/v7e-m/fpv4-sp/hard/libgcc.a(_dvmd_tls.o)
 .ARM.attributes
                0x0000000000001c60       0x22 /usr/local/gnat-arm/bin/../lib/gcc/arm-eabi/7.3.1/thumb/v7e-m/fpv4-sp/hard/libgcc.a(_arm_muldivdf3.o)
 .ARM.attributes
                0x0000000000001c82       0x22 /usr/local/gnat-arm/bin/../lib/gcc/arm-eabi/7.3.1/thumb/v7e-m/fpv4-sp/hard/libgcc.a(_arm_fixunsdfsi.o)
 .ARM.attributes
                0x0000000000001ca4       0x39 /usr/local/gnat-arm/arm-eabi/lib/gnat/ravenscar-full-stm32f4/adalib//libgnat.a(newlib-bb.o)
 .ARM.attributes
                0x0000000000001cdd       0x34 /usr/local/gnat-arm/bin/../lib/gcc/arm-eabi/7.3.1/../../../../arm-eabi/lib/thumb/v7e-m/fpv4-sp/hard/libc.a(lib_a-errno.o)

.gnu.attributes
 *(.gnu.attributes)

/DISCARD/
 *(.note.GNU-stack)
 *(.gnu_debuglink)
 *(.gnu.lto_*)
OUTPUT(/home/aquox/Scrivania/Arm/fps-ravenscar-arm//gee elf32-littlearm)
